   1               		.file	"main.c"
   2               	__SREG__ = 0x3f
   3               	__SP_H__ = 0x3e
   4               	__SP_L__ = 0x3d
   5               	__CCP__  = 0x34
   6               	__tmp_reg__ = 0
   7               	__zero_reg__ = 1
  15               	.Ltext0:
  16               	.global	__vector_18
  18               	__vector_18:
  19               	.LFB4:
  20               	.LM1:
  21 0000 1F92      		push __zero_reg__
  22 0002 0F92      		push r0
  23 0004 0FB6      		in r0,__SREG__
  24 0006 0F92      		push r0
  25 0008 1124      		clr __zero_reg__
  26 000a 8F93      		push r24
  27 000c 9F93      		push r25
  28 000e EF93      		push r30
  29 0010 FF93      		push r31
  30               	/* prologue: Signal */
  31               	/* frame size = 0 */
  32               	.LM2:
  33               	/* #APP */
  34               	 ;  191 "main.c" 1
  35 0012 F894      		cli
  36               	 ;  0 "" 2
  37               	.LM3:
  38               	/* #NOAPP */
  39 0014 8091 0000 		lds r24,RX_in
  40 0018 9091 C600 		lds r25,198
  41 001c E82F      		mov r30,r24
  42 001e F0E0      		ldi r31,lo8(0)
  43 0020 E050      		subi r30,lo8(-(RX_array))
  44 0022 F040      		sbci r31,hi8(-(RX_array))
  45 0024 9083      		st Z,r25
  46 0026 8F5F      		subi r24,lo8(-(1))
  47 0028 8093 0000 		sts RX_in,r24
  48               	.LM4:
  49 002c 8091 0000 		lds r24,RX_in
  50               	.LM5:
  51 0030 8091 0000 		lds r24,RX_bytes
  52 0034 8F5F      		subi r24,lo8(-(1))
  53 0036 8093 0000 		sts RX_bytes,r24
  54               	.LM6:
  55 003a 8091 0000 		lds r24,RX_bytes
  56 003e 813C      		cpi r24,lo8(-63)
  57 0040 00F0      		brlo .L2
  58               	.L5:
  59               	.LBB125:
  60               	.LBB126:
  61               	.LM7:
  62 0042 8091 C000 		lds r24,192
  63 0046 85FF      		sbrs r24,5
  64 0048 00C0      		rjmp .L5
  65               	.LM8:
  66 004a 83E1      		ldi r24,lo8(19)
  67 004c 8093 C600 		sts 198,r24
  68               	.LBE126:
  69               	.LBE125:
  70               	.LM9:
  71 0050 81E0      		ldi r24,lo8(1)
  72 0052 8093 0000 		sts RX_pause,r24
  73               	.L2:
  74               	.LM10:
  75               	/* #APP */
  76               	 ;  204 "main.c" 1
  77 0056 7894      		sei
  78               	 ;  0 "" 2
  79               	/* epilogue start */
  80               	.LM11:
  81               	/* #NOAPP */
  82 0058 FF91      		pop r31
  83 005a EF91      		pop r30
  84 005c 9F91      		pop r25
  85 005e 8F91      		pop r24
  86 0060 0F90      		pop r0
  87 0062 0FBE      		out __SREG__,r0
  88 0064 0F90      		pop r0
  89 0066 1F90      		pop __zero_reg__
  90 0068 1895      		reti
  91               	.LFE4:
  93               	.global	__vector_14
  95               	__vector_14:
  96               	.LFB5:
  97               	.LM12:
  98 006a 1F92      		push __zero_reg__
  99 006c 0F92      		push r0
 100 006e 0FB6      		in r0,__SREG__
 101 0070 0F92      		push r0
 102 0072 1124      		clr __zero_reg__
 103 0074 8F93      		push r24
 104 0076 9F93      		push r25
 105               	/* prologue: Signal */
 106               	/* frame size = 0 */
 107               	.LM13:
 108 0078 15BC      		out 69-32,__zero_reg__
 109               	.LM14:
 110 007a 1092 6E00 		sts 110,__zero_reg__
 111               	.LM15:
 112 007e 82E0      		ldi r24,lo8(2)
 113 0080 85BB      		out 53-32,r24
 114               	.LM16:
 115 0082 16BC      		out 70-32,__zero_reg__
 116               	.LM17:
 117 0084 1A99      		sbic 35-32,2
 118 0086 00C0      		rjmp .L12
 119               	.LM18:
 120 0088 2A9A      		sbi 37-32,2
 121               	.LM19:
 122 008a 84E6      		ldi r24,lo8(100)
 123 008c 9091 0000 		lds r25,BL_dutycycle
 124 0090 891B      		sub r24,r25
 125 0092 87BD      		out 71-32,r24
 126               	.L10:
 127               	.LM20:
 128 0094 82E0      		ldi r24,lo8(2)
 129 0096 8093 6E00 		sts 110,r24
 130               	.LM21:
 131 009a 85BD      		out 69-32,r24
 132               	/* epilogue start */
 133               	.LM22:
 134 009c 9F91      		pop r25
 135 009e 8F91      		pop r24
 136 00a0 0F90      		pop r0
 137 00a2 0FBE      		out __SREG__,r0
 138 00a4 0F90      		pop r0
 139 00a6 1F90      		pop __zero_reg__
 140 00a8 1895      		reti
 141               	.L12:
 142               	.LM23:
 143 00aa 2A98      		cbi 37-32,2
 144               	.LM24:
 145 00ac 8091 0000 		lds r24,BL_dutycycle
 146 00b0 87BD      		out 71-32,r24
 147 00b2 00C0      		rjmp .L10
 148               	.LFE5:
 150               	.global	ioinit
 152               	ioinit:
 153               	.LFB7:
 154               	.LM25:
 155               	/* prologue: function */
 156               	/* frame size = 0 */
 157               	.LM26:
 158 00b4 14B8      		out 36-32,__zero_reg__
 159               	.LM27:
 160 00b6 1AB8      		out 42-32,__zero_reg__
 161               	.LM28:
 162 00b8 2A9A      		sbi 37-32,2
 163               	.LM29:
 164 00ba 229A      		sbi 36-32,2
 165               	.LM30:
 166 00bc 8FE3      		ldi r24,lo8(63)
 167 00be 87B9      		out 39-32,r24
 168               	.LM31:
 169 00c0 88E0      		ldi r24,lo8(8)
 170 00c2 88B9      		out 40-32,r24
 171               	.LM32:
 172 00c4 82E0      		ldi r24,lo8(2)
 173 00c6 8093 B100 		sts 177,r24
 174               	.LM33:
 175 00ca 84BD      		out 68-32,r24
 176               	.LM34:
 177 00cc 8093 6E00 		sts 110,r24
 178               	.LM35:
 179 00d0 8091 0000 		lds r24,BL_dutycycle
 180 00d4 87BD      		out 71-32,r24
 181               	/* epilogue start */
 182               	.LM36:
 183 00d6 0895      		ret
 184               	.LFE7:
 186               	.global	delay_us
 188               	delay_us:
 189               	.LFB9:
 190               	.LM37:
 191               	.LVL0:
 192               	/* prologue: function */
 193               	/* frame size = 0 */
 194               	.LM38:
 195 00d8 8823      		tst r24
 196 00da 01F4      		brne .L16
 197 00dc 9FEF      		ldi r25,lo8(-1)
 198               	.L17:
 199               	.LM39:
 200 00de B89A      		sbi 55-32,0
 201               	.LM40:
 202 00e0 9093 B200 		sts 178,r25
 203               	.L18:
 204               	.LM41:
 205 00e4 B89B      		sbis 55-32,0
 206 00e6 00C0      		rjmp .L18
 207               	.LM42:
 208 00e8 8823      		tst r24
 209 00ea 01F0      		breq .L21
 210               	.LM43:
 211 00ec B89A      		sbi 55-32,0
 212               	.LM44:
 213 00ee 9093 B200 		sts 178,r25
 214               	.L20:
 215               	.LM45:
 216 00f2 B89B      		sbis 55-32,0
 217 00f4 00C0      		rjmp .L20
 218               	.L21:
 219 00f6 0895      		ret
 220               	.L16:
 221               	.LM46:
 222 00f8 982F      		mov r25,r24
 223 00fa 9195      		neg r25
 224 00fc 00C0      		rjmp .L17
 225               	.LFE9:
 227               	.global	delay_ms
 229               	delay_ms:
 230               	.LFB8:
 231               	.LM47:
 232               	.LVL1:
 233 00fe CF93      		push r28
 234 0100 DF93      		push r29
 235               	/* prologue: function */
 236               	/* frame size = 0 */
 237 0102 EC01      		movw r28,r24
 238               	.LM48:
 239 0104 0097      		sbiw r24,0
 240 0106 01F0      		breq .L27
 241               	.L28:
 242               	.LM49:
 243 0108 8AEF      		ldi r24,lo8(-6)
 244               	.LVL2:
 245 010a 0E94 0000 		call delay_us
 246               	.LM50:
 247 010e 8AEF      		ldi r24,lo8(-6)
 248 0110 0E94 0000 		call delay_us
 249               	.LM51:
 250 0114 8AEF      		ldi r24,lo8(-6)
 251 0116 0E94 0000 		call delay_us
 252               	.LM52:
 253 011a 8AEF      		ldi r24,lo8(-6)
 254 011c 0E94 0000 		call delay_us
 255               	.LM53:
 256 0120 2197      		sbiw r28,1
 257 0122 01F4      		brne .L28
 258               	.LVL3:
 259               	.L27:
 260               	/* epilogue start */
 261               	.LM54:
 262 0124 DF91      		pop r29
 263 0126 CF91      		pop r28
 264               	.LVL4:
 265 0128 0895      		ret
 266               	.LFE8:
 268               	.global	USART_Init
 270               	USART_Init:
 271               	.LFB10:
 272               	.LM55:
 273               	.LVL5:
 274               	/* prologue: function */
 275               	/* frame size = 0 */
 276               	.LM56:
 277 012a 9093 C500 		sts 197,r25
 278               	.LVL6:
 279               	.LM57:
 280 012e 8093 C400 		sts 196,r24
 281               	.LM58:
 282 0132 82E0      		ldi r24,lo8(2)
 283               	.LVL7:
 284 0134 8093 C000 		sts 192,r24
 285               	.LM59:
 286 0138 88E9      		ldi r24,lo8(-104)
 287 013a 8093 C100 		sts 193,r24
 288               	.LM60:
 289 013e 86E0      		ldi r24,lo8(6)
 290 0140 8093 C200 		sts 194,r24
 291               	.LM61:
 292               	/* #APP */
 293               	 ;  977 "main.c" 1
 294 0144 7894      		sei
 295               	 ;  0 "" 2
 296               	/* epilogue start */
 297               	.LM62:
 298               	/* #NOAPP */
 299 0146 0895      		ret
 300               	.LFE10:
 302               	.global	RX_get_byte
 304               	RX_get_byte:
 305               	.LFB11:
 306               	.LM63:
 307               	/* prologue: function */
 308               	/* frame size = 0 */
 309               	.L33:
 310               	.LM64:
 311 0148 8091 0000 		lds r24,RX_bytes
 312 014c 8823      		tst r24
 313 014e 01F0      		breq .L33
 314               	.LM65:
 315 0150 8091 0000 		lds r24,RX_read
 316 0154 9091 0000 		lds r25,(RX_read)+1
 317 0158 FC01      		movw r30,r24
 318 015a E050      		subi r30,lo8(-(RX_array))
 319 015c F040      		sbci r31,hi8(-(RX_array))
 320 015e E081      		ld r30,Z
 321               	.LVL8:
 322 0160 0196      		adiw r24,1
 323 0162 9093 0000 		sts (RX_read)+1,r25
 324 0166 8093 0000 		sts RX_read,r24
 325               	.LM66:
 326 016a 8F3F      		cpi r24,255
 327 016c 9105      		cpc r25,__zero_reg__
 328 016e 01F0      		breq .L34
 329 0170 00F0      		brlo .L34
 330 0172 1092 0000 		sts (RX_read)+1,__zero_reg__
 331 0176 1092 0000 		sts RX_read,__zero_reg__
 332               	.L34:
 333               	.LM67:
 334               	/* #APP */
 335               	 ;  987 "main.c" 1
 336 017a F894      		cli
 337               	 ;  0 "" 2
 338               	.LM68:
 339               	/* #NOAPP */
 340 017c 8091 0000 		lds r24,RX_bytes
 341 0180 8150      		subi r24,lo8(-(-1))
 342 0182 8093 0000 		sts RX_bytes,r24
 343               	.LM69:
 344               	/* #APP */
 345               	 ;  989 "main.c" 1
 346 0186 7894      		sei
 347               	 ;  0 "" 2
 348               	.LM70:
 349               	/* #NOAPP */
 350 0188 8091 0000 		lds r24,RX_pause
 351 018c 8130      		cpi r24,lo8(1)
 352 018e 01F0      		breq .L41
 353               	.L35:
 354               	.LM71:
 355 0190 8E2F      		mov r24,r30
 356               	/* epilogue start */
 357 0192 0895      		ret
 358               	.L41:
 359               	.LM72:
 360 0194 8091 0000 		lds r24,RX_bytes
 361 0198 8034      		cpi r24,lo8(64)
 362 019a 00F4      		brsh .L35
 363               	.L38:
 364               	.LBB127:
 365               	.LBB128:
 366               	.LM73:
 367 019c 8091 C000 		lds r24,192
 368 01a0 85FF      		sbrs r24,5
 369 01a2 00C0      		rjmp .L38
 370               	.LM74:
 371 01a4 81E1      		ldi r24,lo8(17)
 372 01a6 8093 C600 		sts 198,r24
 373               	.LBE128:
 374               	.LBE127:
 375               	.LM75:
 376 01aa 1092 0000 		sts RX_pause,__zero_reg__
 377 01ae 00C0      		rjmp .L35
 378               	.LFE11:
 380               	.global	put_char
 382               	put_char:
 383               	.LFB12:
 384               	.LM76:
 385               	.LVL9:
 386               	/* prologue: function */
 387               	/* frame size = 0 */
 388 01b0 982F      		mov r25,r24
 389               	.LVL10:
 390               	.L43:
 391               	.LM77:
 392 01b2 8091 C000 		lds r24,192
 393 01b6 85FF      		sbrs r24,5
 394 01b8 00C0      		rjmp .L43
 395               	.LM78:
 396 01ba 9093 C600 		sts 198,r25
 397               	/* epilogue start */
 398               	.LM79:
 399 01be 0895      		ret
 400               	.LFE12:
 402               	.global	delay
 404               	delay:
 405               	.LFB13:
 406               	.LM80:
 407               	/* prologue: function */
 408               	/* frame size = 0 */
 409               	.LM81:
 410 01c0 80E0      		ldi r24,lo8(0)
 411               	.LVL11:
 412               	.L47:
 413               	.LM82:
 414               	/* #APP */
 415               	 ;  1017 "main.c" 1
 416 01c2 0000      		nop
 417               	 ;  0 "" 2
 418               	.LM83:
 419               	/* #NOAPP */
 420 01c4 8F5F      		subi r24,lo8(-(1))
 421 01c6 8E31      		cpi r24,lo8(30)
 422 01c8 01F4      		brne .L47
 423               	/* epilogue start */
 424               	.LM84:
 425 01ca 0895      		ret
 426               	.LFE13:
 428               	.global	set_data
 430               	set_data:
 431               	.LFB14:
 432               	.LM85:
 433               	.LVL12:
 434               	/* prologue: function */
 435               	/* frame size = 0 */
 436               	.LM86:
 437 01cc 95B1      		in r25,37-32
 438 01ce 9C7F      		andi r25,lo8(-4)
 439 01d0 95B9      		out 37-32,r25
 440               	.LM87:
 441 01d2 9BB1      		in r25,43-32
 442 01d4 9370      		andi r25,lo8(3)
 443 01d6 9BB9      		out 43-32,r25
 444               	.LM88:
 445 01d8 25B1      		in r18,37-32
 446 01da 982F      		mov r25,r24
 447 01dc 9370      		andi r25,lo8(3)
 448 01de 922B      		or r25,r18
 449 01e0 95B9      		out 37-32,r25
 450               	.LM89:
 451 01e2 9BB1      		in r25,43-32
 452 01e4 8C7F      		andi r24,lo8(-4)
 453               	.LVL13:
 454 01e6 982B      		or r25,r24
 455 01e8 9BB9      		out 43-32,r25
 456               	/* epilogue start */
 457               	.LM90:
 458 01ea 0895      		ret
 459               	.LFE14:
 461               	.global	write_command_LCD
 463               	write_command_LCD:
 464               	.LFB17:
 465               	.LM91:
 466               	.LVL14:
 467               	/* prologue: function */
 468               	/* frame size = 0 */
 469 01ec 982F      		mov r25,r24
 470               	.LM92:
 471 01ee 84B1      		in r24,36-32
 472               	.LVL15:
 473 01f0 8360      		ori r24,lo8(3)
 474 01f2 84B9      		out 36-32,r24
 475               	.LM93:
 476 01f4 8AB1      		in r24,42-32
 477 01f6 8C6F      		ori r24,lo8(-4)
 478 01f8 8AB9      		out 42-32,r24
 479               	.LM94:
 480 01fa 6130      		cpi r22,lo8(1)
 481 01fc 01F0      		breq .L65
 482               	.LM95:
 483 01fe 6230      		cpi r22,lo8(2)
 484 0200 01F0      		breq .L66
 485               	.LM96:
 486 0202 88E3      		ldi r24,lo8(56)
 487 0204 88B9      		out 40-32,r24
 488               	.L54:
 489               	.LM97:
 490 0206 892F      		mov r24,r25
 491 0208 0E94 0000 		call set_data
 492               	.LVL16:
 493 020c 80E0      		ldi r24,lo8(0)
 494               	.LVL17:
 495               	.L56:
 496               	.LBB129:
 497               	.LBB130:
 498               	.LM98:
 499               	/* #APP */
 500               	 ;  1017 "main.c" 1
 501 020e 0000      		nop
 502               	 ;  0 "" 2
 503               	.LM99:
 504               	/* #NOAPP */
 505 0210 8F5F      		subi r24,lo8(-(1))
 506 0212 8E31      		cpi r24,lo8(30)
 507 0214 01F4      		brne .L56
 508               	.LBE130:
 509               	.LBE129:
 510               	.LM100:
 511 0216 409A      		sbi 40-32,0
 512 0218 80E0      		ldi r24,lo8(0)
 513               	.LVL18:
 514               	.L57:
 515               	.LBB131:
 516               	.LBB132:
 517               	.LM101:
 518               	/* #APP */
 519               	 ;  1017 "main.c" 1
 520 021a 0000      		nop
 521               	 ;  0 "" 2
 522               	.LM102:
 523               	/* #NOAPP */
 524 021c 8F5F      		subi r24,lo8(-(1))
 525 021e 8E31      		cpi r24,lo8(30)
 526 0220 01F4      		brne .L57
 527               	.LBE132:
 528               	.LBE131:
 529               	.LM103:
 530 0222 4098      		cbi 40-32,0
 531 0224 80E0      		ldi r24,lo8(0)
 532               	.LVL19:
 533               	.L58:
 534               	.LBB133:
 535               	.LBB134:
 536               	.LM104:
 537               	/* #APP */
 538               	 ;  1017 "main.c" 1
 539 0226 0000      		nop
 540               	 ;  0 "" 2
 541               	.LM105:
 542               	/* #NOAPP */
 543 0228 8F5F      		subi r24,lo8(-(1))
 544 022a 8E31      		cpi r24,lo8(30)
 545 022c 01F4      		brne .L58
 546               	.LBE134:
 547               	.LBE133:
 548               	.LM106:
 549 022e 88E0      		ldi r24,lo8(8)
 550               	.LVL20:
 551 0230 88B9      		out 40-32,r24
 552 0232 80E0      		ldi r24,lo8(0)
 553               	.LVL21:
 554               	.L59:
 555               	.LBB135:
 556               	.LBB136:
 557               	.LM107:
 558               	/* #APP */
 559               	 ;  1017 "main.c" 1
 560 0234 0000      		nop
 561               	 ;  0 "" 2
 562               	.LM108:
 563               	/* #NOAPP */
 564 0236 8F5F      		subi r24,lo8(-(1))
 565 0238 8E31      		cpi r24,lo8(30)
 566 023a 01F4      		brne .L59
 567               	.LBE136:
 568               	.LBE135:
 569               	.LM109:
 570 023c 84B1      		in r24,36-32
 571               	.LVL22:
 572 023e 8C7F      		andi r24,lo8(-4)
 573 0240 84B9      		out 36-32,r24
 574               	.LM110:
 575 0242 1AB8      		out 42-32,__zero_reg__
 576               	/* epilogue start */
 577               	.LM111:
 578 0244 0895      		ret
 579               	.LVL23:
 580               	.L66:
 581               	.LM112:
 582 0246 88E1      		ldi r24,lo8(24)
 583 0248 88B9      		out 40-32,r24
 584 024a 00C0      		rjmp .L54
 585               	.L65:
 586               	.LM113:
 587 024c 88E2      		ldi r24,lo8(40)
 588 024e 88B9      		out 40-32,r24
 589 0250 00C0      		rjmp .L54
 590               	.LFE17:
 592               	.global	write_data_LCD
 594               	write_data_LCD:
 595               	.LFB18:
 596               	.LM114:
 597               	.LVL24:
 598               	/* prologue: function */
 599               	/* frame size = 0 */
 600 0252 982F      		mov r25,r24
 601               	.LM115:
 602 0254 84B1      		in r24,36-32
 603               	.LVL25:
 604 0256 8360      		ori r24,lo8(3)
 605 0258 84B9      		out 36-32,r24
 606               	.LM116:
 607 025a 8AB1      		in r24,42-32
 608 025c 8C6F      		ori r24,lo8(-4)
 609 025e 8AB9      		out 42-32,r24
 610               	.LM117:
 611 0260 6130      		cpi r22,lo8(1)
 612 0262 01F0      		breq .L80
 613               	.LM118:
 614 0264 6230      		cpi r22,lo8(2)
 615 0266 01F0      		breq .L81
 616               	.LM119:
 617 0268 8AE3      		ldi r24,lo8(58)
 618 026a 88B9      		out 40-32,r24
 619               	.L69:
 620               	.LM120:
 621 026c 892F      		mov r24,r25
 622 026e 0E94 0000 		call set_data
 623               	.LVL26:
 624 0272 80E0      		ldi r24,lo8(0)
 625               	.LVL27:
 626               	.L71:
 627               	.LBB137:
 628               	.LBB138:
 629               	.LM121:
 630               	/* #APP */
 631               	 ;  1017 "main.c" 1
 632 0274 0000      		nop
 633               	 ;  0 "" 2
 634               	.LM122:
 635               	/* #NOAPP */
 636 0276 8F5F      		subi r24,lo8(-(1))
 637 0278 8E31      		cpi r24,lo8(30)
 638 027a 01F4      		brne .L71
 639               	.LBE138:
 640               	.LBE137:
 641               	.LM123:
 642 027c 409A      		sbi 40-32,0
 643 027e 80E0      		ldi r24,lo8(0)
 644               	.LVL28:
 645               	.L72:
 646               	.LBB139:
 647               	.LBB140:
 648               	.LM124:
 649               	/* #APP */
 650               	 ;  1017 "main.c" 1
 651 0280 0000      		nop
 652               	 ;  0 "" 2
 653               	.LM125:
 654               	/* #NOAPP */
 655 0282 8F5F      		subi r24,lo8(-(1))
 656 0284 8E31      		cpi r24,lo8(30)
 657 0286 01F4      		brne .L72
 658               	.LBE140:
 659               	.LBE139:
 660               	.LM126:
 661 0288 4098      		cbi 40-32,0
 662 028a 80E0      		ldi r24,lo8(0)
 663               	.LVL29:
 664               	.L73:
 665               	.LBB141:
 666               	.LBB142:
 667               	.LM127:
 668               	/* #APP */
 669               	 ;  1017 "main.c" 1
 670 028c 0000      		nop
 671               	 ;  0 "" 2
 672               	.LM128:
 673               	/* #NOAPP */
 674 028e 8F5F      		subi r24,lo8(-(1))
 675 0290 8E31      		cpi r24,lo8(30)
 676 0292 01F4      		brne .L73
 677               	.LBE142:
 678               	.LBE141:
 679               	.LM129:
 680 0294 88E0      		ldi r24,lo8(8)
 681               	.LVL30:
 682 0296 88B9      		out 40-32,r24
 683 0298 80E0      		ldi r24,lo8(0)
 684               	.LVL31:
 685               	.L74:
 686               	.LBB143:
 687               	.LBB144:
 688               	.LM130:
 689               	/* #APP */
 690               	 ;  1017 "main.c" 1
 691 029a 0000      		nop
 692               	 ;  0 "" 2
 693               	.LM131:
 694               	/* #NOAPP */
 695 029c 8F5F      		subi r24,lo8(-(1))
 696 029e 8E31      		cpi r24,lo8(30)
 697 02a0 01F4      		brne .L74
 698               	.LBE144:
 699               	.LBE143:
 700               	.LM132:
 701 02a2 84B1      		in r24,36-32
 702               	.LVL32:
 703 02a4 8C7F      		andi r24,lo8(-4)
 704 02a6 84B9      		out 36-32,r24
 705               	.LM133:
 706 02a8 1AB8      		out 42-32,__zero_reg__
 707               	/* epilogue start */
 708               	.LM134:
 709 02aa 0895      		ret
 710               	.LVL33:
 711               	.L81:
 712               	.LM135:
 713 02ac 8AE1      		ldi r24,lo8(26)
 714 02ae 88B9      		out 40-32,r24
 715 02b0 00C0      		rjmp .L69
 716               	.L80:
 717               	.LM136:
 718 02b2 8AE2      		ldi r24,lo8(42)
 719 02b4 88B9      		out 40-32,r24
 720 02b6 00C0      		rjmp .L69
 721               	.LFE18:
 723               	.global	write_block
 725               	write_block:
 726               	.LFB19:
 727               	.LM137:
 728               	.LVL34:
 729 02b8 AF92      		push r10
 730 02ba BF92      		push r11
 731 02bc DF92      		push r13
 732 02be EF92      		push r14
 733 02c0 FF92      		push r15
 734 02c2 0F93      		push r16
 735 02c4 1F93      		push r17
 736 02c6 DF93      		push r29
 737 02c8 CF93      		push r28
 738 02ca 0F92      		push __tmp_reg__
 739 02cc CDB7      		in r28,__SP_L__
 740 02ce DEB7      		in r29,__SP_H__
 741               	/* prologue: function */
 742               	/* frame size = 1 */
 743 02d0 082F      		mov r16,r24
 744 02d2 862F      		mov r24,r22
 745               	.LVL35:
 746 02d4 142F      		mov r17,r20
 747 02d6 7901      		movw r14,r18
 748               	.LM138:
 749 02d8 886B      		ori r24,lo8(-72)
 750 02da 60E0      		ldi r22,lo8(0)
 751               	.LVL36:
 752 02dc 0E94 0000 		call write_command_LCD
 753               	.LVL37:
 754               	.LM139:
 755 02e0 0034      		cpi r16,lo8(64)
 756 02e2 00F0      		brlo .+2
 757 02e4 00C0      		rjmp .L83
 758 02e6 21E0      		ldi r18,lo8(1)
 759 02e8 2983      		std Y+1,r18
 760               	.LVL38:
 761               	.L84:
 762               	.LM140:
 763 02ea 40E4      		ldi r20,lo8(64)
 764               	.LVL39:
 765 02ec 401B      		sub r20,r16
 766               	.LM141:
 767 02ee 4117      		cp r20,r17
 768 02f0 00F4      		brsh .+2
 769 02f2 00C0      		rjmp .L85
 770 02f4 DD24      		clr r13
 771               	.LVL40:
 772               	.L86:
 773               	.LM142:
 774 02f6 802F      		mov r24,r16
 775 02f8 8064      		ori r24,lo8(64)
 776 02fa 60E0      		ldi r22,lo8(0)
 777 02fc 0E94 0000 		call write_command_LCD
 778               	.LVL41:
 779               	.LM143:
 780 0300 84B1      		in r24,36-32
 781 0302 8360      		ori r24,lo8(3)
 782 0304 84B9      		out 36-32,r24
 783               	.LM144:
 784 0306 8AB1      		in r24,42-32
 785 0308 8C6F      		ori r24,lo8(-4)
 786 030a 8AB9      		out 42-32,r24
 787               	.LM145:
 788 030c 8981      		ldd r24,Y+1
 789 030e 8130      		cpi r24,lo8(1)
 790 0310 01F4      		brne .+2
 791 0312 00C0      		rjmp .L115
 792               	.LM146:
 793 0314 8AE1      		ldi r24,lo8(26)
 794 0316 88B9      		out 40-32,r24
 795               	.LM147:
 796 0318 1123      		tst r17
 797 031a 01F4      		brne .+2
 798 031c 00C0      		rjmp .L116
 799               	.L88:
 800               	.LM148:
 801 031e 0E2D      		mov r16,r14
 802               	.LVL42:
 803 0320 C701      		movw r24,r14
 804               	.LVL43:
 805 0322 5C01      		movw r10,r24
 806               	.L94:
 807               	.LM149:
 808 0324 F501      		movw r30,r10
 809 0326 8081      		ld r24,Z
 810 0328 0E94 0000 		call set_data
 811 032c 80E0      		ldi r24,lo8(0)
 812               	.LVL44:
 813               	.L91:
 814               	.LBB145:
 815               	.LBB146:
 816               	.LM150:
 817               	/* #APP */
 818               	 ;  1017 "main.c" 1
 819 032e 0000      		nop
 820               	 ;  0 "" 2
 821               	.LM151:
 822               	/* #NOAPP */
 823 0330 8F5F      		subi r24,lo8(-(1))
 824 0332 8E31      		cpi r24,lo8(30)
 825 0334 01F4      		brne .L91
 826               	.LBE146:
 827               	.LBE145:
 828               	.LM152:
 829 0336 409A      		sbi 40-32,0
 830 0338 80E0      		ldi r24,lo8(0)
 831               	.LVL45:
 832               	.L92:
 833               	.LBB147:
 834               	.LBB148:
 835               	.LM153:
 836               	/* #APP */
 837               	 ;  1017 "main.c" 1
 838 033a 0000      		nop
 839               	 ;  0 "" 2
 840               	.LM154:
 841               	/* #NOAPP */
 842 033c 8F5F      		subi r24,lo8(-(1))
 843 033e 8E31      		cpi r24,lo8(30)
 844 0340 01F4      		brne .L92
 845               	.LBE148:
 846               	.LBE147:
 847               	.LM155:
 848 0342 4098      		cbi 40-32,0
 849 0344 80E0      		ldi r24,lo8(0)
 850               	.LVL46:
 851               	.L93:
 852               	.LBB149:
 853               	.LBB150:
 854               	.LM156:
 855               	/* #APP */
 856               	 ;  1017 "main.c" 1
 857 0346 0000      		nop
 858               	 ;  0 "" 2
 859               	.LM157:
 860               	/* #NOAPP */
 861 0348 8F5F      		subi r24,lo8(-(1))
 862 034a 8E31      		cpi r24,lo8(30)
 863 034c 01F4      		brne .L93
 864 034e 0894      		sec
 865 0350 A11C      		adc r10,__zero_reg__
 866 0352 B11C      		adc r11,__zero_reg__
 867               	.LBE150:
 868               	.LBE149:
 869               	.LM158:
 870 0354 8A2D      		mov r24,r10
 871               	.LVL47:
 872 0356 801B      		sub r24,r16
 873 0358 8117      		cp r24,r17
 874 035a 00F0      		brlo .L94
 875 035c 012F      		mov r16,r17
 876               	.LVL48:
 877               	.L89:
 878               	.LM159:
 879 035e 88E0      		ldi r24,lo8(8)
 880 0360 88B9      		out 40-32,r24
 881 0362 80E0      		ldi r24,lo8(0)
 882               	.LVL49:
 883               	.L95:
 884               	.LBB151:
 885               	.LBB152:
 886               	.LM160:
 887               	/* #APP */
 888               	 ;  1017 "main.c" 1
 889 0364 0000      		nop
 890               	 ;  0 "" 2
 891               	.LM161:
 892               	/* #NOAPP */
 893 0366 8F5F      		subi r24,lo8(-(1))
 894 0368 8E31      		cpi r24,lo8(30)
 895 036a 01F4      		brne .L95
 896               	.LBE152:
 897               	.LBE151:
 898               	.LM162:
 899 036c DD20      		tst r13
 900 036e 01F4      		brne .L117
 901               	.LVL50:
 902               	.L96:
 903               	.LM163:
 904 0370 84B1      		in r24,36-32
 905               	.LVL51:
 906 0372 8C7F      		andi r24,lo8(-4)
 907 0374 84B9      		out 36-32,r24
 908               	.LM164:
 909 0376 1AB8      		out 42-32,__zero_reg__
 910               	/* epilogue start */
 911               	.LM165:
 912 0378 0F90      		pop __tmp_reg__
 913 037a CF91      		pop r28
 914 037c DF91      		pop r29
 915 037e 1F91      		pop r17
 916               	.LVL52:
 917 0380 0F91      		pop r16
 918               	.LVL53:
 919 0382 FF90      		pop r15
 920 0384 EF90      		pop r14
 921               	.LVL54:
 922 0386 DF90      		pop r13
 923               	.LVL55:
 924 0388 BF90      		pop r11
 925 038a AF90      		pop r10
 926 038c 0895      		ret
 927               	.LVL56:
 928               	.L85:
 929               	.LM166:
 930 038e D12E      		mov r13,r17
 931               	.LVL57:
 932 0390 D41A      		sub r13,r20
 933 0392 142F      		mov r17,r20
 934               	.LVL58:
 935 0394 00C0      		rjmp .L86
 936               	.LVL59:
 937               	.L83:
 938               	.LM167:
 939 0396 0054      		subi r16,lo8(-(-64))
 940 0398 32E0      		ldi r19,lo8(2)
 941 039a 3983      		std Y+1,r19
 942               	.LVL60:
 943 039c 00C0      		rjmp .L84
 944               	.LVL61:
 945               	.L117:
 946               	.LM168:
 947 039e 80E4      		ldi r24,lo8(64)
 948               	.LVL62:
 949 03a0 60E0      		ldi r22,lo8(0)
 950 03a2 0E94 0000 		call write_command_LCD
 951               	.LM169:
 952 03a6 84B1      		in r24,36-32
 953 03a8 8360      		ori r24,lo8(3)
 954 03aa 84B9      		out 36-32,r24
 955               	.LM170:
 956 03ac 8AB1      		in r24,42-32
 957 03ae 8C6F      		ori r24,lo8(-4)
 958 03b0 8AB9      		out 42-32,r24
 959               	.LM171:
 960 03b2 F981      		ldd r31,Y+1
 961 03b4 F130      		cpi r31,lo8(1)
 962 03b6 01F0      		breq .L118
 963               	.LM172:
 964 03b8 8AE2      		ldi r24,lo8(42)
 965 03ba 88B9      		out 40-32,r24
 966 03bc 10E0      		ldi r17,lo8(0)
 967               	.LVL63:
 968               	.L104:
 969               	.LM173:
 970 03be F701      		movw r30,r14
 971 03c0 E00F      		add r30,r16
 972 03c2 F11D      		adc r31,__zero_reg__
 973 03c4 0F5F      		subi r16,lo8(-(1))
 974 03c6 8081      		ld r24,Z
 975               	.LVL64:
 976 03c8 0E94 0000 		call set_data
 977 03cc 80E0      		ldi r24,lo8(0)
 978               	.LVL65:
 979               	.L99:
 980               	.LBB153:
 981               	.LBB154:
 982               	.LM174:
 983               	/* #APP */
 984               	 ;  1017 "main.c" 1
 985 03ce 0000      		nop
 986               	 ;  0 "" 2
 987               	.LM175:
 988               	/* #NOAPP */
 989 03d0 8F5F      		subi r24,lo8(-(1))
 990 03d2 8E31      		cpi r24,lo8(30)
 991 03d4 01F4      		brne .L99
 992               	.LBE154:
 993               	.LBE153:
 994               	.LM176:
 995 03d6 409A      		sbi 40-32,0
 996 03d8 80E0      		ldi r24,lo8(0)
 997               	.LVL66:
 998               	.L100:
 999               	.LBB155:
 1000               	.LBB156:
 1001               	.LM177:
 1002               	/* #APP */
 1003               	 ;  1017 "main.c" 1
 1004 03da 0000      		nop
 1005               	 ;  0 "" 2
 1006               	.LM178:
 1007               	/* #NOAPP */
 1008 03dc 8F5F      		subi r24,lo8(-(1))
 1009 03de 8E31      		cpi r24,lo8(30)
 1010 03e0 01F4      		brne .L100
 1011               	.LBE156:
 1012               	.LBE155:
 1013               	.LM179:
 1014 03e2 4098      		cbi 40-32,0
 1015 03e4 80E0      		ldi r24,lo8(0)
 1016               	.LVL67:
 1017               	.L101:
 1018               	.LBB157:
 1019               	.LBB158:
 1020               	.LM180:
 1021               	/* #APP */
 1022               	 ;  1017 "main.c" 1
 1023 03e6 0000      		nop
 1024               	 ;  0 "" 2
 1025               	.LM181:
 1026               	/* #NOAPP */
 1027 03e8 8F5F      		subi r24,lo8(-(1))
 1028 03ea 8E31      		cpi r24,lo8(30)
 1029 03ec 01F4      		brne .L101
 1030               	.LBE158:
 1031               	.LBE157:
 1032               	.LM182:
 1033 03ee 1F5F      		subi r17,lo8(-(1))
 1034 03f0 1D15      		cp r17,r13
 1035 03f2 00F0      		brlo .L104
 1036               	.LM183:
 1037 03f4 88E0      		ldi r24,lo8(8)
 1038               	.LVL68:
 1039 03f6 88B9      		out 40-32,r24
 1040 03f8 80E0      		ldi r24,lo8(0)
 1041               	.LVL69:
 1042               	.L102:
 1043               	.LBB159:
 1044               	.LBB160:
 1045               	.LM184:
 1046               	/* #APP */
 1047               	 ;  1017 "main.c" 1
 1048 03fa 0000      		nop
 1049               	 ;  0 "" 2
 1050               	.LM185:
 1051               	/* #NOAPP */
 1052 03fc 8F5F      		subi r24,lo8(-(1))
 1053 03fe 8E31      		cpi r24,lo8(30)
 1054 0400 01F4      		brne .L102
 1055 0402 00C0      		rjmp .L96
 1056               	.LVL70:
 1057               	.L115:
 1058               	.LBE160:
 1059               	.LBE159:
 1060               	.LM186:
 1061 0404 8AE2      		ldi r24,lo8(42)
 1062 0406 88B9      		out 40-32,r24
 1063               	.LM187:
 1064 0408 1123      		tst r17
 1065 040a 01F0      		breq .+2
 1066 040c 00C0      		rjmp .L88
 1067               	.L116:
 1068 040e 00E0      		ldi r16,lo8(0)
 1069               	.LVL71:
 1070 0410 00C0      		rjmp .L89
 1071               	.L118:
 1072               	.LM188:
 1073 0412 8AE1      		ldi r24,lo8(26)
 1074 0414 88B9      		out 40-32,r24
 1075 0416 10E0      		ldi r17,lo8(0)
 1076               	.LVL72:
 1077 0418 00C0      		rjmp .L104
 1078               	.LFE19:
 1080               	.global	read_data_LCD
 1082               	read_data_LCD:
 1083               	.LFB20:
 1084               	.LM189:
 1085               	.LVL73:
 1086               	/* prologue: function */
 1087               	/* frame size = 0 */
 1088               	.LM190:
 1089 041a 8130      		cpi r24,lo8(1)
 1090 041c 01F0      		breq .L135
 1091               	.LM191:
 1092 041e 8EE1      		ldi r24,lo8(30)
 1093               	.LVL74:
 1094 0420 88B9      		out 40-32,r24
 1095 0422 80E0      		ldi r24,lo8(0)
 1096               	.LVL75:
 1097               	.L128:
 1098               	.LBB161:
 1099               	.LBB162:
 1100               	.LM192:
 1101               	/* #APP */
 1102               	 ;  1017 "main.c" 1
 1103 0424 0000      		nop
 1104               	 ;  0 "" 2
 1105               	.LM193:
 1106               	/* #NOAPP */
 1107 0426 8F5F      		subi r24,lo8(-(1))
 1108 0428 8E31      		cpi r24,lo8(30)
 1109 042a 01F4      		brne .L128
 1110               	.LBE162:
 1111               	.LBE161:
 1112               	.LM194:
 1113 042c 409A      		sbi 40-32,0
 1114 042e 80E0      		ldi r24,lo8(0)
 1115               	.LVL76:
 1116               	.L122:
 1117               	.LBB163:
 1118               	.LBB164:
 1119               	.LM195:
 1120               	/* #APP */
 1121               	 ;  1017 "main.c" 1
 1122 0430 0000      		nop
 1123               	 ;  0 "" 2
 1124               	.LM196:
 1125               	/* #NOAPP */
 1126 0432 8F5F      		subi r24,lo8(-(1))
 1127 0434 8E31      		cpi r24,lo8(30)
 1128 0436 01F4      		brne .L122
 1129               	.LBE164:
 1130               	.LBE163:
 1131               	.LM197:
 1132 0438 4098      		cbi 40-32,0
 1133 043a 80E0      		ldi r24,lo8(0)
 1134               	.LVL77:
 1135               	.L123:
 1136               	.LBB165:
 1137               	.LBB166:
 1138               	.LM198:
 1139               	/* #APP */
 1140               	 ;  1017 "main.c" 1
 1141 043c 0000      		nop
 1142               	 ;  0 "" 2
 1143               	.LM199:
 1144               	/* #NOAPP */
 1145 043e 8F5F      		subi r24,lo8(-(1))
 1146 0440 8E31      		cpi r24,lo8(30)
 1147 0442 01F4      		brne .L123
 1148               	.LBE166:
 1149               	.LBE165:
 1150               	.LM200:
 1151 0444 409A      		sbi 40-32,0
 1152 0446 80E0      		ldi r24,lo8(0)
 1153               	.LVL78:
 1154               	.L124:
 1155               	.LBB167:
 1156               	.LBB168:
 1157               	.LM201:
 1158               	/* #APP */
 1159               	 ;  1017 "main.c" 1
 1160 0448 0000      		nop
 1161               	 ;  0 "" 2
 1162               	.LM202:
 1163               	/* #NOAPP */
 1164 044a 8F5F      		subi r24,lo8(-(1))
 1165 044c 8E31      		cpi r24,lo8(30)
 1166 044e 01F4      		brne .L124
 1167               	.LBE168:
 1168               	.LBE167:
 1169               	.LM203:
 1170 0450 23B1      		in r18,35-32
 1171               	.LVL79:
 1172               	.LM204:
 1173 0452 99B1      		in r25,41-32
 1174               	.LVL80:
 1175               	.LM205:
 1176 0454 4098      		cbi 40-32,0
 1177 0456 80E0      		ldi r24,lo8(0)
 1178               	.LVL81:
 1179               	.L125:
 1180               	.LBB169:
 1181               	.LBB170:
 1182               	.LM206:
 1183               	/* #APP */
 1184               	 ;  1017 "main.c" 1
 1185 0458 0000      		nop
 1186               	 ;  0 "" 2
 1187               	.LM207:
 1188               	/* #NOAPP */
 1189 045a 8F5F      		subi r24,lo8(-(1))
 1190 045c 8E31      		cpi r24,lo8(30)
 1191 045e 01F4      		brne .L125
 1192               	.LBE170:
 1193               	.LBE169:
 1194               	.LM208:
 1195 0460 88E0      		ldi r24,lo8(8)
 1196               	.LVL82:
 1197 0462 88B9      		out 40-32,r24
 1198 0464 80E0      		ldi r24,lo8(0)
 1199               	.LVL83:
 1200               	.L126:
 1201               	.LBB171:
 1202               	.LBB172:
 1203               	.LM209:
 1204               	/* #APP */
 1205               	 ;  1017 "main.c" 1
 1206 0466 0000      		nop
 1207               	 ;  0 "" 2
 1208               	.LM210:
 1209               	/* #NOAPP */
 1210 0468 8F5F      		subi r24,lo8(-(1))
 1211 046a 8E31      		cpi r24,lo8(30)
 1212 046c 01F4      		brne .L126
 1213               	.LBE172:
 1214               	.LBE171:
 1215               	.LM211:
 1216 046e 2370      		andi r18,lo8(3)
 1217 0470 9C7F      		andi r25,lo8(-4)
 1218               	.LM212:
 1219 0472 892F      		mov r24,r25
 1220               	.LVL84:
 1221 0474 822B      		or r24,r18
 1222               	/* epilogue start */
 1223 0476 0895      		ret
 1224               	.LVL85:
 1225               	.L135:
 1226               	.LM213:
 1227 0478 8EE2      		ldi r24,lo8(46)
 1228               	.LVL86:
 1229 047a 88B9      		out 40-32,r24
 1230 047c 80E0      		ldi r24,lo8(0)
 1231               	.LVL87:
 1232 047e 00C0      		rjmp .L128
 1233               	.LFE20:
 1235               	.global	read_block
 1237               	read_block:
 1238               	.LFB21:
 1239               	.LM214:
 1240               	.LVL88:
 1241 0480 CF92      		push r12
 1242 0482 DF92      		push r13
 1243 0484 FF92      		push r15
 1244 0486 0F93      		push r16
 1245 0488 1F93      		push r17
 1246 048a DF93      		push r29
 1247 048c CF93      		push r28
 1248 048e 0F92      		push __tmp_reg__
 1249 0490 CDB7      		in r28,__SP_L__
 1250 0492 DEB7      		in r29,__SP_H__
 1251               	/* prologue: function */
 1252               	/* frame size = 1 */
 1253 0494 082F      		mov r16,r24
 1254 0496 862F      		mov r24,r22
 1255               	.LVL89:
 1256 0498 142F      		mov r17,r20
 1257 049a 6901      		movw r12,r18
 1258               	.LM215:
 1259 049c 886B      		ori r24,lo8(-72)
 1260 049e 60E0      		ldi r22,lo8(0)
 1261               	.LVL90:
 1262 04a0 0E94 0000 		call write_command_LCD
 1263               	.LVL91:
 1264               	.LM216:
 1265 04a4 0034      		cpi r16,lo8(64)
 1266 04a6 00F0      		brlo .+2
 1267 04a8 00C0      		rjmp .L137
 1268 04aa 81E0      		ldi r24,lo8(1)
 1269 04ac 8983      		std Y+1,r24
 1270               	.LVL92:
 1271               	.L138:
 1272               	.LM217:
 1273 04ae 40E4      		ldi r20,lo8(64)
 1274               	.LVL93:
 1275 04b0 401B      		sub r20,r16
 1276               	.LM218:
 1277 04b2 4117      		cp r20,r17
 1278 04b4 00F4      		brsh .+2
 1279 04b6 00C0      		rjmp .L139
 1280 04b8 FF24      		clr r15
 1281               	.LVL94:
 1282               	.LM219:
 1283 04ba 802F      		mov r24,r16
 1284 04bc 8064      		ori r24,lo8(64)
 1285 04be 60E0      		ldi r22,lo8(0)
 1286 04c0 0E94 0000 		call write_command_LCD
 1287               	.LVL95:
 1288               	.LM220:
 1289 04c4 F981      		ldd r31,Y+1
 1290 04c6 F130      		cpi r31,lo8(1)
 1291 04c8 01F4      		brne .+2
 1292 04ca 00C0      		rjmp .L177
 1293               	.LVL96:
 1294               	.L141:
 1295               	.LM221:
 1296 04cc 8EE1      		ldi r24,lo8(30)
 1297 04ce 88B9      		out 40-32,r24
 1298 04d0 80E0      		ldi r24,lo8(0)
 1299               	.LVL97:
 1300               	.L162:
 1301               	.LBB173:
 1302               	.LBB174:
 1303               	.LM222:
 1304               	/* #APP */
 1305               	 ;  1017 "main.c" 1
 1306 04d2 0000      		nop
 1307               	 ;  0 "" 2
 1308               	.LM223:
 1309               	/* #NOAPP */
 1310 04d4 8F5F      		subi r24,lo8(-(1))
 1311 04d6 8E31      		cpi r24,lo8(30)
 1312 04d8 01F4      		brne .L162
 1313               	.LBE174:
 1314               	.LBE173:
 1315               	.LM224:
 1316 04da 409A      		sbi 40-32,0
 1317 04dc 80E0      		ldi r24,lo8(0)
 1318               	.LVL98:
 1319               	.L143:
 1320               	.LBB175:
 1321               	.LBB176:
 1322               	.LM225:
 1323               	/* #APP */
 1324               	 ;  1017 "main.c" 1
 1325 04de 0000      		nop
 1326               	 ;  0 "" 2
 1327               	.LM226:
 1328               	/* #NOAPP */
 1329 04e0 8F5F      		subi r24,lo8(-(1))
 1330 04e2 8E31      		cpi r24,lo8(30)
 1331 04e4 01F4      		brne .L143
 1332               	.LBE176:
 1333               	.LBE175:
 1334               	.LM227:
 1335 04e6 4098      		cbi 40-32,0
 1336 04e8 80E0      		ldi r24,lo8(0)
 1337               	.LVL99:
 1338               	.L144:
 1339               	.LBB177:
 1340               	.LBB178:
 1341               	.LM228:
 1342               	/* #APP */
 1343               	 ;  1017 "main.c" 1
 1344 04ea 0000      		nop
 1345               	 ;  0 "" 2
 1346               	.LM229:
 1347               	/* #NOAPP */
 1348 04ec 8F5F      		subi r24,lo8(-(1))
 1349 04ee 8E31      		cpi r24,lo8(30)
 1350 04f0 01F4      		brne .L144
 1351               	.LBE178:
 1352               	.LBE177:
 1353               	.LM230:
 1354 04f2 1123      		tst r17
 1355 04f4 01F4      		brne .+2
 1356 04f6 00C0      		rjmp .L178
 1357 04f8 4C2D      		mov r20,r12
 1358 04fa C601      		movw r24,r12
 1359               	.LVL100:
 1360 04fc FC01      		movw r30,r24
 1361               	.LVL101:
 1362               	.L149:
 1363               	.LM231:
 1364 04fe 409A      		sbi 40-32,0
 1365 0500 80E0      		ldi r24,lo8(0)
 1366               	.LVL102:
 1367               	.L147:
 1368               	.LBB179:
 1369               	.LBB180:
 1370               	.LM232:
 1371               	/* #APP */
 1372               	 ;  1017 "main.c" 1
 1373 0502 0000      		nop
 1374               	 ;  0 "" 2
 1375               	.LM233:
 1376               	/* #NOAPP */
 1377 0504 8F5F      		subi r24,lo8(-(1))
 1378 0506 8E31      		cpi r24,lo8(30)
 1379 0508 01F4      		brne .L147
 1380               	.LBE180:
 1381               	.LBE179:
 1382               	.LM234:
 1383 050a 93B1      		in r25,35-32
 1384               	.LM235:
 1385 050c 9370      		andi r25,lo8(3)
 1386               	.LM236:
 1387 050e 89B1      		in r24,41-32
 1388               	.LVL103:
 1389               	.LM237:
 1390 0510 8C7F      		andi r24,lo8(-4)
 1391 0512 892B      		or r24,r25
 1392 0514 8083      		st Z,r24
 1393               	.LM238:
 1394 0516 4098      		cbi 40-32,0
 1395 0518 80E0      		ldi r24,lo8(0)
 1396               	.LVL104:
 1397               	.L148:
 1398               	.LBB181:
 1399               	.LBB182:
 1400               	.LM239:
 1401               	/* #APP */
 1402               	 ;  1017 "main.c" 1
 1403 051a 0000      		nop
 1404               	 ;  0 "" 2
 1405               	.LM240:
 1406               	/* #NOAPP */
 1407 051c 8F5F      		subi r24,lo8(-(1))
 1408 051e 8E31      		cpi r24,lo8(30)
 1409 0520 01F4      		brne .L148
 1410 0522 3196      		adiw r30,1
 1411               	.LBE182:
 1412               	.LBE181:
 1413               	.LM241:
 1414 0524 8E2F      		mov r24,r30
 1415               	.LVL105:
 1416 0526 841B      		sub r24,r20
 1417 0528 8117      		cp r24,r17
 1418 052a 00F0      		brlo .L149
 1419 052c 012F      		mov r16,r17
 1420               	.LVL106:
 1421               	.L146:
 1422               	.LM242:
 1423 052e 88E0      		ldi r24,lo8(8)
 1424               	.LVL107:
 1425 0530 88B9      		out 40-32,r24
 1426 0532 10E0      		ldi r17,lo8(0)
 1427               	.LVL108:
 1428               	.L150:
 1429               	.LBB183:
 1430               	.LBB184:
 1431               	.LM243:
 1432               	/* #APP */
 1433               	 ;  1017 "main.c" 1
 1434 0534 0000      		nop
 1435               	 ;  0 "" 2
 1436               	.LM244:
 1437               	/* #NOAPP */
 1438 0536 1F5F      		subi r17,lo8(-(1))
 1439 0538 1E31      		cpi r17,lo8(30)
 1440 053a 01F4      		brne .L150
 1441               	.LBE184:
 1442               	.LBE183:
 1443               	.LM245:
 1444 053c FF20      		tst r15
 1445 053e 01F4      		brne .L179
 1446               	.LVL109:
 1447               	.L160:
 1448               	/* epilogue start */
 1449               	.LM246:
 1450 0540 0F90      		pop __tmp_reg__
 1451 0542 CF91      		pop r28
 1452 0544 DF91      		pop r29
 1453 0546 1F91      		pop r17
 1454               	.LVL110:
 1455 0548 0F91      		pop r16
 1456               	.LVL111:
 1457 054a FF90      		pop r15
 1458               	.LVL112:
 1459 054c DF90      		pop r13
 1460 054e CF90      		pop r12
 1461               	.LVL113:
 1462 0550 0895      		ret
 1463               	.LVL114:
 1464               	.L139:
 1465               	.LM247:
 1466 0552 F12E      		mov r15,r17
 1467               	.LVL115:
 1468 0554 F41A      		sub r15,r20
 1469 0556 142F      		mov r17,r20
 1470               	.LVL116:
 1471               	.LM248:
 1472 0558 802F      		mov r24,r16
 1473 055a 8064      		ori r24,lo8(64)
 1474 055c 60E0      		ldi r22,lo8(0)
 1475 055e 0E94 0000 		call write_command_LCD
 1476               	.LVL117:
 1477               	.LM249:
 1478 0562 F981      		ldd r31,Y+1
 1479 0564 F130      		cpi r31,lo8(1)
 1480 0566 01F0      		breq .+2
 1481 0568 00C0      		rjmp .L141
 1482               	.LVL118:
 1483               	.L177:
 1484               	.LM250:
 1485 056a 8EE2      		ldi r24,lo8(46)
 1486 056c 88B9      		out 40-32,r24
 1487 056e 80E0      		ldi r24,lo8(0)
 1488               	.LVL119:
 1489 0570 00C0      		rjmp .L162
 1490               	.LVL120:
 1491               	.L137:
 1492               	.LM251:
 1493 0572 0054      		subi r16,lo8(-(-64))
 1494 0574 E2E0      		ldi r30,lo8(2)
 1495 0576 E983      		std Y+1,r30
 1496               	.LVL121:
 1497 0578 00C0      		rjmp .L138
 1498               	.LVL122:
 1499               	.L179:
 1500               	.LM252:
 1501 057a 80E4      		ldi r24,lo8(64)
 1502 057c 60E0      		ldi r22,lo8(0)
 1503 057e 0E94 0000 		call write_command_LCD
 1504               	.LVL123:
 1505               	.LM253:
 1506 0582 8981      		ldd r24,Y+1
 1507 0584 8130      		cpi r24,lo8(1)
 1508 0586 01F0      		breq .L180
 1509               	.LM254:
 1510 0588 8EE2      		ldi r24,lo8(46)
 1511 058a 88B9      		out 40-32,r24
 1512 058c 80E0      		ldi r24,lo8(0)
 1513               	.LVL124:
 1514               	.L161:
 1515               	.LBB185:
 1516               	.LBB186:
 1517               	.LM255:
 1518               	/* #APP */
 1519               	 ;  1017 "main.c" 1
 1520 058e 0000      		nop
 1521               	 ;  0 "" 2
 1522               	.LM256:
 1523               	/* #NOAPP */
 1524 0590 8F5F      		subi r24,lo8(-(1))
 1525 0592 8E31      		cpi r24,lo8(30)
 1526 0594 01F4      		brne .L161
 1527               	.LBE186:
 1528               	.LBE185:
 1529               	.LM257:
 1530 0596 409A      		sbi 40-32,0
 1531 0598 80E0      		ldi r24,lo8(0)
 1532               	.LVL125:
 1533               	.L154:
 1534               	.LBB187:
 1535               	.LBB188:
 1536               	.LM258:
 1537               	/* #APP */
 1538               	 ;  1017 "main.c" 1
 1539 059a 0000      		nop
 1540               	 ;  0 "" 2
 1541               	.LM259:
 1542               	/* #NOAPP */
 1543 059c 8F5F      		subi r24,lo8(-(1))
 1544 059e 8E31      		cpi r24,lo8(30)
 1545 05a0 01F4      		brne .L154
 1546               	.LBE188:
 1547               	.LBE187:
 1548               	.LM260:
 1549 05a2 4098      		cbi 40-32,0
 1550 05a4 80E0      		ldi r24,lo8(0)
 1551               	.LVL126:
 1552               	.L155:
 1553               	.LBB189:
 1554               	.LBB190:
 1555               	.LM261:
 1556               	/* #APP */
 1557               	 ;  1017 "main.c" 1
 1558 05a6 0000      		nop
 1559               	 ;  0 "" 2
 1560               	.LM262:
 1561               	/* #NOAPP */
 1562 05a8 8F5F      		subi r24,lo8(-(1))
 1563 05aa 8E31      		cpi r24,lo8(30)
 1564 05ac 01F4      		brne .L155
 1565 05ae 20E0      		ldi r18,lo8(0)
 1566               	.LVL127:
 1567               	.L158:
 1568 05b0 322F      		mov r19,r18
 1569               	.LVL128:
 1570 05b2 300F      		add r19,r16
 1571               	.LBE190:
 1572               	.LBE189:
 1573               	.LM263:
 1574 05b4 409A      		sbi 40-32,0
 1575 05b6 80E0      		ldi r24,lo8(0)
 1576               	.LVL129:
 1577               	.L156:
 1578               	.LBB191:
 1579               	.LBB192:
 1580               	.LM264:
 1581               	/* #APP */
 1582               	 ;  1017 "main.c" 1
 1583 05b8 0000      		nop
 1584               	 ;  0 "" 2
 1585               	.LM265:
 1586               	/* #NOAPP */
 1587 05ba 8F5F      		subi r24,lo8(-(1))
 1588 05bc 8E31      		cpi r24,lo8(30)
 1589 05be 01F4      		brne .L156
 1590               	.LBE192:
 1591               	.LBE191:
 1592               	.LM266:
 1593 05c0 83B1      		in r24,35-32
 1594               	.LVL130:
 1595               	.LM267:
 1596 05c2 8370      		andi r24,lo8(3)
 1597               	.LM268:
 1598 05c4 99B1      		in r25,41-32
 1599               	.LM269:
 1600 05c6 F601      		movw r30,r12
 1601 05c8 E30F      		add r30,r19
 1602 05ca F11D      		adc r31,__zero_reg__
 1603 05cc 9C7F      		andi r25,lo8(-4)
 1604 05ce 982B      		or r25,r24
 1605 05d0 9083      		st Z,r25
 1606               	.LM270:
 1607 05d2 4098      		cbi 40-32,0
 1608 05d4 80E0      		ldi r24,lo8(0)
 1609               	.LVL131:
 1610               	.L157:
 1611               	.LBB193:
 1612               	.LBB194:
 1613               	.LM271:
 1614               	/* #APP */
 1615               	 ;  1017 "main.c" 1
 1616 05d6 0000      		nop
 1617               	 ;  0 "" 2
 1618               	.LM272:
 1619               	/* #NOAPP */
 1620 05d8 8F5F      		subi r24,lo8(-(1))
 1621 05da 8E31      		cpi r24,lo8(30)
 1622 05dc 01F4      		brne .L157
 1623               	.LBE194:
 1624               	.LBE193:
 1625               	.LM273:
 1626 05de 2F5F      		subi r18,lo8(-(1))
 1627 05e0 2F15      		cp r18,r15
 1628 05e2 00F0      		brlo .L158
 1629               	.LM274:
 1630 05e4 88E0      		ldi r24,lo8(8)
 1631               	.LVL132:
 1632 05e6 88B9      		out 40-32,r24
 1633 05e8 80E0      		ldi r24,lo8(0)
 1634               	.LVL133:
 1635               	.L159:
 1636               	.LBB195:
 1637               	.LBB196:
 1638               	.LM275:
 1639               	/* #APP */
 1640               	 ;  1017 "main.c" 1
 1641 05ea 0000      		nop
 1642               	 ;  0 "" 2
 1643               	.LM276:
 1644               	/* #NOAPP */
 1645 05ec 8F5F      		subi r24,lo8(-(1))
 1646 05ee 8E31      		cpi r24,lo8(30)
 1647 05f0 01F4      		brne .L159
 1648 05f2 00C0      		rjmp .L160
 1649               	.LVL134:
 1650               	.L180:
 1651               	.LBE196:
 1652               	.LBE195:
 1653               	.LM277:
 1654 05f4 18B9      		out 40-32,r17
 1655 05f6 80E0      		ldi r24,lo8(0)
 1656               	.LVL135:
 1657 05f8 00C0      		rjmp .L161
 1658               	.LVL136:
 1659               	.L178:
 1660               	.LM278:
 1661 05fa 00E0      		ldi r16,lo8(0)
 1662               	.LVL137:
 1663 05fc 00C0      		rjmp .L146
 1664               	.LFE21:
 1666               	.global	clear_screen
 1668               	clear_screen:
 1669               	.LFB15:
 1670               	.LM279:
 1671               	.LVL138:
 1672 05fe FF92      		push r15
 1673 0600 0F93      		push r16
 1674 0602 1F93      		push r17
 1675               	/* prologue: function */
 1676               	/* frame size = 0 */
 1677               	.LM280:
 1678 0604 8823      		tst r24
 1679 0606 01F0      		breq .+2
 1680 0608 00C0      		rjmp .L182
 1681 060a 10E0      		ldi r17,lo8(0)
 1682               	.LVL139:
 1683               	.LM281:
 1684 060c 0AE3      		ldi r16,lo8(58)
 1685               	.LM282:
 1686 060e 88E0      		ldi r24,lo8(8)
 1687 0610 F82E      		mov r15,r24
 1688               	.LVL140:
 1689               	.L190:
 1690               	.LM283:
 1691 0612 812F      		mov r24,r17
 1692 0614 886B      		ori r24,lo8(-72)
 1693 0616 60E0      		ldi r22,lo8(0)
 1694 0618 0E94 0000 		call write_command_LCD
 1695               	.LVL141:
 1696               	.LM284:
 1697 061c 80E4      		ldi r24,lo8(64)
 1698 061e 60E0      		ldi r22,lo8(0)
 1699 0620 0E94 0000 		call write_command_LCD
 1700               	.LM285:
 1701 0624 84B1      		in r24,36-32
 1702 0626 8360      		ori r24,lo8(3)
 1703 0628 84B9      		out 36-32,r24
 1704               	.LM286:
 1705 062a 8AB1      		in r24,42-32
 1706 062c 8C6F      		ori r24,lo8(-4)
 1707 062e 8AB9      		out 42-32,r24
 1708               	.LM287:
 1709 0630 8091 0000 		lds r24,reverse
 1710 0634 8130      		cpi r24,lo8(1)
 1711 0636 01F0      		breq .L201
 1712               	.LM288:
 1713 0638 80E0      		ldi r24,lo8(0)
 1714 063a 0E94 0000 		call set_data
 1715               	.L184:
 1716               	.LM289:
 1717 063e 08B9      		out 40-32,r16
 1718 0640 90E0      		ldi r25,lo8(0)
 1719               	.LVL142:
 1720               	.L185:
 1721               	.LM290:
 1722 0642 80E0      		ldi r24,lo8(0)
 1723               	.LVL143:
 1724               	.L186:
 1725               	.LBB197:
 1726               	.LBB198:
 1727               	.LM291:
 1728               	/* #APP */
 1729               	 ;  1017 "main.c" 1
 1730 0644 0000      		nop
 1731               	 ;  0 "" 2
 1732               	.LM292:
 1733               	/* #NOAPP */
 1734 0646 8F5F      		subi r24,lo8(-(1))
 1735 0648 8E31      		cpi r24,lo8(30)
 1736 064a 01F4      		brne .L186
 1737               	.LBE198:
 1738               	.LBE197:
 1739               	.LM293:
 1740 064c 409A      		sbi 40-32,0
 1741 064e 80E0      		ldi r24,lo8(0)
 1742               	.LVL144:
 1743               	.L187:
 1744               	.LBB199:
 1745               	.LBB200:
 1746               	.LM294:
 1747               	/* #APP */
 1748               	 ;  1017 "main.c" 1
 1749 0650 0000      		nop
 1750               	 ;  0 "" 2
 1751               	.LM295:
 1752               	/* #NOAPP */
 1753 0652 8F5F      		subi r24,lo8(-(1))
 1754 0654 8E31      		cpi r24,lo8(30)
 1755 0656 01F4      		brne .L187
 1756               	.LBE200:
 1757               	.LBE199:
 1758               	.LM296:
 1759 0658 4098      		cbi 40-32,0
 1760 065a 80E0      		ldi r24,lo8(0)
 1761               	.LVL145:
 1762               	.L188:
 1763               	.LBB201:
 1764               	.LBB202:
 1765               	.LM297:
 1766               	/* #APP */
 1767               	 ;  1017 "main.c" 1
 1768 065c 0000      		nop
 1769               	 ;  0 "" 2
 1770               	.LM298:
 1771               	/* #NOAPP */
 1772 065e 8F5F      		subi r24,lo8(-(1))
 1773 0660 8E31      		cpi r24,lo8(30)
 1774 0662 01F4      		brne .L188
 1775               	.LBE202:
 1776               	.LBE201:
 1777               	.LM299:
 1778 0664 9F5F      		subi r25,lo8(-(1))
 1779 0666 9034      		cpi r25,lo8(64)
 1780 0668 01F4      		brne .L185
 1781               	.LM300:
 1782 066a F8B8      		out 40-32,r15
 1783               	.LM301:
 1784 066c 84B1      		in r24,36-32
 1785               	.LVL146:
 1786 066e 8C7F      		andi r24,lo8(-4)
 1787 0670 84B9      		out 36-32,r24
 1788               	.LM302:
 1789 0672 1AB8      		out 42-32,__zero_reg__
 1790               	.LM303:
 1791 0674 1092 0000 		sts x_offset,__zero_reg__
 1792               	.LM304:
 1793 0678 1092 0000 		sts y_offset,__zero_reg__
 1794               	.LM305:
 1795 067c 1F5F      		subi r17,lo8(-(1))
 1796 067e 1830      		cpi r17,lo8(8)
 1797 0680 01F4      		brne .L190
 1798               	.LVL147:
 1799               	.L194:
 1800               	/* epilogue start */
 1801               	.LM306:
 1802 0682 1F91      		pop r17
 1803               	.LVL148:
 1804 0684 0F91      		pop r16
 1805 0686 FF90      		pop r15
 1806 0688 0895      		ret
 1807               	.LVL149:
 1808               	.L201:
 1809               	.LM307:
 1810 068a 8FEF      		ldi r24,lo8(-1)
 1811 068c 0E94 0000 		call set_data
 1812 0690 00C0      		rjmp .L184
 1813               	.LVL150:
 1814               	.L182:
 1815               	.LM308:
 1816 0692 10E0      		ldi r17,lo8(0)
 1817               	.LVL151:
 1818               	.L193:
 1819               	.LM309:
 1820 0694 80E0      		ldi r24,lo8(0)
 1821               	.LVL152:
 1822 0696 612F      		mov r22,r17
 1823 0698 40E8      		ldi r20,lo8(-128)
 1824 069a 20E0      		ldi r18,lo8(buffer)
 1825 069c 30E0      		ldi r19,hi8(buffer)
 1826 069e 0E94 0000 		call read_block
 1827 06a2 90E0      		ldi r25,lo8(0)
 1828               	.LVL153:
 1829               	.L192:
 1830               	.LM310:
 1831 06a4 E92F      		mov r30,r25
 1832 06a6 F0E0      		ldi r31,lo8(0)
 1833 06a8 E050      		subi r30,lo8(-(buffer))
 1834 06aa F040      		sbci r31,hi8(-(buffer))
 1835 06ac 8081      		ld r24,Z
 1836 06ae 8095      		com r24
 1837 06b0 8083      		st Z,r24
 1838               	.LM311:
 1839 06b2 9F5F      		subi r25,lo8(-(1))
 1840 06b4 9038      		cpi r25,lo8(-128)
 1841 06b6 01F4      		brne .L192
 1842               	.LM312:
 1843 06b8 80E0      		ldi r24,lo8(0)
 1844 06ba 612F      		mov r22,r17
 1845 06bc 40E8      		ldi r20,lo8(-128)
 1846 06be 20E0      		ldi r18,lo8(buffer)
 1847 06c0 30E0      		ldi r19,hi8(buffer)
 1848 06c2 0E94 0000 		call write_block
 1849               	.LVL154:
 1850               	.LM313:
 1851 06c6 1F5F      		subi r17,lo8(-(1))
 1852 06c8 1830      		cpi r17,lo8(8)
 1853 06ca 01F4      		brne .L193
 1854 06cc 00C0      		rjmp .L194
 1855               	.LFE15:
 1857               	.global	bitblt
 1859               	bitblt:
 1860               	.LFB22:
 1861               	.LM314:
 1862               	.LVL155:
 1863 06ce 2F92      		push r2
 1864 06d0 3F92      		push r3
 1865 06d2 4F92      		push r4
 1866 06d4 5F92      		push r5
 1867 06d6 6F92      		push r6
 1868 06d8 7F92      		push r7
 1869 06da 8F92      		push r8
 1870 06dc 9F92      		push r9
 1871 06de AF92      		push r10
 1872 06e0 BF92      		push r11
 1873 06e2 CF92      		push r12
 1874 06e4 DF92      		push r13
 1875 06e6 EF92      		push r14
 1876               	.LVL156:
 1877 06e8 FF92      		push r15
 1878 06ea 0F93      		push r16
 1879               	.LVL157:
 1880 06ec 1F93      		push r17
 1881 06ee DF93      		push r29
 1882 06f0 CF93      		push r28
 1883 06f2 CDB7      		in r28,__SP_L__
 1884 06f4 DEB7      		in r29,__SP_H__
 1885 06f6 2E97      		sbiw r28,14
 1886 06f8 0FB6      		in __tmp_reg__,__SREG__
 1887 06fa F894      		cli
 1888 06fc DEBF      		out __SP_H__,r29
 1889 06fe 0FBE      		out __SREG__,__tmp_reg__
 1890 0700 CDBF      		out __SP_L__,r28
 1891               	/* prologue: function */
 1892               	/* frame size = 14 */
 1893 0702 8887      		std Y+8,r24
 1894 0704 342E      		mov r3,r20
 1895 0706 A22E      		mov r10,r18
 1896 0708 B02E      		mov r11,r16
 1897               	.LVL158:
 1898 070a 8701      		movw r16,r14
 1899               	.LVL159:
 1900               	.LM315:
 1901 070c 822F      		mov r24,r18
 1902               	.LVL160:
 1903 070e 8150      		subi r24,lo8(-(-1))
 1904 0710 8034      		cpi r24,lo8(64)
 1905 0712 00F0      		brlo .L203
 1906               	.LVL161:
 1907               	.LM316:
 1908 0714 2223      		tst r18
 1909 0716 01F0      		breq .L240
 1910 0718 10E0      		ldi r17,lo8(0)
 1911               	.LVL162:
 1912               	.L205:
 1913               	.LM317:
 1914 071a 3320      		tst r3
 1915 071c 01F0      		breq .L208
 1916               	.LM318:
 1917 071e 00E0      		ldi r16,lo8(0)
 1918               	.LVL163:
 1919               	.L206:
 1920               	.LM319:
 1921 0720 0E94 0000 		call RX_get_byte
 1922               	.LVL164:
 1923               	.LM320:
 1924 0724 0F5F      		subi r16,lo8(-(1))
 1925 0726 0315      		cp r16,r3
 1926 0728 00F0      		brlo .L206
 1927               	.LVL165:
 1928               	.L208:
 1929               	.LM321:
 1930 072a 1F5F      		subi r17,lo8(-(1))
 1931 072c 1A15      		cp r17,r10
 1932 072e 00F0      		brlo .L205
 1933               	.LVL166:
 1934               	.L240:
 1935               	/* epilogue start */
 1936               	.LM322:
 1937 0730 2E96      		adiw r28,14
 1938 0732 0FB6      		in __tmp_reg__,__SREG__
 1939 0734 F894      		cli
 1940 0736 DEBF      		out __SP_H__,r29
 1941 0738 0FBE      		out __SREG__,__tmp_reg__
 1942 073a CDBF      		out __SP_L__,r28
 1943 073c CF91      		pop r28
 1944 073e DF91      		pop r29
 1945 0740 1F91      		pop r17
 1946               	.LVL167:
 1947 0742 0F91      		pop r16
 1948               	.LVL168:
 1949 0744 FF90      		pop r15
 1950 0746 EF90      		pop r14
 1951               	.LVL169:
 1952 0748 DF90      		pop r13
 1953 074a CF90      		pop r12
 1954 074c BF90      		pop r11
 1955               	.LVL170:
 1956 074e AF90      		pop r10
 1957 0750 9F90      		pop r9
 1958 0752 8F90      		pop r8
 1959 0754 7F90      		pop r7
 1960 0756 6F90      		pop r6
 1961 0758 5F90      		pop r5
 1962 075a 4F90      		pop r4
 1963 075c 3F90      		pop r3
 1964               	.LVL171:
 1965 075e 2F90      		pop r2
 1966               	.LVL172:
 1967 0760 0895      		ret
 1968               	.LVL173:
 1969               	.L203:
 1970               	.LM323:
 1971 0762 842F      		mov r24,r20
 1972 0764 8150      		subi r24,lo8(-(-1))
 1973 0766 87FD      		sbrc r24,7
 1974 0768 00C0      		rjmp .L251
 1975               	.LVL174:
 1976               	.LM324:
 1977 076a 862F      		mov r24,r22
 1978               	.LVL175:
 1979 076c 8770      		andi r24,lo8(7)
 1980               	.LM325:
 1981 076e 58E0      		ldi r21,lo8(8)
 1982 0770 252E      		mov r2,r21
 1983               	.LVL176:
 1984 0772 281A      		sub r2,r24
 1985               	.LM326:
 1986 0774 30E0      		ldi r19,lo8(0)
 1987 0776 C82E      		mov r12,r24
 1988 0778 DD24      		clr r13
 1989 077a 0894      		sec
 1990 077c C108      		sbc r12,__zero_reg__
 1991 077e D108      		sbc r13,__zero_reg__
 1992 0780 C601      		movw r24,r12
 1993               	.LVL177:
 1994 0782 820F      		add r24,r18
 1995 0784 931F      		adc r25,r19
 1996               	.LVL178:
 1997 0786 0894      		sec
 1998 0788 C11C      		adc r12,__zero_reg__
 1999 078a D11C      		adc r13,__zero_reg__
 2000 078c 97FD      		sbrc r25,7
 2001 078e 00C0      		rjmp .L252
 2002               	.L214:
 2003 0790 9595      		asr r25
 2004 0792 8795      		ror r24
 2005 0794 9595      		asr r25
 2006 0796 8795      		ror r24
 2007 0798 9595      		asr r25
 2008 079a 8795      		ror r24
 2009               	.LVL179:
 2010 079c 482F      		mov r20,r24
 2011 079e 4F5F      		subi r20,lo8(-(1))
 2012 07a0 4C83      		std Y+4,r20
 2013               	.LVL180:
 2014               	.LM327:
 2015 07a2 A694      		lsr r10
 2016 07a4 A694      		lsr r10
 2017 07a6 A694      		lsr r10
 2018 07a8 AB82      		std Y+3,r10
 2019               	.LVL181:
 2020               	.LM328:
 2021 07aa C901      		movw r24,r18
 2022 07ac 8770      		andi r24,lo8(7)
 2023 07ae 9070      		andi r25,hi8(7)
 2024 07b0 892B      		or r24,r25
 2025 07b2 01F0      		breq .L215
 2026               	.LM329:
 2027 07b4 8A2D      		mov r24,r10
 2028 07b6 8F5F      		subi r24,lo8(-(1))
 2029 07b8 8B83      		std Y+3,r24
 2030               	.LVL182:
 2031               	.L215:
 2032               	.LM330:
 2033 07ba 4FEF      		ldi r20,lo8(255)
 2034 07bc 50E0      		ldi r21,hi8(255)
 2035 07be CA01      		movw r24,r20
 2036 07c0 0C2C      		mov r0,r12
 2037 07c2 00C0      		rjmp 2f
 2038 07c4 880F      	1:	lsl r24
 2039 07c6 991F      		rol r25
 2040 07c8 0A94      	2:	dec r0
 2041 07ca 02F4      		brpl 1b
 2042 07cc 8E83      		std Y+6,r24
 2043               	.LVL183:
 2044               	.LM331:
 2045 07ce 260F      		add r18,r22
 2046 07d0 311D      		adc r19,__zero_reg__
 2047 07d2 2770      		andi r18,lo8(7)
 2048 07d4 3070      		andi r19,hi8(7)
 2049               	.LM332:
 2050 07d6 2115      		cp r18,__zero_reg__
 2051 07d8 3105      		cpc r19,__zero_reg__
 2052 07da 01F0      		breq .+2
 2053 07dc 00C0      		rjmp .L216
 2054 07de 9FEF      		ldi r25,lo8(-1)
 2055 07e0 9D83      		std Y+5,r25
 2056               	.LVL184:
 2057               	.L217:
 2058               	.LM333:
 2059 07e2 832D      		mov r24,r3
 2060 07e4 90E0      		ldi r25,lo8(0)
 2061               	.LVL185:
 2062 07e6 EE24      		clr r14
 2063 07e8 FF24      		clr r15
 2064 07ea E81A      		sub r14,r24
 2065 07ec F90A      		sbc r15,r25
 2066               	.LVL186:
 2067 07ee 6695      		lsr r22
 2068 07f0 6695      		lsr r22
 2069 07f2 6695      		lsr r22
 2070               	.LVL187:
 2071 07f4 6983      		std Y+1,r22
 2072 07f6 1C86      		std Y+12,__zero_reg__
 2073 07f8 1B86      		std Y+11,__zero_reg__
 2074               	.LVL188:
 2075 07fa 6624      		clr r6
 2076 07fc 7724      		clr r7
 2077               	.LM334:
 2078 07fe 8B2C      		mov r8,r11
 2079 0800 9924      		clr r9
 2080 0802 A1E0      		ldi r26,lo8(1)
 2081 0804 8A22      		and r8,r26
 2082 0806 9924      		clr r9
 2083               	.LM335:
 2084 0808 BC81      		ldd r27,Y+4
 2085 080a 4B2E      		mov r4,r27
 2086 080c 5524      		clr r5
 2087 080e 0894      		sec
 2088 0810 4108      		sbc r4,__zero_reg__
 2089 0812 5108      		sbc r5,__zero_reg__
 2090               	.LM336:
 2091 0814 ED81      		ldd r30,Y+5
 2092 0816 E095      		com r30
 2093 0818 E987      		std Y+9,r30
 2094               	.LM337:
 2095 081a FE81      		ldd r31,Y+6
 2096 081c F095      		com r31
 2097 081e FA87      		std Y+10,r31
 2098               	.L239:
 2099               	.LM338:
 2100 0820 A62C      		mov r10,r6
 2101               	.LVL189:
 2102 0822 2981      		ldd r18,Y+1
 2103 0824 260D      		add r18,r6
 2104 0826 2F83      		std Y+7,r18
 2105               	.LM339:
 2106 0828 8885      		ldd r24,Y+8
 2107 082a 622F      		mov r22,r18
 2108               	.LVL190:
 2109 082c 432D      		mov r20,r3
 2110 082e 20E0      		ldi r18,lo8(buffer)
 2111 0830 30E0      		ldi r19,hi8(buffer)
 2112 0832 0E94 0000 		call read_block
 2113               	.LVL191:
 2114               	.LM340:
 2115 0836 3320      		tst r3
 2116 0838 01F4      		brne .+2
 2117 083a 00C0      		rjmp .L218
 2118 083c 60E0      		ldi r22,lo8(buffer+128)
 2119 083e 70E0      		ldi r23,hi8(buffer+128)
 2120 0840 40E0      		ldi r20,lo8(0)
 2121 0842 50E0      		ldi r21,hi8(0)
 2122 0844 00C0      		rjmp .L238
 2123               	.LVL192:
 2124               	.L255:
 2125               	.LM341:
 2126 0846 BE81      		ldd r27,Y+6
 2127 0848 2B23      		and r18,r27
 2128               	.L227:
 2129               	.LM342:
 2130 084a F3E0      		ldi r31,lo8(3)
 2131 084c FB15      		cp r31,r11
 2132 084e 00F4      		brsh .+2
 2133 0850 00C0      		rjmp .L232
 2134               	.L256:
 2135 0852 32E0      		ldi r19,lo8(2)
 2136               	.LVL193:
 2137 0854 B316      		cp r11,r19
 2138 0856 00F4      		brsh .+2
 2139 0858 00C0      		rjmp .L253
 2140               	.LM343:
 2141 085a FA01      		movw r30,r20
 2142 085c E050      		subi r30,lo8(-(buffer))
 2143 085e F040      		sbci r31,hi8(-(buffer))
 2144 0860 8081      		ld r24,Z
 2145 0862 282B      		or r18,r24
 2146 0864 2083      		st Z,r18
 2147               	.LVL194:
 2148               	.L233:
 2149               	.LM344:
 2150 0866 8114      		cp r8,__zero_reg__
 2151 0868 9104      		cpc r9,__zero_reg__
 2152 086a 01F0      		breq .L237
 2153 086c B5E0      		ldi r27,lo8(5)
 2154 086e BB15      		cp r27,r11
 2155 0870 00F0      		brlo .L237
 2156               	.LM345:
 2157 0872 8081      		ld r24,Z
 2158 0874 8095      		com r24
 2159 0876 8083      		st Z,r24
 2160               	.L237:
 2161 0878 4F5F      		subi r20,lo8(-(1))
 2162 087a 5F4F      		sbci r21,hi8(-(1))
 2163 087c 6F5F      		subi r22,lo8(-(1))
 2164 087e 7F4F      		sbci r23,hi8(-(1))
 2165               	.LM346:
 2166 0880 4315      		cp r20,r3
 2167 0882 00F0      		brlo .+2
 2168 0884 00C0      		rjmp .L218
 2169               	.L238:
 2170               	.LM347:
 2171 0886 0115      		cp r16,__zero_reg__
 2172 0888 1105      		cpc r17,__zero_reg__
 2173 088a 01F4      		brne .+2
 2174 088c 00C0      		rjmp .L219
 2175               	.LM348:
 2176 088e F801      		movw r30,r16
 2177 0890 EE0D      		add r30,r14
 2178 0892 FF1D      		adc r31,r15
 2179 0894 2081      		ld r18,Z
 2180               	.LVL195:
 2181 0896 30E0      		ldi r19,lo8(0)
 2182               	.LVL196:
 2183 0898 022C      		mov r0,r2
 2184 089a 00C0      		rjmp 2f
 2185 089c 3595      	1:	asr r19
 2186 089e 2795      		ror r18
 2187 08a0 0A94      	2:	dec r0
 2188 08a2 02F4      		brpl 1b
 2189 08a4 EB85      		ldd r30,Y+11
 2190 08a6 FC85      		ldd r31,Y+12
 2191 08a8 E00F      		add r30,r16
 2192 08aa F11F      		adc r31,r17
 2193 08ac 8081      		ld r24,Z
 2194 08ae 90E0      		ldi r25,lo8(0)
 2195 08b0 0C2C      		mov r0,r12
 2196 08b2 00C0      		rjmp 2f
 2197 08b4 880F      	1:	lsl r24
 2198 08b6 991F      		rol r25
 2199 08b8 0A94      	2:	dec r0
 2200 08ba 02F4      		brpl 1b
 2201 08bc 282B      		or r18,r24
 2202               	.LVL197:
 2203 08be 8B85      		ldd r24,Y+11
 2204 08c0 9C85      		ldd r25,Y+12
 2205 08c2 0196      		adiw r24,1
 2206 08c4 9C87      		std Y+12,r25
 2207 08c6 8B87      		std Y+11,r24
 2208               	.LVL198:
 2209 08c8 0894      		sec
 2210 08ca E11C      		adc r14,__zero_reg__
 2211 08cc F11C      		adc r15,__zero_reg__
 2212               	.LVL199:
 2213               	.L220:
 2214               	.LM349:
 2215 08ce F6E0      		ldi r31,lo8(6)
 2216 08d0 BF16      		cp r11,r31
 2217 08d2 01F0      		breq .L254
 2218               	.L225:
 2219               	.LM350:
 2220 08d4 AA20      		tst r10
 2221 08d6 01F4      		brne .+2
 2222 08d8 00C0      		rjmp .L255
 2223               	.LM351:
 2224 08da 6414      		cp r6,r4
 2225 08dc 7504      		cpc r7,r5
 2226 08de 01F0      		breq .+2
 2227 08e0 00C0      		rjmp .L227
 2228               	.LM352:
 2229 08e2 ED81      		ldd r30,Y+5
 2230 08e4 2E23      		and r18,r30
 2231               	.LM353:
 2232 08e6 F3E0      		ldi r31,lo8(3)
 2233 08e8 FB15      		cp r31,r11
 2234 08ea 00F0      		brlo .+2
 2235 08ec 00C0      		rjmp .L256
 2236               	.L232:
 2237 08ee 85E0      		ldi r24,lo8(5)
 2238 08f0 8B15      		cp r24,r11
 2239 08f2 00F4      		brsh .L257
 2240               	.LM354:
 2241 08f4 AA20      		tst r10
 2242 08f6 01F0      		breq .+2
 2243 08f8 00C0      		rjmp .L234
 2244               	.LM355:
 2245 08fa FA01      		movw r30,r20
 2246 08fc E050      		subi r30,lo8(-(buffer))
 2247 08fe F040      		sbci r31,hi8(-(buffer))
 2248 0900 8081      		ld r24,Z
 2249 0902 9A85      		ldd r25,Y+10
 2250 0904 8923      		and r24,r25
 2251 0906 8083      		st Z,r24
 2252               	.L235:
 2253               	.LM356:
 2254 0908 8081      		ld r24,Z
 2255 090a 282B      		or r18,r24
 2256 090c 2083      		st Z,r18
 2257 090e 00C0      		rjmp .L233
 2258               	.L254:
 2259               	.LM357:
 2260 0910 D801      		movw r26,r16
 2261 0912 8C91      		ld r24,X
 2262 0914 90E0      		ldi r25,lo8(0)
 2263 0916 9C01      		movw r18,r24
 2264               	.LVL200:
 2265 0918 022C      		mov r0,r2
 2266 091a 00C0      		rjmp 2f
 2267 091c 3595      	1:	asr r19
 2268 091e 2795      		ror r18
 2269 0920 0A94      	2:	dec r0
 2270 0922 02F4      		brpl 1b
 2271 0924 0C2C      		mov r0,r12
 2272 0926 00C0      		rjmp 2f
 2273 0928 880F      	1:	lsl r24
 2274 092a 991F      		rol r25
 2275 092c 0A94      	2:	dec r0
 2276 092e 02F4      		brpl 1b
 2277 0930 282B      		or r18,r24
 2278               	.LVL201:
 2279 0932 00C0      		rjmp .L225
 2280               	.LVL202:
 2281               	.L253:
 2282               	.LM358:
 2283 0934 FA01      		movw r30,r20
 2284 0936 E050      		subi r30,lo8(-(buffer))
 2285 0938 F040      		sbci r31,hi8(-(buffer))
 2286 093a 8081      		ld r24,Z
 2287 093c 2823      		and r18,r24
 2288 093e 2083      		st Z,r18
 2289 0940 00C0      		rjmp .L233
 2290               	.LVL203:
 2291               	.L257:
 2292               	.LM359:
 2293 0942 FA01      		movw r30,r20
 2294 0944 E050      		subi r30,lo8(-(buffer))
 2295 0946 F040      		sbci r31,hi8(-(buffer))
 2296 0948 8081      		ld r24,Z
 2297 094a 2827      		eor r18,r24
 2298 094c 2083      		st Z,r18
 2299 094e 00C0      		rjmp .L233
 2300               	.L219:
 2301               	.LM360:
 2302 0950 9B81      		ldd r25,Y+3
 2303 0952 A916      		cp r10,r25
 2304 0954 00F0      		brlo .L242
 2305               	.LVL204:
 2306               	.L221:
 2307               	.LM361:
 2308 0956 FA81      		ldd r31,Y+2
 2309 0958 2F2F      		mov r18,r31
 2310               	.LVL205:
 2311 095a 30E0      		ldi r19,lo8(0)
 2312 095c 0C2C      		mov r0,r12
 2313 095e 00C0      		rjmp 2f
 2314 0960 220F      	1:	lsl r18
 2315 0962 331F      		rol r19
 2316 0964 0A94      	2:	dec r0
 2317 0966 02F4      		brpl 1b
 2318               	.LVL206:
 2319 0968 DB01      		movw r26,r22
 2320 096a 8C91      		ld r24,X
 2321 096c 90E0      		ldi r25,lo8(0)
 2322 096e 022C      		mov r0,r2
 2323 0970 00C0      		rjmp 2f
 2324 0972 9595      	1:	asr r25
 2325 0974 8795      		ror r24
 2326 0976 0A94      	2:	dec r0
 2327 0978 02F4      		brpl 1b
 2328 097a 282B      		or r18,r24
 2329               	.LVL207:
 2330               	.LM362:
 2331 097c FC93      		st X,r31
 2332 097e 00C0      		rjmp .L220
 2333               	.L242:
 2334               	.LM363:
 2335 0980 8091 0000 		lds r24,RX_bytes
 2336 0984 8823      		tst r24
 2337 0986 01F0      		breq .L242
 2338               	.LM364:
 2339 0988 8091 0000 		lds r24,RX_read
 2340 098c 9091 0000 		lds r25,(RX_read)+1
 2341 0990 DC01      		movw r26,r24
 2342 0992 A050      		subi r26,lo8(-(RX_array))
 2343 0994 B040      		sbci r27,hi8(-(RX_array))
 2344 0996 BC91      		ld r27,X
 2345 0998 BA83      		std Y+2,r27
 2346               	.LVL208:
 2347 099a 0196      		adiw r24,1
 2348 099c 9093 0000 		sts (RX_read)+1,r25
 2349 09a0 8093 0000 		sts RX_read,r24
 2350               	.LM365:
 2351 09a4 8F3F      		cpi r24,255
 2352 09a6 9105      		cpc r25,__zero_reg__
 2353 09a8 01F0      		breq .L223
 2354 09aa 00F0      		brlo .L223
 2355 09ac 1092 0000 		sts (RX_read)+1,__zero_reg__
 2356 09b0 1092 0000 		sts RX_read,__zero_reg__
 2357               	.L223:
 2358               	.LM366:
 2359               	/* #APP */
 2360               	 ;  1495 "main.c" 1
 2361 09b4 F894      		cli
 2362               	 ;  0 "" 2
 2363               	.LM367:
 2364               	/* #NOAPP */
 2365 09b6 8091 0000 		lds r24,RX_bytes
 2366 09ba 8150      		subi r24,lo8(-(-1))
 2367 09bc 8093 0000 		sts RX_bytes,r24
 2368               	.LM368:
 2369               	/* #APP */
 2370               	 ;  1497 "main.c" 1
 2371 09c0 7894      		sei
 2372               	 ;  0 "" 2
 2373               	.LM369:
 2374               	/* #NOAPP */
 2375 09c2 8091 0000 		lds r24,RX_pause
 2376 09c6 8130      		cpi r24,lo8(1)
 2377 09c8 01F4      		brne .L221
 2378               	.LM370:
 2379 09ca 8091 0000 		lds r24,RX_bytes
 2380 09ce 8034      		cpi r24,lo8(64)
 2381 09d0 00F0      		brlo .+2
 2382 09d2 00C0      		rjmp .L221
 2383               	.L241:
 2384               	.LBB203:
 2385               	.LBB204:
 2386               	.LM371:
 2387 09d4 8091 C000 		lds r24,192
 2388 09d8 85FF      		sbrs r24,5
 2389 09da 00C0      		rjmp .L241
 2390               	.LM372:
 2391 09dc E1E1      		ldi r30,lo8(17)
 2392 09de E093 C600 		sts 198,r30
 2393               	.LBE204:
 2394               	.LBE203:
 2395               	.LM373:
 2396 09e2 1092 0000 		sts RX_pause,__zero_reg__
 2397 09e6 00C0      		rjmp .L221
 2398               	.LVL209:
 2399               	.L234:
 2400               	.LM374:
 2401 09e8 6414      		cp r6,r4
 2402 09ea 7504      		cpc r7,r5
 2403 09ec 01F0      		breq .L258
 2404               	.LM375:
 2405 09ee FA01      		movw r30,r20
 2406 09f0 E050      		subi r30,lo8(-(buffer))
 2407 09f2 F040      		sbci r31,hi8(-(buffer))
 2408 09f4 1082      		st Z,__zero_reg__
 2409 09f6 00C0      		rjmp .L235
 2410               	.L258:
 2411               	.LM376:
 2412 09f8 FA01      		movw r30,r20
 2413 09fa E050      		subi r30,lo8(-(buffer))
 2414 09fc F040      		sbci r31,hi8(-(buffer))
 2415 09fe 8081      		ld r24,Z
 2416 0a00 A985      		ldd r26,Y+9
 2417 0a02 8A23      		and r24,r26
 2418 0a04 8083      		st Z,r24
 2419 0a06 00C0      		rjmp .L235
 2420               	.L218:
 2421               	.LM377:
 2422 0a08 8885      		ldd r24,Y+8
 2423 0a0a 6F81      		ldd r22,Y+7
 2424 0a0c 432D      		mov r20,r3
 2425 0a0e 20E0      		ldi r18,lo8(buffer)
 2426 0a10 30E0      		ldi r19,hi8(buffer)
 2427               	.LVL210:
 2428 0a12 0E94 0000 		call write_block
 2429               	.LVL211:
 2430 0a16 0894      		sec
 2431 0a18 611C      		adc r6,__zero_reg__
 2432 0a1a 711C      		adc r7,__zero_reg__
 2433               	.LM378:
 2434 0a1c EC81      		ldd r30,Y+4
 2435 0a1e 6E16      		cp r6,r30
 2436 0a20 00F4      		brsh .+2
 2437 0a22 00C0      		rjmp .L239
 2438 0a24 00C0      		rjmp .L240
 2439               	.LVL212:
 2440               	.L216:
 2441               	.LM379:
 2442 0a26 88E0      		ldi r24,lo8(8)
 2443 0a28 90E0      		ldi r25,hi8(8)
 2444 0a2a 821B      		sub r24,r18
 2445 0a2c 930B      		sbc r25,r19
 2446 0a2e 00C0      		rjmp 2f
 2447 0a30 5595      	1:	asr r21
 2448 0a32 4795      		ror r20
 2449 0a34 8A95      	2:	dec r24
 2450 0a36 02F4      		brpl 1b
 2451 0a38 4D83      		std Y+5,r20
 2452               	.LVL213:
 2453 0a3a 00C0      		rjmp .L217
 2454               	.LVL214:
 2455               	.L251:
 2456               	.LM380:
 2457 0a3c 2223      		tst r18
 2458 0a3e 01F4      		brne .+2
 2459 0a40 00C0      		rjmp .L240
 2460 0a42 00E0      		ldi r16,lo8(0)
 2461               	.LVL215:
 2462               	.L210:
 2463               	.LM381:
 2464 0a44 3320      		tst r3
 2465 0a46 01F0      		breq .L213
 2466               	.LM382:
 2467 0a48 10E0      		ldi r17,lo8(0)
 2468               	.LVL216:
 2469               	.L211:
 2470               	.LM383:
 2471 0a4a 0E94 0000 		call RX_get_byte
 2472               	.LVL217:
 2473               	.LM384:
 2474 0a4e 1F5F      		subi r17,lo8(-(1))
 2475 0a50 1315      		cp r17,r3
 2476 0a52 00F0      		brlo .L211
 2477               	.LVL218:
 2478               	.L213:
 2479               	.LM385:
 2480 0a54 0F5F      		subi r16,lo8(-(1))
 2481 0a56 0A15      		cp r16,r10
 2482 0a58 00F0      		brlo .L210
 2483 0a5a 00C0      		rjmp .L240
 2484               	.LVL219:
 2485               	.L252:
 2486               	.LM386:
 2487 0a5c 0796      		adiw r24,7
 2488 0a5e 00C0      		rjmp .L214
 2489               	.LFE22:
 2491               	.global	print_char
 2493               	print_char:
 2494               	.LFB16:
 2495               	.LM387:
 2496               	.LVL220:
 2497 0a60 EF92      		push r14
 2498 0a62 FF92      		push r15
 2499 0a64 0F93      		push r16
 2500               	/* prologue: function */
 2501               	/* frame size = 0 */
 2502               	.LM388:
 2503 0a66 9091 0000 		lds r25,font_bytes
 2504 0a6a 492F      		mov r20,r25
 2505 0a6c 50E0      		ldi r21,lo8(0)
 2506 0a6e 90E0      		ldi r25,lo8(0)
 2507               	.LVL221:
 2508 0a70 8097      		sbiw r24,32
 2509               	.LVL222:
 2510 0a72 849F      		mul r24,r20
 2511 0a74 9001      		movw r18,r0
 2512 0a76 859F      		mul r24,r21
 2513 0a78 300D      		add r19,r0
 2514 0a7a 949F      		mul r25,r20
 2515 0a7c 300D      		add r19,r0
 2516 0a7e 1124      		clr r1
 2517               	.LVL223:
 2518 0a80 2D5F      		subi r18,lo8(-(3))
 2519 0a82 3F4F      		sbci r19,hi8(-(3))
 2520               	.LM389:
 2521 0a84 8091 0000 		lds r24,aux_font
 2522               	.LVL224:
 2523 0a88 8823      		tst r24
 2524 0a8a 01F0      		breq .+2
 2525 0a8c 00C0      		rjmp .L260
 2526               	.LM390:
 2527 0a8e 8091 0000 		lds r24,reverse
 2528 0a92 8130      		cpi r24,lo8(1)
 2529 0a94 01F4      		brne .+2
 2530 0a96 00C0      		rjmp .L261
 2531               	.LM391:
 2532 0a98 C901      		movw r24,r18
 2533 0a9a 840F      		add r24,r20
 2534 0a9c 951F      		adc r25,r21
 2535 0a9e 2817      		cp r18,r24
 2536 0aa0 3907      		cpc r19,r25
 2537 0aa2 04F4      		brge .L263
 2538               	.LM392:
 2539 0aa4 2050      		subi r18,lo8(-(text_array))
 2540 0aa6 3040      		sbci r19,hi8(-(text_array))
 2541               	.LVL225:
 2542 0aa8 40E8      		ldi r20,lo8(-128)
 2543               	.LVL226:
 2544 0aaa BC01      		movw r22,r24
 2545 0aac 6050      		subi r22,lo8(-(text_array))
 2546 0aae 7040      		sbci r23,hi8(-(text_array))
 2547               	.L265:
 2548               	.LBB205:
 2549               	.LM393:
 2550 0ab0 F901      		movw r30,r18
 2551               	/* #APP */
 2552               	 ;  1122 "main.c" 1
 2553 0ab2 8491      		lpm r24, Z
 2554               		
 2555               	 ;  0 "" 2
 2556               	.LVL227:
 2557               	/* #NOAPP */
 2558               	.LBE205:
 2559 0ab4 E42F      		mov r30,r20
 2560 0ab6 F0E0      		ldi r31,lo8(0)
 2561               	.LVL228:
 2562 0ab8 E050      		subi r30,lo8(-(buffer))
 2563 0aba F040      		sbci r31,hi8(-(buffer))
 2564               	.LVL229:
 2565 0abc 8083      		st Z,r24
 2566 0abe 4F5F      		subi r20,lo8(-(1))
 2567               	.LVL230:
 2568 0ac0 2F5F      		subi r18,lo8(-(1))
 2569 0ac2 3F4F      		sbci r19,hi8(-(1))
 2570               	.LM394:
 2571 0ac4 2617      		cp r18,r22
 2572 0ac6 3707      		cpc r19,r23
 2573 0ac8 01F4      		brne .L265
 2574               	.LVL231:
 2575               	.L263:
 2576               	.LM395:
 2577 0aca 8091 0000 		lds r24,x_offset
 2578               	.LVL232:
 2579 0ace 6091 0000 		lds r22,y_offset
 2580 0ad2 4091 0000 		lds r20,font_w
 2581               	.LVL233:
 2582 0ad6 2091 0000 		lds r18,font_h
 2583               	.LVL234:
 2584 0ada 0091 0000 		lds r16,font_mode
 2585 0ade 70E0      		ldi r23,lo8(buffer+128)
 2586 0ae0 E72E      		mov r14,r23
 2587 0ae2 70E0      		ldi r23,hi8(buffer+128)
 2588 0ae4 F72E      		mov r15,r23
 2589 0ae6 0E94 0000 		call bitblt
 2590               	.LVL235:
 2591               	.LM396:
 2592 0aea 2091 0000 		lds r18,font_w
 2593 0aee 3091 0000 		lds r19,font_space
 2594 0af2 832F      		mov r24,r19
 2595 0af4 820F      		add r24,r18
 2596 0af6 9091 0000 		lds r25,x_offset
 2597 0afa 890F      		add r24,r25
 2598 0afc 8093 0000 		sts x_offset,r24
 2599               	.LM397:
 2600 0b00 482F      		mov r20,r24
 2601 0b02 50E0      		ldi r21,lo8(0)
 2602 0b04 622F      		mov r22,r18
 2603 0b06 70E0      		ldi r23,lo8(0)
 2604 0b08 630F      		add r22,r19
 2605 0b0a 711D      		adc r23,__zero_reg__
 2606 0b0c CA01      		movw r24,r20
 2607 0b0e 860F      		add r24,r22
 2608 0b10 971F      		adc r25,r23
 2609 0b12 8038      		cpi r24,128
 2610 0b14 9105      		cpc r25,__zero_reg__
 2611 0b16 04F0      		brlt .L272
 2612               	.LM398:
 2613 0b18 CA01      		movw r24,r20
 2614 0b1a 0E94 0000 		call __divmodhi4
 2615 0b1e 8093 0000 		sts x_offset,r24
 2616               	.LM399:
 2617 0b22 7091 0000 		lds r23,y_offset
 2618 0b26 6091 0000 		lds r22,font_h
 2619 0b2a 862F      		mov r24,r22
 2620 0b2c 90E0      		ldi r25,lo8(0)
 2621 0b2e 472F      		mov r20,r23
 2622 0b30 50E0      		ldi r21,lo8(0)
 2623 0b32 2227      		clr r18
 2624 0b34 3327      		clr r19
 2625 0b36 281B      		sub r18,r24
 2626 0b38 390B      		sbc r19,r25
 2627 0b3a 281B      		sub r18,r24
 2628 0b3c 390B      		sbc r19,r25
 2629 0b3e 205C      		subi r18,lo8(-(64))
 2630 0b40 3F4F      		sbci r19,hi8(-(64))
 2631 0b42 2417      		cp r18,r20
 2632 0b44 3507      		cpc r19,r21
 2633 0b46 04F0      		brlt .L277
 2634               	.LM400:
 2635 0b48 670F      		add r22,r23
 2636 0b4a 6093 0000 		sts y_offset,r22
 2637               	.L272:
 2638               	/* epilogue start */
 2639               	.LM401:
 2640 0b4e 0F91      		pop r16
 2641 0b50 FF90      		pop r15
 2642 0b52 EF90      		pop r14
 2643 0b54 0895      		ret
 2644               	.LVL236:
 2645               	.L260:
 2646               	.LM402:
 2647 0b56 8091 0000 		lds r24,reverse
 2648 0b5a 8130      		cpi r24,lo8(1)
 2649 0b5c 01F0      		breq .L266
 2650               	.LM403:
 2651 0b5e C901      		movw r24,r18
 2652 0b60 840F      		add r24,r20
 2653 0b62 951F      		adc r25,r21
 2654 0b64 2817      		cp r18,r24
 2655 0b66 3907      		cpc r19,r25
 2656 0b68 04F0      		brlt .+2
 2657 0b6a 00C0      		rjmp .L263
 2658               	.LM404:
 2659 0b6c 2050      		subi r18,lo8(-(aux_text_array))
 2660 0b6e 3040      		sbci r19,hi8(-(aux_text_array))
 2661               	.LVL237:
 2662 0b70 40E8      		ldi r20,lo8(-128)
 2663               	.LVL238:
 2664 0b72 BC01      		movw r22,r24
 2665 0b74 6050      		subi r22,lo8(-(aux_text_array))
 2666 0b76 7040      		sbci r23,hi8(-(aux_text_array))
 2667               	.L269:
 2668               	.LBB206:
 2669               	.LM405:
 2670 0b78 F901      		movw r30,r18
 2671               	/* #APP */
 2672               	 ;  1136 "main.c" 1
 2673 0b7a 8491      		lpm r24, Z
 2674               		
 2675               	 ;  0 "" 2
 2676               	.LVL239:
 2677               	/* #NOAPP */
 2678               	.LBE206:
 2679 0b7c E42F      		mov r30,r20
 2680 0b7e F0E0      		ldi r31,lo8(0)
 2681               	.LVL240:
 2682 0b80 E050      		subi r30,lo8(-(buffer))
 2683 0b82 F040      		sbci r31,hi8(-(buffer))
 2684               	.LVL241:
 2685 0b84 8083      		st Z,r24
 2686 0b86 4F5F      		subi r20,lo8(-(1))
 2687               	.LVL242:
 2688 0b88 2F5F      		subi r18,lo8(-(1))
 2689 0b8a 3F4F      		sbci r19,hi8(-(1))
 2690               	.LM406:
 2691 0b8c 2617      		cp r18,r22
 2692 0b8e 3707      		cpc r19,r23
 2693 0b90 01F4      		brne .L269
 2694 0b92 00C0      		rjmp .L263
 2695               	.LVL243:
 2696               	.L277:
 2697               	.LM407:
 2698 0b94 872F      		mov r24,r23
 2699 0b96 0E94 0000 		call __udivmodqi4
 2700 0b9a 9093 0000 		sts y_offset,r25
 2701               	.LM408:
 2702 0b9e 0F91      		pop r16
 2703 0ba0 FF90      		pop r15
 2704 0ba2 EF90      		pop r14
 2705 0ba4 0895      		ret
 2706               	.LVL244:
 2707               	.L266:
 2708               	.LM409:
 2709 0ba6 C901      		movw r24,r18
 2710 0ba8 840F      		add r24,r20
 2711 0baa 951F      		adc r25,r21
 2712 0bac 2817      		cp r18,r24
 2713 0bae 3907      		cpc r19,r25
 2714 0bb0 04F0      		brlt .+2
 2715 0bb2 00C0      		rjmp .L263
 2716 0bb4 2050      		subi r18,lo8(-(aux_text_array))
 2717 0bb6 3040      		sbci r19,hi8(-(aux_text_array))
 2718               	.LVL245:
 2719 0bb8 40E8      		ldi r20,lo8(-128)
 2720               	.LVL246:
 2721 0bba BC01      		movw r22,r24
 2722 0bbc 6050      		subi r22,lo8(-(aux_text_array))
 2723 0bbe 7040      		sbci r23,hi8(-(aux_text_array))
 2724               	.L268:
 2725               	.LBB207:
 2726               	.LM410:
 2727 0bc0 F901      		movw r30,r18
 2728               	/* #APP */
 2729               	 ;  1131 "main.c" 1
 2730 0bc2 8491      		lpm r24, Z
 2731               		
 2732               	 ;  0 "" 2
 2733               	.LVL247:
 2734               	/* #NOAPP */
 2735               	.LBE207:
 2736 0bc4 E42F      		mov r30,r20
 2737 0bc6 F0E0      		ldi r31,lo8(0)
 2738               	.LVL248:
 2739 0bc8 E050      		subi r30,lo8(-(buffer))
 2740 0bca F040      		sbci r31,hi8(-(buffer))
 2741               	.LVL249:
 2742 0bcc 8095      		com r24
 2743 0bce 8083      		st Z,r24
 2744 0bd0 4F5F      		subi r20,lo8(-(1))
 2745               	.LVL250:
 2746 0bd2 2F5F      		subi r18,lo8(-(1))
 2747 0bd4 3F4F      		sbci r19,hi8(-(1))
 2748               	.LM411:
 2749 0bd6 2617      		cp r18,r22
 2750 0bd8 3707      		cpc r19,r23
 2751 0bda 01F4      		brne .L268
 2752 0bdc 00C0      		rjmp .L263
 2753               	.LVL251:
 2754               	.L261:
 2755               	.LM412:
 2756 0bde C901      		movw r24,r18
 2757 0be0 840F      		add r24,r20
 2758 0be2 951F      		adc r25,r21
 2759 0be4 2817      		cp r18,r24
 2760 0be6 3907      		cpc r19,r25
 2761 0be8 04F0      		brlt .+2
 2762 0bea 00C0      		rjmp .L263
 2763 0bec 2050      		subi r18,lo8(-(text_array))
 2764 0bee 3040      		sbci r19,hi8(-(text_array))
 2765               	.LVL252:
 2766 0bf0 40E8      		ldi r20,lo8(-128)
 2767               	.LVL253:
 2768 0bf2 BC01      		movw r22,r24
 2769 0bf4 6050      		subi r22,lo8(-(text_array))
 2770 0bf6 7040      		sbci r23,hi8(-(text_array))
 2771               	.L264:
 2772               	.LBB208:
 2773               	.LM413:
 2774 0bf8 F901      		movw r30,r18
 2775               	/* #APP */
 2776               	 ;  1117 "main.c" 1
 2777 0bfa 8491      		lpm r24, Z
 2778               		
 2779               	 ;  0 "" 2
 2780               	.LVL254:
 2781               	/* #NOAPP */
 2782               	.LBE208:
 2783 0bfc E42F      		mov r30,r20
 2784 0bfe F0E0      		ldi r31,lo8(0)
 2785               	.LVL255:
 2786 0c00 E050      		subi r30,lo8(-(buffer))
 2787 0c02 F040      		sbci r31,hi8(-(buffer))
 2788               	.LVL256:
 2789 0c04 8095      		com r24
 2790 0c06 8083      		st Z,r24
 2791 0c08 4F5F      		subi r20,lo8(-(1))
 2792               	.LVL257:
 2793 0c0a 2F5F      		subi r18,lo8(-(1))
 2794 0c0c 3F4F      		sbci r19,hi8(-(1))
 2795               	.LM414:
 2796 0c0e 2617      		cp r18,r22
 2797 0c10 3707      		cpc r19,r23
 2798 0c12 01F4      		brne .L264
 2799 0c14 00C0      		rjmp .L263
 2800               	.LFE16:
 2802               	.global	read_byte
 2804               	read_byte:
 2805               	.LFB25:
 2806               	.LM415:
 2807               	.LVL258:
 2808 0c16 1F93      		push r17
 2809               	/* prologue: function */
 2810               	/* frame size = 0 */
 2811 0c18 162F      		mov r17,r22
 2812               	.LM416:
 2813 0c1a 8064      		ori r24,lo8(64)
 2814               	.LVL259:
 2815 0c1c 60E0      		ldi r22,lo8(0)
 2816               	.LVL260:
 2817 0c1e 0E94 0000 		call write_command_LCD
 2818               	.LM417:
 2819 0c22 812F      		mov r24,r17
 2820 0c24 0E94 0000 		call read_data_LCD
 2821               	/* epilogue start */
 2822               	.LM418:
 2823 0c28 1F91      		pop r17
 2824               	.LVL261:
 2825 0c2a 0895      		ret
 2826               	.LFE25:
 2828               	.global	pixel
 2830               	pixel:
 2831               	.LFB23:
 2832               	.LM419:
 2833               	.LVL262:
 2834 0c2c EF92      		push r14
 2835 0c2e FF92      		push r15
 2836 0c30 0F93      		push r16
 2837 0c32 1F93      		push r17
 2838               	/* prologue: function */
 2839               	/* frame size = 0 */
 2840 0c34 F82E      		mov r15,r24
 2841               	.LM420:
 2842 0c36 67FD      		sbrc r22,7
 2843 0c38 00C0      		rjmp .L287
 2844               	.LVL263:
 2845               	.LM421:
 2846 0c3a 4034      		cpi r20,lo8(64)
 2847 0c3c 00F0      		brlo .+2
 2848 0c3e 00C0      		rjmp .L287
 2849               	.LM422:
 2850 0c40 5FE3      		ldi r21,lo8(63)
 2851               	.LVL264:
 2852 0c42 541B      		sub r21,r20
 2853               	.LM423:
 2854 0c44 8091 0000 		lds r24,reverse
 2855 0c48 8130      		cpi r24,lo8(1)
 2856 0c4a 01F4      		brne .+2
 2857 0c4c 00C0      		rjmp .L288
 2858               	.L282:
 2859               	.LM424:
 2860 0c4e 6034      		cpi r22,lo8(64)
 2861 0c50 00F0      		brlo .+2
 2862 0c52 00C0      		rjmp .L289
 2863               	.LM425:
 2864 0c54 81E0      		ldi r24,lo8(1)
 2865 0c56 8093 0000 		sts temp_side.2447,r24
 2866 0c5a 6093 0000 		sts temp_x.2448,r22
 2867               	.L284:
 2868               	.LM426:
 2869 0c5e 952F      		mov r25,r21
 2870 0c60 9695      		lsr r25
 2871 0c62 9695      		lsr r25
 2872 0c64 9695      		lsr r25
 2873 0c66 87E0      		ldi r24,lo8(7)
 2874 0c68 891B      		sub r24,r25
 2875 0c6a 8093 0000 		sts temp_page.2446,r24
 2876               	.LM427:
 2877 0c6e 27E0      		ldi r18,lo8(7)
 2878 0c70 30E0      		ldi r19,hi8(7)
 2879 0c72 B901      		movw r22,r18
 2880               	.LVL265:
 2881 0c74 651B      		sub r22,r21
 2882 0c76 7109      		sbc r23,__zero_reg__
 2883 0c78 AB01      		movw r20,r22
 2884 0c7a 281B      		sub r18,r24
 2885 0c7c 3109      		sbc r19,__zero_reg__
 2886 0c7e 220F      		lsl r18
 2887 0c80 331F      		rol r19
 2888 0c82 220F      		lsl r18
 2889 0c84 331F      		rol r19
 2890 0c86 220F      		lsl r18
 2891 0c88 331F      		rol r19
 2892 0c8a 420F      		add r20,r18
 2893 0c8c 531F      		adc r21,r19
 2894 0c8e 21E0      		ldi r18,lo8(1)
 2895 0c90 30E0      		ldi r19,hi8(1)
 2896 0c92 00C0      		rjmp 2f
 2897 0c94 220F      	1:	lsl r18
 2898 0c96 331F      		rol r19
 2899 0c98 4A95      	2:	dec r20
 2900 0c9a 02F4      		brpl 1b
 2901 0c9c 122F      		mov r17,r18
 2902 0c9e 2093 0000 		sts temp_data1.2449,r18
 2903               	.LM428:
 2904 0ca2 886B      		ori r24,lo8(-72)
 2905 0ca4 60E0      		ldi r22,lo8(0)
 2906 0ca6 0E94 0000 		call write_command_LCD
 2907               	.LVL266:
 2908               	.LM429:
 2909 0caa 0091 0000 		lds r16,temp_x.2448
 2910 0cae E090 0000 		lds r14,temp_side.2447
 2911 0cb2 802F      		mov r24,r16
 2912 0cb4 6E2D      		mov r22,r14
 2913 0cb6 0E94 0000 		call read_byte
 2914 0cba 8093 0000 		sts temp_data2.2450,r24
 2915               	.LM430:
 2916 0cbe FF20      		tst r15
 2917 0cc0 01F4      		brne .L285
 2918               	.LM431:
 2919 0cc2 1095      		com r17
 2920               	.LM432:
 2921 0cc4 1823      		and r17,r24
 2922 0cc6 1093 0000 		sts temp_data1.2449,r17
 2923               	.L286:
 2924               	.LM433:
 2925 0cca 802F      		mov r24,r16
 2926 0ccc 8064      		ori r24,lo8(64)
 2927 0cce 60E0      		ldi r22,lo8(0)
 2928 0cd0 0E94 0000 		call write_command_LCD
 2929               	.LM434:
 2930 0cd4 8091 0000 		lds r24,temp_data1.2449
 2931 0cd8 6E2D      		mov r22,r14
 2932 0cda 0E94 0000 		call write_data_LCD
 2933               	.LVL267:
 2934               	.L287:
 2935               	/* epilogue start */
 2936               	.LM435:
 2937 0cde 1F91      		pop r17
 2938 0ce0 0F91      		pop r16
 2939 0ce2 FF90      		pop r15
 2940               	.LVL268:
 2941 0ce4 EF90      		pop r14
 2942 0ce6 0895      		ret
 2943               	.LVL269:
 2944               	.L289:
 2945               	.LM436:
 2946 0ce8 82E0      		ldi r24,lo8(2)
 2947 0cea 8093 0000 		sts temp_side.2447,r24
 2948 0cee 6054      		subi r22,lo8(-(-64))
 2949               	.LVL270:
 2950 0cf0 6093 0000 		sts temp_x.2448,r22
 2951 0cf4 00C0      		rjmp .L284
 2952               	.LVL271:
 2953               	.L285:
 2954               	.LM437:
 2955 0cf6 182B      		or r17,r24
 2956 0cf8 1093 0000 		sts temp_data1.2449,r17
 2957 0cfc 00C0      		rjmp .L286
 2958               	.LVL272:
 2959               	.L288:
 2960               	.LM438:
 2961 0cfe F826      		eor r15,r24
 2962 0d00 00C0      		rjmp .L282
 2963               	.LFE23:
 2965               	.global	line
 2967               	line:
 2968               	.LFB24:
 2969               	.LM439:
 2970               	.LVL273:
 2971 0d02 4F92      		push r4
 2972 0d04 5F92      		push r5
 2973 0d06 6F92      		push r6
 2974 0d08 7F92      		push r7
 2975 0d0a 8F92      		push r8
 2976 0d0c 9F92      		push r9
 2977 0d0e AF92      		push r10
 2978 0d10 BF92      		push r11
 2979 0d12 CF92      		push r12
 2980 0d14 DF92      		push r13
 2981 0d16 EF92      		push r14
 2982 0d18 FF92      		push r15
 2983 0d1a 0F93      		push r16
 2984               	.LVL274:
 2985 0d1c 1F93      		push r17
 2986 0d1e CF93      		push r28
 2987 0d20 DF93      		push r29
 2988               	/* prologue: function */
 2989               	/* frame size = 0 */
 2990 0d22 482E      		mov r4,r24
 2991 0d24 A42F      		mov r26,r20
 2992 0d26 722F      		mov r23,r18
 2993               	.LM440:
 2994 0d28 402F      		mov r20,r16
 2995               	.LVL275:
 2996 0d2a 50E0      		ldi r21,lo8(0)
 2997               	.LVL276:
 2998 0d2c EA2F      		mov r30,r26
 2999               	.LVL277:
 3000 0d2e F0E0      		ldi r31,lo8(0)
 3001               	.LVL278:
 3002 0d30 E22E      		mov r14,r18
 3003               	.LVL279:
 3004 0d32 FF24      		clr r15
 3005               	.LVL280:
 3006 0d34 A62E      		mov r10,r22
 3007               	.LVL281:
 3008 0d36 BB24      		clr r11
 3009               	.LVL282:
 3010 0d38 5524      		clr r5
 3011               	.LVL283:
 3012 0d3a 9A01      		movw r18,r20
 3013               	.LVL284:
 3014 0d3c 2E1B      		sub r18,r30
 3015 0d3e 3F0B      		sbc r19,r31
 3016 0d40 37FD      		sbrc r19,7
 3017 0d42 00C0      		rjmp .L308
 3018               	.LVL285:
 3019 0d44 C701      		movw r24,r14
 3020 0d46 8A19      		sub r24,r10
 3021 0d48 9B09      		sbc r25,r11
 3022 0d4a 97FD      		sbrc r25,7
 3023 0d4c 00C0      		rjmp .L309
 3024               	.LVL286:
 3025               	.L293:
 3026 0d4e 8217      		cp r24,r18
 3027 0d50 9307      		cpc r25,r19
 3028 0d52 04F4      		brge .L294
 3029 0d54 5524      		clr r5
 3030 0d56 5394      		inc r5
 3031               	.LM441:
 3032 0d58 8A2F      		mov r24,r26
 3033 0d5a A62F      		mov r26,r22
 3034 0d5c 682F      		mov r22,r24
 3035               	.LVL287:
 3036 0d5e 802F      		mov r24,r16
 3037 0d60 072F      		mov r16,r23
 3038 0d62 782F      		mov r23,r24
 3039 0d64 CF01      		movw r24,r30
 3040 0d66 F501      		movw r30,r10
 3041 0d68 5C01      		movw r10,r24
 3042 0d6a CA01      		movw r24,r20
 3043 0d6c A701      		movw r20,r14
 3044 0d6e 7C01      		movw r14,r24
 3045               	.LVL288:
 3046               	.L294:
 3047               	.LM442:
 3048 0d70 7617      		cp r23,r22
 3049 0d72 00F4      		brsh .+2
 3050 0d74 00C0      		rjmp .L295
 3051 0d76 C701      		movw r24,r14
 3052               	.LVL289:
 3053 0d78 7501      		movw r14,r10
 3054 0d7a 5C01      		movw r10,r24
 3055 0d7c CA01      		movw r24,r20
 3056 0d7e AF01      		movw r20,r30
 3057 0d80 FC01      		movw r30,r24
 3058               	.LM443:
 3059 0d82 6F01      		movw r12,r30
 3060               	.LVL290:
 3061 0d84 C41A      		sub r12,r20
 3062 0d86 D50A      		sbc r13,r21
 3063 0d88 D7FC      		sbrc r13,7
 3064 0d8a 00C0      		rjmp .L310
 3065               	.LVL291:
 3066               	.L297:
 3067               	.LM444:
 3068 0d8c A017      		cp r26,r16
 3069 0d8e 00F4      		brsh .+2
 3070 0d90 00C0      		rjmp .L298
 3071               	.L314:
 3072 0d92 6624      		clr r6
 3073 0d94 6A94      		dec r6
 3074 0d96 762C      		mov r7,r6
 3075               	.LVL292:
 3076               	.L299:
 3077               	.LM445:
 3078 0d98 AE14      		cp r10,r14
 3079 0d9a BF04      		cpc r11,r15
 3080 0d9c 04F0      		brlt .L306
 3081               	.LVL293:
 3082               	.LM446:
 3083 0d9e 4501      		movw r8,r10
 3084               	.LVL294:
 3085 0da0 8E18      		sub r8,r14
 3086 0da2 9F08      		sbc r9,r15
 3087               	.LM447:
 3088 0da4 C401      		movw r24,r8
 3089 0da6 97FC      		sbrc r9,7
 3090 0da8 00C0      		rjmp .L311
 3091               	.LVL295:
 3092               	.L301:
 3093 0daa EC01      		movw r28,r24
 3094               	.LVL296:
 3095 0dac D595      		asr r29
 3096 0dae C795      		ror r28
 3097 0db0 8A01      		movw r16,r20
 3098               	.LVL297:
 3099 0db2 00C0      		rjmp .L305
 3100               	.LVL298:
 3101               	.L313:
 3102               	.LM448:
 3103 0db4 842D      		mov r24,r4
 3104               	.LVL299:
 3105 0db6 602F      		mov r22,r16
 3106               	.LVL300:
 3107 0db8 4E2D      		mov r20,r14
 3108               	.LVL301:
 3109 0dba 0E94 0000 		call pixel
 3110               	.LVL302:
 3111               	.LM449:
 3112 0dbe CC19      		sub r28,r12
 3113 0dc0 DD09      		sbc r29,r13
 3114               	.LM450:
 3115 0dc2 D7FD      		sbrc r29,7
 3116 0dc4 00C0      		rjmp .L312
 3117               	.L304:
 3118               	.LM451:
 3119 0dc6 0894      		sec
 3120 0dc8 E11C      		adc r14,__zero_reg__
 3121 0dca F11C      		adc r15,__zero_reg__
 3122               	.LVL303:
 3123 0dcc AE14      		cp r10,r14
 3124 0dce BF04      		cpc r11,r15
 3125 0dd0 04F0      		brlt .L306
 3126               	.LVL304:
 3127               	.L305:
 3128               	.LM452:
 3129 0dd2 5520      		tst r5
 3130 0dd4 01F4      		brne .L313
 3131               	.LVL305:
 3132 0dd6 842D      		mov r24,r4
 3133               	.LVL306:
 3134 0dd8 6E2D      		mov r22,r14
 3135               	.LVL307:
 3136 0dda 402F      		mov r20,r16
 3137               	.LVL308:
 3138 0ddc 0E94 0000 		call pixel
 3139               	.LVL309:
 3140               	.LM453:
 3141 0de0 CC19      		sub r28,r12
 3142 0de2 DD09      		sbc r29,r13
 3143               	.LM454:
 3144 0de4 D7FF      		sbrs r29,7
 3145 0de6 00C0      		rjmp .L304
 3146               	.L312:
 3147               	.LM455:
 3148 0de8 060D      		add r16,r6
 3149 0dea 171D      		adc r17,r7
 3150               	.LM456:
 3151 0dec C80D      		add r28,r8
 3152 0dee D91D      		adc r29,r9
 3153               	.LM457:
 3154 0df0 0894      		sec
 3155 0df2 E11C      		adc r14,__zero_reg__
 3156 0df4 F11C      		adc r15,__zero_reg__
 3157               	.LVL310:
 3158 0df6 AE14      		cp r10,r14
 3159 0df8 BF04      		cpc r11,r15
 3160 0dfa 04F4      		brge .L305
 3161               	.LVL311:
 3162               	.L306:
 3163               	/* epilogue start */
 3164               	.LM458:
 3165 0dfc DF91      		pop r29
 3166 0dfe CF91      		pop r28
 3167               	.LVL312:
 3168 0e00 1F91      		pop r17
 3169 0e02 0F91      		pop r16
 3170               	.LVL313:
 3171 0e04 FF90      		pop r15
 3172 0e06 EF90      		pop r14
 3173               	.LVL314:
 3174 0e08 DF90      		pop r13
 3175 0e0a CF90      		pop r12
 3176               	.LVL315:
 3177 0e0c BF90      		pop r11
 3178               	.LVL316:
 3179 0e0e AF90      		pop r10
 3180               	.LVL317:
 3181 0e10 9F90      		pop r9
 3182 0e12 8F90      		pop r8
 3183               	.LVL318:
 3184 0e14 7F90      		pop r7
 3185 0e16 6F90      		pop r6
 3186               	.LVL319:
 3187 0e18 5F90      		pop r5
 3188               	.LVL320:
 3189 0e1a 4F90      		pop r4
 3190               	.LVL321:
 3191 0e1c 0895      		ret
 3192               	.LVL322:
 3193               	.L295:
 3194               	.LM459:
 3195 0e1e 802F      		mov r24,r16
 3196 0e20 0A2F      		mov r16,r26
 3197 0e22 A82F      		mov r26,r24
 3198               	.LM460:
 3199 0e24 6F01      		movw r12,r30
 3200               	.LVL323:
 3201 0e26 C41A      		sub r12,r20
 3202 0e28 D50A      		sbc r13,r21
 3203 0e2a D7FE      		sbrs r13,7
 3204 0e2c 00C0      		rjmp .L297
 3205               	.LVL324:
 3206               	.L310:
 3207 0e2e D094      		com r13
 3208 0e30 C194      		neg r12
 3209 0e32 D108      		sbc r13,__zero_reg__
 3210 0e34 D394      		inc r13
 3211               	.LM461:
 3212 0e36 A017      		cp r26,r16
 3213 0e38 00F0      		brlo .+2
 3214 0e3a 00C0      		rjmp .L314
 3215               	.L298:
 3216 0e3c A1E0      		ldi r26,lo8(1)
 3217 0e3e 6A2E      		mov r6,r26
 3218 0e40 712C      		mov r7,__zero_reg__
 3219               	.LVL325:
 3220 0e42 00C0      		rjmp .L299
 3221               	.LVL326:
 3222               	.L308:
 3223               	.LM462:
 3224 0e44 3095      		com r19
 3225 0e46 2195      		neg r18
 3226 0e48 3F4F      		sbci r19,lo8(-1)
 3227 0e4a C701      		movw r24,r14
 3228 0e4c 8A19      		sub r24,r10
 3229 0e4e 9B09      		sbc r25,r11
 3230 0e50 97FF      		sbrs r25,7
 3231 0e52 00C0      		rjmp .L293
 3232               	.LVL327:
 3233               	.L309:
 3234 0e54 9095      		com r25
 3235 0e56 8195      		neg r24
 3236 0e58 9F4F      		sbci r25,lo8(-1)
 3237 0e5a 00C0      		rjmp .L293
 3238               	.LVL328:
 3239               	.L311:
 3240               	.LM463:
 3241 0e5c 0196      		adiw r24,1
 3242               	.LVL329:
 3243 0e5e 00C0      		rjmp .L301
 3244               	.LFE24:
 3246               	.global	circle
 3248               	circle:
 3249               	.LFB26:
 3250               	.LM464:
 3251               	.LVL330:
 3252 0e60 2F92      		push r2
 3253 0e62 3F92      		push r3
 3254 0e64 4F92      		push r4
 3255 0e66 5F92      		push r5
 3256 0e68 6F92      		push r6
 3257 0e6a 7F92      		push r7
 3258 0e6c 8F92      		push r8
 3259 0e6e 9F92      		push r9
 3260 0e70 AF92      		push r10
 3261 0e72 BF92      		push r11
 3262 0e74 CF92      		push r12
 3263 0e76 DF92      		push r13
 3264 0e78 EF92      		push r14
 3265 0e7a FF92      		push r15
 3266 0e7c 0F93      		push r16
 3267 0e7e 1F93      		push r17
 3268 0e80 CF93      		push r28
 3269 0e82 DF93      		push r29
 3270               	/* prologue: function */
 3271               	/* frame size = 0 */
 3272 0e84 C82E      		mov r12,r24
 3273 0e86 462E      		mov r4,r22
 3274 0e88 542E      		mov r5,r20
 3275 0e8a 7901      		movw r14,r18
 3276               	.LM465:
 3277 0e8c 422F      		mov r20,r18
 3278               	.LVL331:
 3279 0e8e 450D      		add r20,r5
 3280 0e90 0E94 0000 		call pixel
 3281               	.LVL332:
 3282               	.LM466:
 3283 0e94 452D      		mov r20,r5
 3284 0e96 4E19      		sub r20,r14
 3285               	.LVL333:
 3286 0e98 8C2D      		mov r24,r12
 3287 0e9a 642D      		mov r22,r4
 3288 0e9c 0E94 0000 		call pixel
 3289               	.LM467:
 3290 0ea0 6E2D      		mov r22,r14
 3291 0ea2 640D      		add r22,r4
 3292 0ea4 8C2D      		mov r24,r12
 3293 0ea6 452D      		mov r20,r5
 3294 0ea8 0E94 0000 		call pixel
 3295               	.LM468:
 3296 0eac 642D      		mov r22,r4
 3297 0eae 6E19      		sub r22,r14
 3298 0eb0 8C2D      		mov r24,r12
 3299 0eb2 452D      		mov r20,r5
 3300 0eb4 0E94 0000 		call pixel
 3301               	.LM469:
 3302 0eb8 1E14      		cp __zero_reg__,r14
 3303 0eba 1F04      		cpc __zero_reg__,r15
 3304               	.LVL334:
 3305 0ebc 04F0      		brlt .+2
 3306 0ebe 00C0      		rjmp .L319
 3307               	.LM470:
 3308 0ec0 C1E0      		ldi r28,lo8(1)
 3309 0ec2 D0E0      		ldi r29,hi8(1)
 3310               	.LVL335:
 3311 0ec4 CE19      		sub r28,r14
 3312 0ec6 DF09      		sbc r29,r15
 3313               	.LM471:
 3314 0ec8 C701      		movw r24,r14
 3315 0eca 880F      		lsl r24
 3316 0ecc 991F      		rol r25
 3317 0ece 2224      		clr r2
 3318 0ed0 3324      		clr r3
 3319 0ed2 281A      		sub r2,r24
 3320 0ed4 390A      		sbc r3,r25
 3321               	.LVL336:
 3322 0ed6 4701      		movw r8,r14
 3323               	.LVL337:
 3324 0ed8 B1E0      		ldi r27,lo8(1)
 3325 0eda 6B2E      		mov r6,r27
 3326 0edc 712C      		mov r7,__zero_reg__
 3327               	.LVL338:
 3328 0ede AA24      		clr r10
 3329 0ee0 BB24      		clr r11
 3330               	.LVL339:
 3331 0ee2 00C0      		rjmp .L318
 3332               	.LVL340:
 3333               	.L320:
 3334               	.LM472:
 3335 0ee4 82E0      		ldi r24,lo8(2)
 3336 0ee6 90E0      		ldi r25,hi8(2)
 3337 0ee8 680E      		add r6,r24
 3338 0eea 791E      		adc r7,r25
 3339               	.LM473:
 3340 0eec C60D      		add r28,r6
 3341 0eee D71D      		adc r29,r7
 3342               	.LVL341:
 3343               	.L318:
 3344               	.LM474:
 3345 0ef0 D7FD      		sbrc r29,7
 3346 0ef2 00C0      		rjmp .L317
 3347               	.LM475:
 3348 0ef4 0894      		sec
 3349 0ef6 8108      		sbc r8,__zero_reg__
 3350 0ef8 9108      		sbc r9,__zero_reg__
 3351               	.LM476:
 3352 0efa 82E0      		ldi r24,lo8(2)
 3353 0efc 90E0      		ldi r25,hi8(2)
 3354 0efe 280E      		add r2,r24
 3355 0f00 391E      		adc r3,r25
 3356               	.LM477:
 3357 0f02 C20D      		add r28,r2
 3358 0f04 D31D      		adc r29,r3
 3359               	.L317:
 3360               	.LM478:
 3361 0f06 0894      		sec
 3362 0f08 A11C      		adc r10,__zero_reg__
 3363 0f0a B11C      		adc r11,__zero_reg__
 3364               	.LM479:
 3365 0f0c DA2C      		mov r13,r10
 3366               	.LVL342:
 3367 0f0e D40C      		add r13,r4
 3368               	.LM480:
 3369 0f10 182D      		mov r17,r8
 3370               	.LVL343:
 3371 0f12 150D      		add r17,r5
 3372 0f14 8C2D      		mov r24,r12
 3373 0f16 6D2D      		mov r22,r13
 3374 0f18 412F      		mov r20,r17
 3375 0f1a 0E94 0000 		call pixel
 3376 0f1e E42C      		mov r14,r4
 3377               	.LVL344:
 3378 0f20 EA18      		sub r14,r10
 3379               	.LM481:
 3380 0f22 8C2D      		mov r24,r12
 3381 0f24 6E2D      		mov r22,r14
 3382 0f26 412F      		mov r20,r17
 3383 0f28 0E94 0000 		call pixel
 3384               	.LM482:
 3385 0f2c 152D      		mov r17,r5
 3386 0f2e 1819      		sub r17,r8
 3387 0f30 8C2D      		mov r24,r12
 3388 0f32 6D2D      		mov r22,r13
 3389 0f34 412F      		mov r20,r17
 3390 0f36 0E94 0000 		call pixel
 3391               	.LM483:
 3392 0f3a 8C2D      		mov r24,r12
 3393 0f3c 6E2D      		mov r22,r14
 3394 0f3e 412F      		mov r20,r17
 3395 0f40 0E94 0000 		call pixel
 3396               	.LM484:
 3397 0f44 E82C      		mov r14,r8
 3398 0f46 E40C      		add r14,r4
 3399 0f48 1A2D      		mov r17,r10
 3400 0f4a 150D      		add r17,r5
 3401 0f4c 8C2D      		mov r24,r12
 3402 0f4e 6E2D      		mov r22,r14
 3403 0f50 412F      		mov r20,r17
 3404 0f52 0E94 0000 		call pixel
 3405               	.LM485:
 3406 0f56 942D      		mov r25,r4
 3407 0f58 9819      		sub r25,r8
 3408 0f5a 092F      		mov r16,r25
 3409 0f5c 8C2D      		mov r24,r12
 3410 0f5e 692F      		mov r22,r25
 3411 0f60 412F      		mov r20,r17
 3412 0f62 0E94 0000 		call pixel
 3413 0f66 152D      		mov r17,r5
 3414 0f68 1A19      		sub r17,r10
 3415               	.LM486:
 3416 0f6a 8C2D      		mov r24,r12
 3417 0f6c 6E2D      		mov r22,r14
 3418 0f6e 412F      		mov r20,r17
 3419 0f70 0E94 0000 		call pixel
 3420               	.LM487:
 3421 0f74 8C2D      		mov r24,r12
 3422 0f76 602F      		mov r22,r16
 3423 0f78 412F      		mov r20,r17
 3424 0f7a 0E94 0000 		call pixel
 3425               	.LM488:
 3426 0f7e A814      		cp r10,r8
 3427 0f80 B904      		cpc r11,r9
 3428               	.LVL345:
 3429 0f82 04F4      		brge .+2
 3430 0f84 00C0      		rjmp .L320
 3431               	.LVL346:
 3432               	.L319:
 3433               	/* epilogue start */
 3434               	.LM489:
 3435 0f86 DF91      		pop r29
 3436 0f88 CF91      		pop r28
 3437               	.LVL347:
 3438 0f8a 1F91      		pop r17
 3439 0f8c 0F91      		pop r16
 3440 0f8e FF90      		pop r15
 3441 0f90 EF90      		pop r14
 3442               	.LVL348:
 3443 0f92 DF90      		pop r13
 3444 0f94 CF90      		pop r12
 3445               	.LVL349:
 3446 0f96 BF90      		pop r11
 3447 0f98 AF90      		pop r10
 3448               	.LVL350:
 3449 0f9a 9F90      		pop r9
 3450 0f9c 8F90      		pop r8
 3451               	.LVL351:
 3452 0f9e 7F90      		pop r7
 3453 0fa0 6F90      		pop r6
 3454               	.LVL352:
 3455 0fa2 5F90      		pop r5
 3456               	.LVL353:
 3457 0fa4 4F90      		pop r4
 3458               	.LVL354:
 3459 0fa6 3F90      		pop r3
 3460 0fa8 2F90      		pop r2
 3461               	.LVL355:
 3462 0faa 0895      		ret
 3463               	.LFE26:
 3465               	.global	EEPROM_write
 3467               	EEPROM_write:
 3468               	.LFB27:
 3469               	.LM490:
 3470               	/* prologue: function */
 3471               	/* frame size = 0 */
 3472               	.LVL356:
 3473               	.L322:
 3474               	.LM491:
 3475 0fac F999      		sbic 63-32,1
 3476 0fae 00C0      		rjmp .L322
 3477               	.LM492:
 3478 0fb0 92BD      		out (65)+1-32,r25
 3479 0fb2 81BD      		out 65-32,r24
 3480               	.LM493:
 3481 0fb4 60BD      		out 64-32,r22
 3482               	.LM494:
 3483 0fb6 FA9A      		sbi 63-32,2
 3484               	.LM495:
 3485 0fb8 F99A      		sbi 63-32,1
 3486               	/* epilogue start */
 3487               	.LM496:
 3488 0fba 0895      		ret
 3489               	.LFE27:
 3491               	.global	EEPROM_read
 3493               	EEPROM_read:
 3494               	.LFB28:
 3495               	.LM497:
 3496               	/* prologue: function */
 3497               	/* frame size = 0 */
 3498               	.LVL357:
 3499               	.L326:
 3500               	.LM498:
 3501 0fbc F999      		sbic 63-32,1
 3502 0fbe 00C0      		rjmp .L326
 3503               	.LM499:
 3504 0fc0 92BD      		out (65)+1-32,r25
 3505 0fc2 81BD      		out 65-32,r24
 3506               	.LM500:
 3507 0fc4 F89A      		sbi 63-32,0
 3508               	.LM501:
 3509 0fc6 80B5      		in r24,64-32
 3510               	.LVL358:
 3511               	/* epilogue start */
 3512               	.LM502:
 3513 0fc8 0895      		ret
 3514               	.LFE28:
 3516               	.global	set_backlight
 3518               	set_backlight:
 3519               	.LFB29:
 3520               	.LM503:
 3521               	.LVL359:
 3522               	/* prologue: function */
 3523               	/* frame size = 0 */
 3524               	.LM504:
 3525 0fca 22E0      		ldi r18,lo8(2)
 3526 0fcc 24BD      		out 68-32,r18
 3527               	.LM505:
 3528 0fce 9091 0000 		lds r25,BL_dutycycle
 3529 0fd2 9436      		cpi r25,lo8(100)
 3530 0fd4 00F4      		brsh .L334
 3531               	.LM506:
 3532 0fd6 9923      		tst r25
 3533 0fd8 01F0      		breq .L335
 3534               	.LM507:
 3535 0fda 15BC      		out 69-32,__zero_reg__
 3536               	.LM508:
 3537 0fdc 1092 6E00 		sts 110,__zero_reg__
 3538               	.LM509:
 3539 0fe0 84E6      		ldi r24,lo8(100)
 3540               	.LVL360:
 3541 0fe2 891B      		sub r24,r25
 3542 0fe4 87BD      		out 71-32,r24
 3543               	.LM510:
 3544 0fe6 2093 6E00 		sts 110,r18
 3545               	.LM511:
 3546 0fea 25BD      		out 69-32,r18
 3547               	.LM512:
 3548 0fec 8FB7      		in r24,__SREG__
 3549 0fee 8068      		ori r24,lo8(-128)
 3550 0ff0 8FBF      		out __SREG__,r24
 3551 0ff2 0895      		ret
 3552               	.LVL361:
 3553               	.L335:
 3554               	.LM513:
 3555 0ff4 15BC      		out 69-32,__zero_reg__
 3556               	.LM514:
 3557 0ff6 1092 6E00 		sts 110,__zero_reg__
 3558               	.LM515:
 3559 0ffa 2A9A      		sbi 37-32,2
 3560 0ffc 0895      		ret
 3561               	.L334:
 3562               	.LM516:
 3563 0ffe 15BC      		out 69-32,__zero_reg__
 3564               	.LM517:
 3565 1000 1092 6E00 		sts 110,__zero_reg__
 3566               	.LM518:
 3567 1004 2A98      		cbi 37-32,2
 3568 1006 0895      		ret
 3569               	.LFE29:
 3571               	.global	draw_block
 3573               	draw_block:
 3574               	.LFB31:
 3575               	.LM519:
 3576               	.LVL362:
 3577 1008 EF92      		push r14
 3578 100a FF92      		push r15
 3579 100c 0F93      		push r16
 3580               	.LVL363:
 3581 100e DF93      		push r29
 3582 1010 CF93      		push r28
 3583 1012 0F92      		push __tmp_reg__
 3584 1014 CDB7      		in r28,__SP_L__
 3585 1016 DEB7      		in r29,__SP_H__
 3586               	/* prologue: function */
 3587               	/* frame size = 1 */
 3588 1018 522F      		mov r21,r18
 3589               	.LM520:
 3590 101a 4817      		cp r20,r24
 3591 101c 00F4      		brsh .L337
 3592               	.LVL364:
 3593               	.LM521:
 3594 101e 242F      		mov r18,r20
 3595 1020 30E0      		ldi r19,lo8(0)
 3596 1022 90E0      		ldi r25,lo8(0)
 3597               	.LVL365:
 3598 1024 821B      		sub r24,r18
 3599 1026 930B      		sbc r25,r19
 3600               	.LVL366:
 3601 1028 9093 0000 		sts (width.2627)+1,r25
 3602 102c 8093 0000 		sts width.2627,r24
 3603               	.LM522:
 3604 1030 3093 0000 		sts (x.2629)+1,r19
 3605 1034 2093 0000 		sts x.2629,r18
 3606               	.LM523:
 3607 1038 5617      		cp r21,r22
 3608 103a 00F0      		brlo .L342
 3609               	.LVL367:
 3610               	.L339:
 3611               	.LM524:
 3612 103c 262F      		mov r18,r22
 3613 103e 30E0      		ldi r19,lo8(0)
 3614 1040 852F      		mov r24,r21
 3615               	.LVL368:
 3616 1042 90E0      		ldi r25,lo8(0)
 3617               	.LVL369:
 3618 1044 821B      		sub r24,r18
 3619 1046 930B      		sbc r25,r19
 3620               	.LVL370:
 3621 1048 9093 0000 		sts (height.2628)+1,r25
 3622 104c 8093 0000 		sts height.2628,r24
 3623               	.LM525:
 3624 1050 3093 0000 		sts (y.2630)+1,r19
 3625 1054 2093 0000 		sts y.2630,r18
 3626               	.LVL371:
 3627               	.L340:
 3628               	.LM526:
 3629 1058 8091 0000 		lds r24,x.2629
 3630               	.LVL372:
 3631 105c 6091 0000 		lds r22,y.2630
 3632               	.LVL373:
 3633 1060 4091 0000 		lds r20,width.2627
 3634               	.LVL374:
 3635 1064 2091 0000 		lds r18,height.2628
 3636               	.LM527:
 3637 1068 0983      		std Y+1,r16
 3638               	.LVL375:
 3639               	.LM528:
 3640 106a 06E0      		ldi r16,lo8(6)
 3641               	.LVL376:
 3642 106c 7E01      		movw r14,r28
 3643 106e 0894      		sec
 3644 1070 E11C      		adc r14,__zero_reg__
 3645 1072 F11C      		adc r15,__zero_reg__
 3646 1074 0E94 0000 		call bitblt
 3647               	.LVL377:
 3648               	/* epilogue start */
 3649               	.LM529:
 3650 1078 0F90      		pop __tmp_reg__
 3651 107a CF91      		pop r28
 3652 107c DF91      		pop r29
 3653 107e 0F91      		pop r16
 3654 1080 FF90      		pop r15
 3655 1082 EF90      		pop r14
 3656 1084 0895      		ret
 3657               	.LVL378:
 3658               	.L337:
 3659               	.LM530:
 3660 1086 282F      		mov r18,r24
 3661 1088 30E0      		ldi r19,lo8(0)
 3662 108a 842F      		mov r24,r20
 3663               	.LVL379:
 3664 108c 90E0      		ldi r25,lo8(0)
 3665               	.LVL380:
 3666 108e 821B      		sub r24,r18
 3667 1090 930B      		sbc r25,r19
 3668               	.LVL381:
 3669 1092 9093 0000 		sts (width.2627)+1,r25
 3670 1096 8093 0000 		sts width.2627,r24
 3671               	.LM531:
 3672 109a 3093 0000 		sts (x.2629)+1,r19
 3673 109e 2093 0000 		sts x.2629,r18
 3674               	.LM532:
 3675 10a2 5617      		cp r21,r22
 3676 10a4 00F4      		brsh .L339
 3677               	.LVL382:
 3678               	.L342:
 3679               	.LM533:
 3680 10a6 252F      		mov r18,r21
 3681 10a8 30E0      		ldi r19,lo8(0)
 3682 10aa 862F      		mov r24,r22
 3683               	.LVL383:
 3684 10ac 90E0      		ldi r25,lo8(0)
 3685               	.LVL384:
 3686 10ae 821B      		sub r24,r18
 3687 10b0 930B      		sbc r25,r19
 3688               	.LVL385:
 3689 10b2 9093 0000 		sts (height.2628)+1,r25
 3690 10b6 8093 0000 		sts height.2628,r24
 3691               	.LM534:
 3692 10ba 3093 0000 		sts (y.2630)+1,r19
 3693 10be 2093 0000 		sts y.2630,r18
 3694 10c2 00C0      		rjmp .L340
 3695               	.LFE31:
 3697               	.global	del_char
 3699               	del_char:
 3700               	.LFB30:
 3701               	.LM535:
 3702 10c4 0F93      		push r16
 3703               	/* prologue: function */
 3704               	/* frame size = 0 */
 3705               	.LM536:
 3706 10c6 3091 0000 		lds r19,x_offset
 3707 10ca 4091 0000 		lds r20,font_w
 3708 10ce 4317      		cp r20,r19
 3709 10d0 00F0      		brlo .L344
 3710               	.LM537:
 3711 10d2 242F      		mov r18,r20
 3712 10d4 2095      		com r18
 3713 10d6 2058      		subi r18,lo8(-(-128))
 3714 10d8 642F      		mov r22,r20
 3715 10da 70E0      		ldi r23,lo8(0)
 3716 10dc 6F5F      		subi r22,lo8(-(1))
 3717 10de 7F4F      		sbci r23,hi8(-(1))
 3718 10e0 80E8      		ldi r24,lo8(128)
 3719 10e2 90E0      		ldi r25,hi8(128)
 3720 10e4 831B      		sub r24,r19
 3721 10e6 9109      		sbc r25,__zero_reg__
 3722 10e8 0E94 0000 		call __divmodhi4
 3723 10ec 281B      		sub r18,r24
 3724 10ee 2093 0000 		sts x_offset,r18
 3725               	.LM538:
 3726 10f2 5091 0000 		lds r21,y_offset
 3727 10f6 3091 0000 		lds r19,font_h
 3728 10fa 5317      		cp r21,r19
 3729 10fc 00F4      		brsh .L345
 3730               	.LM539:
 3731 10fe 232F      		mov r18,r19
 3732 1100 2195      		neg r18
 3733 1102 205C      		subi r18,lo8(-(64))
 3734 1104 80E4      		ldi r24,lo8(64)
 3735 1106 90E0      		ldi r25,hi8(64)
 3736 1108 851B      		sub r24,r21
 3737 110a 9109      		sbc r25,__zero_reg__
 3738 110c 632F      		mov r22,r19
 3739 110e 70E0      		ldi r23,lo8(0)
 3740 1110 0E94 0000 		call __divmodhi4
 3741 1114 281B      		sub r18,r24
 3742 1116 2093 0000 		sts y_offset,r18
 3743               	.LM540:
 3744 111a 8091 0000 		lds r24,reverse
 3745 111e 8130      		cpi r24,lo8(1)
 3746 1120 01F4      		brne .L347
 3747               	.L350:
 3748 1122 0FEF      		ldi r16,lo8(-1)
 3749               	.LVL386:
 3750 1124 00C0      		rjmp .L348
 3751               	.LVL387:
 3752               	.L344:
 3753               	.LM541:
 3754 1126 842F      		mov r24,r20
 3755 1128 8095      		com r24
 3756 112a 830F      		add r24,r19
 3757 112c 8093 0000 		sts x_offset,r24
 3758 1130 3091 0000 		lds r19,font_h
 3759               	.L346:
 3760               	.LM542:
 3761 1134 8091 0000 		lds r24,reverse
 3762 1138 8130      		cpi r24,lo8(1)
 3763 113a 01F0      		breq .L350
 3764               	.L347:
 3765 113c 00E0      		ldi r16,lo8(0)
 3766               	.LVL388:
 3767               	.L348:
 3768               	.LM543:
 3769 113e 8091 0000 		lds r24,x_offset
 3770 1142 6091 0000 		lds r22,y_offset
 3771 1146 480F      		add r20,r24
 3772 1148 360F      		add r19,r22
 3773 114a 3150      		subi r19,lo8(-(-1))
 3774 114c 232F      		mov r18,r19
 3775 114e 0E94 0000 		call draw_block
 3776               	/* epilogue start */
 3777               	.LM544:
 3778 1152 0F91      		pop r16
 3779               	.LVL389:
 3780 1154 0895      		ret
 3781               	.L345:
 3782               	.LM545:
 3783 1156 531B      		sub r21,r19
 3784 1158 5093 0000 		sts y_offset,r21
 3785 115c 00C0      		rjmp .L346
 3786               	.LFE30:
 3788               	.global	box
 3790               	box:
 3791               	.LFB32:
 3792               	.LM546:
 3793               	.LVL390:
 3794 115e DF92      		push r13
 3795 1160 EF92      		push r14
 3796 1162 FF92      		push r15
 3797 1164 0F93      		push r16
 3798               	.LVL391:
 3799 1166 1F93      		push r17
 3800               	/* prologue: function */
 3801               	/* frame size = 0 */
 3802 1168 F82E      		mov r15,r24
 3803 116a D62E      		mov r13,r22
 3804 116c E42E      		mov r14,r20
 3805 116e 122F      		mov r17,r18
 3806               	.LM547:
 3807 1170 0130      		cpi r16,lo8(1)
 3808               	.LVL392:
 3809 1172 01F0      		breq .L355
 3810               	.LVL393:
 3811               	.LM548:
 3812 1174 80E0      		ldi r24,lo8(0)
 3813 1176 642F      		mov r22,r20
 3814 1178 422F      		mov r20,r18
 3815 117a 2E2D      		mov r18,r14
 3816 117c 0D2D      		mov r16,r13
 3817               	.LVL394:
 3818 117e 0E94 0000 		call line
 3819               	.LM549:
 3820 1182 80E0      		ldi r24,lo8(0)
 3821 1184 6F2D      		mov r22,r15
 3822 1186 412F      		mov r20,r17
 3823 1188 2E2D      		mov r18,r14
 3824 118a 012F      		mov r16,r17
 3825 118c 0E94 0000 		call line
 3826               	.LM550:
 3827 1190 80E0      		ldi r24,lo8(0)
 3828 1192 6F2D      		mov r22,r15
 3829 1194 412F      		mov r20,r17
 3830 1196 2F2D      		mov r18,r15
 3831 1198 0D2D      		mov r16,r13
 3832 119a 0E94 0000 		call line
 3833               	.LM551:
 3834 119e 80E0      		ldi r24,lo8(0)
 3835 11a0 6F2D      		mov r22,r15
 3836 11a2 4D2D      		mov r20,r13
 3837 11a4 2E2D      		mov r18,r14
 3838 11a6 0E94 0000 		call line
 3839               	/* epilogue start */
 3840               	.LM552:
 3841 11aa 1F91      		pop r17
 3842               	.LVL395:
 3843 11ac 0F91      		pop r16
 3844 11ae FF90      		pop r15
 3845               	.LVL396:
 3846 11b0 EF90      		pop r14
 3847               	.LVL397:
 3848 11b2 DF90      		pop r13
 3849               	.LVL398:
 3850 11b4 0895      		ret
 3851               	.LVL399:
 3852               	.L355:
 3853               	.LM553:
 3854 11b6 81E0      		ldi r24,lo8(1)
 3855 11b8 642F      		mov r22,r20
 3856 11ba 422F      		mov r20,r18
 3857 11bc 2E2D      		mov r18,r14
 3858 11be 0D2D      		mov r16,r13
 3859               	.LVL400:
 3860 11c0 0E94 0000 		call line
 3861               	.LM554:
 3862 11c4 81E0      		ldi r24,lo8(1)
 3863 11c6 6F2D      		mov r22,r15
 3864 11c8 412F      		mov r20,r17
 3865 11ca 2E2D      		mov r18,r14
 3866 11cc 012F      		mov r16,r17
 3867 11ce 0E94 0000 		call line
 3868               	.LM555:
 3869 11d2 81E0      		ldi r24,lo8(1)
 3870 11d4 6F2D      		mov r22,r15
 3871 11d6 412F      		mov r20,r17
 3872 11d8 2F2D      		mov r18,r15
 3873 11da 0D2D      		mov r16,r13
 3874 11dc 0E94 0000 		call line
 3875               	.LM556:
 3876 11e0 81E0      		ldi r24,lo8(1)
 3877 11e2 6F2D      		mov r22,r15
 3878 11e4 4D2D      		mov r20,r13
 3879 11e6 2E2D      		mov r18,r14
 3880 11e8 0E94 0000 		call line
 3881               	.LM557:
 3882 11ec 1F91      		pop r17
 3883               	.LVL401:
 3884 11ee 0F91      		pop r16
 3885 11f0 FF90      		pop r15
 3886               	.LVL402:
 3887 11f2 EF90      		pop r14
 3888               	.LVL403:
 3889 11f4 DF90      		pop r13
 3890               	.LVL404:
 3891 11f6 0895      		ret
 3892               	.LFE32:
 3894               	.global	draw_sprite
 3896               	draw_sprite:
 3897               	.LFB33:
 3898               	.LM558:
 3899               	.LVL405:
 3900 11f8 EF92      		push r14
 3901 11fa FF92      		push r15
 3902 11fc 0F93      		push r16
 3903               	/* prologue: function */
 3904               	/* frame size = 0 */
 3905 11fe 022F      		mov r16,r18
 3906               	.LM559:
 3907 1200 92E2      		ldi r25,lo8(34)
 3908 1202 499F      		mul r20,r25
 3909 1204 A001      		movw r20,r0
 3910 1206 1124      		clr r1
 3911               	.LVL406:
 3912               	.LM560:
 3913 1208 E0E0      		ldi r30,lo8(sprite)
 3914 120a F0E0      		ldi r31,hi8(sprite)
 3915 120c DF01      		movw r26,r30
 3916 120e A40F      		add r26,r20
 3917 1210 B51F      		adc r27,r21
 3918 1212 4E5F      		subi r20,lo8(-(2))
 3919 1214 5F4F      		sbci r21,hi8(-(2))
 3920 1216 E40F      		add r30,r20
 3921 1218 F51F      		adc r31,r21
 3922 121a 4C91      		ld r20,X
 3923               	.LVL407:
 3924 121c 1196      		adiw r26,1
 3925 121e 2C91      		ld r18,X
 3926               	.LVL408:
 3927 1220 7F01      		movw r14,r30
 3928 1222 0E94 0000 		call bitblt
 3929               	.LVL409:
 3930               	/* epilogue start */
 3931               	.LM561:
 3932 1226 0F91      		pop r16
 3933               	.LVL410:
 3934 1228 FF90      		pop r15
 3935 122a EF90      		pop r14
 3936 122c 0895      		ret
 3937               	.LFE33:
 3939               	.global	set_baud
 3941               	set_baud:
 3942               	.LFB34:
 3943               	.LM562:
 3944               	.LVL411:
 3945               	/* prologue: function */
 3946               	/* frame size = 0 */
 3947               	.LM563:
 3948 122e 8130      		cpi r24,lo8(1)
 3949 1230 01F0      		breq .L366
 3950               	.LM564:
 3951 1232 8230      		cpi r24,lo8(2)
 3952 1234 01F0      		breq .L367
 3953               	.LM565:
 3954 1236 8330      		cpi r24,lo8(3)
 3955 1238 01F0      		breq .L368
 3956               	.LM566:
 3957 123a 8430      		cpi r24,lo8(4)
 3958 123c 01F0      		breq .L369
 3959               	.LM567:
 3960 123e 8530      		cpi r24,lo8(5)
 3961 1240 01F0      		breq .L370
 3962               	.LM568:
 3963 1242 8630      		cpi r24,lo8(6)
 3964 1244 01F0      		breq .L371
 3965 1246 0895      		ret
 3966               	.L371:
 3967 1248 80E1      		ldi r24,lo8(16)
 3968 124a 90E0      		ldi r25,hi8(16)
 3969               	.LVL412:
 3970 124c 0E94 0000 		call USART_Init
 3971 1250 0895      		ret
 3972               	.LVL413:
 3973               	.L370:
 3974               	.LM569:
 3975 1252 81E2      		ldi r24,lo8(33)
 3976 1254 90E0      		ldi r25,hi8(33)
 3977               	.LVL414:
 3978 1256 0E94 0000 		call USART_Init
 3979 125a 0895      		ret
 3980               	.LVL415:
 3981               	.L366:
 3982               	.LM570:
 3983 125c 8FE9      		ldi r24,lo8(415)
 3984 125e 91E0      		ldi r25,hi8(415)
 3985               	.LVL416:
 3986 1260 0E94 0000 		call USART_Init
 3987 1264 0895      		ret
 3988               	.LVL417:
 3989               	.L367:
 3990               	.LM571:
 3991 1266 8FEC      		ldi r24,lo8(207)
 3992 1268 90E0      		ldi r25,hi8(207)
 3993               	.LVL418:
 3994 126a 0E94 0000 		call USART_Init
 3995 126e 0895      		ret
 3996               	.LVL419:
 3997               	.L368:
 3998               	.LM572:
 3999 1270 87E6      		ldi r24,lo8(103)
 4000 1272 90E0      		ldi r25,hi8(103)
 4001               	.LVL420:
 4002 1274 0E94 0000 		call USART_Init
 4003 1278 0895      		ret
 4004               	.LVL421:
 4005               	.L369:
 4006               	.LM573:
 4007 127a 83E3      		ldi r24,lo8(51)
 4008 127c 90E0      		ldi r25,hi8(51)
 4009               	.LVL422:
 4010 127e 0E94 0000 		call USART_Init
 4011 1282 0895      		ret
 4012               	.LFE34:
 4014               	.global	LCD_reset
 4016               	LCD_reset:
 4017               	.LFB35:
 4018               	.LM574:
 4019               	/* prologue: function */
 4020               	/* frame size = 0 */
 4021               	.LM575:
 4022 1284 18B8      		out 40-32,__zero_reg__
 4023               	.LM576:
 4024 1286 8CE3      		ldi r24,lo8(60)
 4025 1288 90E0      		ldi r25,hi8(60)
 4026 128a 0E94 0000 		call delay_ms
 4027               	.LM577:
 4028 128e 88E0      		ldi r24,lo8(8)
 4029 1290 88B9      		out 40-32,r24
 4030               	.LM578:
 4031 1292 80E0      		ldi r24,lo8(0)
 4032 1294 0E94 0000 		call clear_screen
 4033               	.LM579:
 4034 1298 88EB      		ldi r24,lo8(-72)
 4035 129a 60E0      		ldi r22,lo8(0)
 4036 129c 0E94 0000 		call write_command_LCD
 4037               	.LM580:
 4038 12a0 80E4      		ldi r24,lo8(64)
 4039 12a2 60E0      		ldi r22,lo8(0)
 4040 12a4 0E94 0000 		call write_command_LCD
 4041               	.LM581:
 4042 12a8 8FE3      		ldi r24,lo8(63)
 4043 12aa 60E0      		ldi r22,lo8(0)
 4044 12ac 0E94 0000 		call write_command_LCD
 4045               	.LM582:
 4046 12b0 80EC      		ldi r24,lo8(-64)
 4047 12b2 60E0      		ldi r22,lo8(0)
 4048 12b4 0E94 0000 		call write_command_LCD
 4049               	.LM583:
 4050 12b8 1092 0000 		sts x_offset,__zero_reg__
 4051               	.LM584:
 4052 12bc 88EB      		ldi r24,lo8(-72)
 4053 12be 60E0      		ldi r22,lo8(0)
 4054 12c0 0E94 0000 		call write_command_LCD
 4055               	/* epilogue start */
 4056               	.LM585:
 4057 12c4 0895      		ret
 4058               	.LFE35:
 4060               		.data
 4061               	.LC0:
 4062 0000 456E 7465 		.string	"Entered Command %d\n"
 4062      7265 6420 
 4062      436F 6D6D 
 4062      616E 6420 
 4062      2564 0A00 
 4063               	.LC1:
 4064 0014 3078 252E 		.string	"0x%.2x\n"
 4064      3278 0A00 
 4065               	.LC2:
 4066 001c 4578 6974 		.string	"Exited Command, RX_buffer=%d\n\n"
 4066      6564 2043 
 4066      6F6D 6D61 
 4066      6E64 2C20 
 4066      5258 5F62 
 4067               		.text
 4068               	.global	main
 4070               	main:
 4071               	.LFB6:
 4072               	.LM586:
 4073 12c6 2F92      		push r2
 4074 12c8 3F92      		push r3
 4075 12ca 4F92      		push r4
 4076 12cc 5F92      		push r5
 4077 12ce 6F92      		push r6
 4078 12d0 7F92      		push r7
 4079 12d2 8F92      		push r8
 4080 12d4 9F92      		push r9
 4081 12d6 AF92      		push r10
 4082 12d8 BF92      		push r11
 4083 12da CF92      		push r12
 4084 12dc DF92      		push r13
 4085 12de EF92      		push r14
 4086 12e0 FF92      		push r15
 4087 12e2 0F93      		push r16
 4088 12e4 1F93      		push r17
 4089 12e6 DF93      		push r29
 4090 12e8 CF93      		push r28
 4091 12ea CDB7      		in r28,__SP_L__
 4092 12ec DEB7      		in r29,__SP_H__
 4093 12ee 2E97      		sbiw r28,14
 4094 12f0 0FB6      		in __tmp_reg__,__SREG__
 4095 12f2 F894      		cli
 4096 12f4 DEBF      		out __SP_H__,r29
 4097 12f6 0FBE      		out __SREG__,__tmp_reg__
 4098 12f8 CDBF      		out __SP_L__,r28
 4099               	/* prologue: function */
 4100               	/* frame size = 14 */
 4101               	.LM587:
 4102 12fa 0E94 0000 		call ioinit
 4103               	.LM588:
 4104 12fe 86E0      		ldi r24,lo8(6)
 4105 1300 0E94 0000 		call set_baud
 4106               	.LM589:
 4107 1304 80E0      		ldi r24,lo8(gs(put_char))
 4108 1306 90E0      		ldi r25,hi8(gs(put_char))
 4109 1308 0E94 0000 		call rprintf_devopen
 4110               	.L375:
 4111               	.LBB209:
 4112               	.LBB210:
 4113               	.LM590:
 4114 130c 8091 C000 		lds r24,192
 4115 1310 85FF      		sbrs r24,5
 4116 1312 00C0      		rjmp .L375
 4117               	.LM591:
 4118 1314 81E1      		ldi r24,lo8(17)
 4119 1316 8093 C600 		sts 198,r24
 4120               	.L376:
 4121               	.LBE210:
 4122               	.LBE209:
 4123               	.LBB211:
 4124               	.LBB212:
 4125               	.LM592:
 4126 131a F999      		sbic 63-32,1
 4127 131c 00C0      		rjmp .L376
 4128               	.LM593:
 4129 131e 12BC      		out (65)+1-32,__zero_reg__
 4130 1320 11BC      		out 65-32,__zero_reg__
 4131               	.LM594:
 4132 1322 F89A      		sbi 63-32,0
 4133               	.LM595:
 4134 1324 90B5      		in r25,64-32
 4135               	.LVL423:
 4136               	.LBE212:
 4137               	.LBE211:
 4138               	.LM596:
 4139 1326 892F      		mov r24,r25
 4140 1328 8150      		subi r24,lo8(-(-1))
 4141 132a 8630      		cpi r24,lo8(6)
 4142 132c 00F4      		brsh .L511
 4143               	.LM597:
 4144 132e 9093 0000 		sts baud_rate,r25
 4145               	.L379:
 4146               	.LBB213:
 4147               	.LBB214:
 4148               	.LM598:
 4149 1332 F999      		sbic 63-32,1
 4150 1334 00C0      		rjmp .L379
 4151               	.LM599:
 4152 1336 81E0      		ldi r24,lo8(1)
 4153 1338 90E0      		ldi r25,hi8(1)
 4154 133a 92BD      		out (65)+1-32,r25
 4155 133c 81BD      		out 65-32,r24
 4156               	.LM600:
 4157 133e F89A      		sbi 63-32,0
 4158               	.LM601:
 4159 1340 80B5      		in r24,64-32
 4160               	.LBE214:
 4161               	.LBE213:
 4162               	.LM602:
 4163 1342 8093 0000 		sts BL_dutycycle,r24
 4164               	.L380:
 4165               	.LBB215:
 4166               	.LBB216:
 4167               	.LM603:
 4168 1346 F999      		sbic 63-32,1
 4169 1348 00C0      		rjmp .L380
 4170               	.LM604:
 4171 134a 82E0      		ldi r24,lo8(2)
 4172 134c 90E0      		ldi r25,hi8(2)
 4173 134e 92BD      		out (65)+1-32,r25
 4174 1350 81BD      		out 65-32,r24
 4175               	.LM605:
 4176 1352 F89A      		sbi 63-32,0
 4177               	.LM606:
 4178 1354 80B5      		in r24,64-32
 4179               	.LBE216:
 4180               	.LBE215:
 4181               	.LM607:
 4182 1356 8093 0000 		sts splash_screen,r24
 4183               	.L381:
 4184               	.LBB217:
 4185               	.LBB218:
 4186               	.LM608:
 4187 135a F999      		sbic 63-32,1
 4188 135c 00C0      		rjmp .L381
 4189               	.LM609:
 4190 135e 83E0      		ldi r24,lo8(3)
 4191 1360 90E0      		ldi r25,hi8(3)
 4192 1362 92BD      		out (65)+1-32,r25
 4193 1364 81BD      		out 65-32,r24
 4194               	.LM610:
 4195 1366 F89A      		sbi 63-32,0
 4196               	.LM611:
 4197 1368 80B5      		in r24,64-32
 4198               	.LBE218:
 4199               	.LBE217:
 4200               	.LM612:
 4201 136a 8093 0000 		sts reverse,r24
 4202               	.L382:
 4203               	.LBB219:
 4204               	.LBB220:
 4205               	.LM613:
 4206 136e F999      		sbic 63-32,1
 4207 1370 00C0      		rjmp .L382
 4208               	.LM614:
 4209 1372 84E0      		ldi r24,lo8(4)
 4210 1374 90E0      		ldi r25,hi8(4)
 4211 1376 92BD      		out (65)+1-32,r25
 4212 1378 81BD      		out 65-32,r24
 4213               	.LM615:
 4214 137a F89A      		sbi 63-32,0
 4215               	.LM616:
 4216 137c 80B5      		in r24,64-32
 4217               	.LBE220:
 4218               	.LBE219:
 4219               	.LM617:
 4220 137e 8093 0000 		sts debug_msg,r24
 4221               	.L383:
 4222               	.LBB221:
 4223               	.LBB222:
 4224               	.LM618:
 4225 1382 F999      		sbic 63-32,1
 4226 1384 00C0      		rjmp .L383
 4227               	.LM619:
 4228 1386 85E0      		ldi r24,lo8(5)
 4229 1388 90E0      		ldi r25,hi8(5)
 4230 138a 92BD      		out (65)+1-32,r25
 4231 138c 81BD      		out 65-32,r24
 4232               	.LM620:
 4233 138e F89A      		sbi 63-32,0
 4234               	.LM621:
 4235 1390 80B5      		in r24,64-32
 4236               	.LBE222:
 4237               	.LBE221:
 4238               	.LM622:
 4239 1392 8093 0000 		sts CR_LF,r24
 4240 1396 00C0      		rjmp .L378
 4241               	.L511:
 4242               	.LM623:
 4243               	/* #APP */
 4244               	 ;  256 "main.c" 1
 4245 1398 F894      		cli
 4246               	 ;  0 "" 2
 4247               	.LM624:
 4248               	/* #NOAPP */
 4249 139a 80E0      		ldi r24,lo8(0)
 4250 139c 90E0      		ldi r25,hi8(0)
 4251 139e 66E0      		ldi r22,lo8(6)
 4252 13a0 0E94 0000 		call EEPROM_write
 4253               	.LVL424:
 4254               	.LM625:
 4255 13a4 81E0      		ldi r24,lo8(1)
 4256 13a6 90E0      		ldi r25,hi8(1)
 4257 13a8 64E6      		ldi r22,lo8(100)
 4258 13aa 0E94 0000 		call EEPROM_write
 4259               	.LM626:
 4260 13ae 82E0      		ldi r24,lo8(2)
 4261 13b0 90E0      		ldi r25,hi8(2)
 4262 13b2 61E0      		ldi r22,lo8(1)
 4263 13b4 0E94 0000 		call EEPROM_write
 4264               	.LM627:
 4265 13b8 83E0      		ldi r24,lo8(3)
 4266 13ba 90E0      		ldi r25,hi8(3)
 4267 13bc 60E0      		ldi r22,lo8(0)
 4268 13be 0E94 0000 		call EEPROM_write
 4269               	.LM628:
 4270 13c2 84E0      		ldi r24,lo8(4)
 4271 13c4 90E0      		ldi r25,hi8(4)
 4272 13c6 60E0      		ldi r22,lo8(0)
 4273 13c8 0E94 0000 		call EEPROM_write
 4274               	.LM629:
 4275 13cc 85E0      		ldi r24,lo8(5)
 4276 13ce 90E0      		ldi r25,hi8(5)
 4277 13d0 61E0      		ldi r22,lo8(1)
 4278 13d2 0E94 0000 		call EEPROM_write
 4279               	.LM630:
 4280               	/* #APP */
 4281               	 ;  265 "main.c" 1
 4282 13d6 7894      		sei
 4283               	 ;  0 "" 2
 4284               	.LM631:
 4285               	/* #NOAPP */
 4286 13d8 84E6      		ldi r24,lo8(100)
 4287 13da 8093 0000 		sts BL_dutycycle,r24
 4288               	.LM632:
 4289 13de 86E0      		ldi r24,lo8(6)
 4290 13e0 8093 0000 		sts baud_rate,r24
 4291               	.LM633:
 4292 13e4 81E0      		ldi r24,lo8(1)
 4293 13e6 8093 0000 		sts splash_screen,r24
 4294               	.LM634:
 4295 13ea 1092 0000 		sts reverse,__zero_reg__
 4296               	.LM635:
 4297 13ee 1092 0000 		sts debug_msg,__zero_reg__
 4298               	.LM636:
 4299 13f2 8093 0000 		sts CR_LF,r24
 4300               	.LVL425:
 4301               	.L378:
 4302               	.LBB223:
 4303               	.LM637:
 4304 13f6 E0E0      		ldi r30,lo8(text_array)
 4305 13f8 F0E0      		ldi r31,hi8(text_array)
 4306               	/* #APP */
 4307               	 ;  296 "main.c" 1
 4308 13fa 8491      		lpm r24, Z
 4309               		
 4310               	 ;  0 "" 2
 4311               	.LVL426:
 4312               	/* #NOAPP */
 4313               	.LBE223:
 4314 13fc 8093 0000 		sts font_w,r24
 4315               	.LBB224:
 4316               	.LM638:
 4317 1400 7F01      		movw r14,r30
 4318               	.LVL427:
 4319 1402 0894      		sec
 4320 1404 E11C      		adc r14,__zero_reg__
 4321 1406 F11C      		adc r15,__zero_reg__
 4322 1408 F701      		movw r30,r14
 4323               	/* #APP */
 4324               	 ;  297 "main.c" 1
 4325 140a 8491      		lpm r24, Z
 4326               		
 4327               	 ;  0 "" 2
 4328               	.LVL428:
 4329               	/* #NOAPP */
 4330               	.LBE224:
 4331 140c 8093 0000 		sts font_h,r24
 4332               	.LBB225:
 4333               	.LM639:
 4334 1410 00E0      		ldi r16,lo8(text_array)
 4335 1412 10E0      		ldi r17,hi8(text_array)
 4336               	.LVL429:
 4337 1414 0E5F      		subi r16,lo8(-(2))
 4338 1416 1F4F      		sbci r17,hi8(-(2))
 4339 1418 F801      		movw r30,r16
 4340               	/* #APP */
 4341               	 ;  298 "main.c" 1
 4342 141a 2491      		lpm r18, Z
 4343               		
 4344               	 ;  0 "" 2
 4345               	.LVL430:
 4346               	/* #NOAPP */
 4347               	.LBE225:
 4348 141c 2093 0000 		sts font_space,r18
 4349               	.LM640:
 4350 1420 282F      		mov r18,r24
 4351               	.LVL431:
 4352 1422 2695      		lsr r18
 4353 1424 2695      		lsr r18
 4354 1426 2695      		lsr r18
 4355 1428 2093 0000 		sts font_bytes,r18
 4356               	.LM641:
 4357 142c 90E0      		ldi r25,lo8(0)
 4358               	.LVL432:
 4359 142e 8770      		andi r24,lo8(7)
 4360 1430 9070      		andi r25,hi8(7)
 4361               	.LVL433:
 4362 1432 892B      		or r24,r25
 4363 1434 01F0      		breq .L384
 4364               	.LM642:
 4365 1436 2F5F      		subi r18,lo8(-(1))
 4366 1438 2093 0000 		sts font_bytes,r18
 4367               	.L384:
 4368               	.LM643:
 4369 143c 8091 0000 		lds r24,font_bytes
 4370 1440 9091 0000 		lds r25,font_w
 4371 1444 899F      		mul r24,r25
 4372 1446 802D      		mov r24,r0
 4373 1448 1124      		clr r1
 4374 144a 8093 0000 		sts font_bytes,r24
 4375               	.LM644:
 4376 144e 0E94 0000 		call LCD_reset
 4377               	.LM645:
 4378 1452 8091 0000 		lds r24,BL_dutycycle
 4379 1456 0E94 0000 		call set_backlight
 4380               	.LM646:
 4381 145a 84EF      		ldi r24,lo8(500)
 4382 145c 91E0      		ldi r25,hi8(500)
 4383 145e 0E94 0000 		call delay_ms
 4384               	.LM647:
 4385 1462 8091 0000 		lds r24,splash_screen
 4386 1466 8130      		cpi r24,lo8(1)
 4387 1468 01F4      		brne .+2
 4388 146a 00C0      		rjmp .L512
 4389               	.L385:
 4390               	.LM648:
 4391               	/* #APP */
 4392               	 ;  319 "main.c" 1
 4393 146c F894      		cli
 4394               	 ;  0 "" 2
 4395               	.LM649:
 4396               	/* #NOAPP */
 4397 146e 1092 0000 		sts RX_in,__zero_reg__
 4398               	.LM650:
 4399 1472 1092 0000 		sts (RX_read)+1,__zero_reg__
 4400 1476 1092 0000 		sts RX_read,__zero_reg__
 4401               	.LM651:
 4402 147a 1092 0000 		sts RX_bytes,__zero_reg__
 4403               	.LM652:
 4404               	/* #APP */
 4405               	 ;  323 "main.c" 1
 4406 147e 7894      		sei
 4407               	 ;  0 "" 2
 4408               	.LM653:
 4409               	/* #NOAPP */
 4410 1480 88EE      		ldi r24,lo8(1000)
 4411 1482 93E0      		ldi r25,hi8(1000)
 4412 1484 0E94 0000 		call delay_ms
 4413               	.LM654:
 4414 1488 80E0      		ldi r24,lo8(0)
 4415 148a 0E94 0000 		call clear_screen
 4416               	.LM655:
 4417 148e 8091 0000 		lds r24,RX_in
 4418 1492 8823      		tst r24
 4419 1494 01F4      		brne .+2
 4420 1496 00C0      		rjmp .L386
 4421               	.LM656:
 4422 1498 81E3      		ldi r24,lo8(49)
 4423 149a 0E94 0000 		call print_char
 4424               	.LM657:
 4425 149e 81E3      		ldi r24,lo8(49)
 4426 14a0 0E94 0000 		call print_char
 4427               	.LM658:
 4428 14a4 85E3      		ldi r24,lo8(53)
 4429 14a6 0E94 0000 		call print_char
 4430               	.LM659:
 4431 14aa 82E3      		ldi r24,lo8(50)
 4432 14ac 0E94 0000 		call print_char
 4433               	.LM660:
 4434 14b0 80E3      		ldi r24,lo8(48)
 4435 14b2 0E94 0000 		call print_char
 4436               	.LM661:
 4437 14b6 80E3      		ldi r24,lo8(48)
 4438 14b8 0E94 0000 		call print_char
 4439               	.LM662:
 4440 14bc 86E0      		ldi r24,lo8(6)
 4441 14be 8093 0000 		sts baud_rate,r24
 4442               	.LM663:
 4443 14c2 0E94 0000 		call set_baud
 4444               	.LM664:
 4445               	/* #APP */
 4446               	 ;  340 "main.c" 1
 4447 14c6 F894      		cli
 4448               	 ;  0 "" 2
 4449               	.LM665:
 4450               	/* #NOAPP */
 4451 14c8 80E0      		ldi r24,lo8(0)
 4452 14ca 90E0      		ldi r25,hi8(0)
 4453 14cc 66E0      		ldi r22,lo8(6)
 4454 14ce 0E94 0000 		call EEPROM_write
 4455               	.LM666:
 4456               	/* #APP */
 4457               	 ;  344 "main.c" 1
 4458 14d2 7894      		sei
 4459               	 ;  0 "" 2
 4460               	/* #NOAPP */
 4461               	.L387:
 4462               	.LM667:
 4463 14d4 88EE      		ldi r24,lo8(1000)
 4464 14d6 93E0      		ldi r25,hi8(1000)
 4465 14d8 0E94 0000 		call delay_ms
 4466               	.LM668:
 4467 14dc 80E0      		ldi r24,lo8(0)
 4468 14de 0E94 0000 		call clear_screen
 4469               	.LM669:
 4470               	/* #APP */
 4471               	 ;  354 "main.c" 1
 4472 14e2 F894      		cli
 4473               	 ;  0 "" 2
 4474               	.LM670:
 4475               	/* #NOAPP */
 4476 14e4 1092 0000 		sts (RX_read)+1,__zero_reg__
 4477 14e8 1092 0000 		sts RX_read,__zero_reg__
 4478               	.LM671:
 4479 14ec 1092 0000 		sts RX_in,__zero_reg__
 4480               	.LM672:
 4481 14f0 1092 0000 		sts RX_bytes,__zero_reg__
 4482               	.LM673:
 4483               	/* #APP */
 4484               	 ;  358 "main.c" 1
 4485 14f4 7894      		sei
 4486               	 ;  0 "" 2
 4487               	/* #NOAPP */
 4488 14f6 E0E0      		ldi r30,lo8(.LC0)
 4489 14f8 8E2E      		mov r8,r30
 4490 14fa E0E0      		ldi r30,hi8(.LC0)
 4491 14fc 9E2E      		mov r9,r30
 4492 14fe E0E0      		ldi r30,lo8(aux_text_array)
 4493 1500 F0E0      		ldi r31,hi8(aux_text_array)
 4494 1502 CF01      		movw r24,r30
 4495 1504 0296      		adiw r24,2
 4496 1506 70E0      		ldi r23,lo8(.LC1)
 4497 1508 A72E      		mov r10,r23
 4498 150a 70E0      		ldi r23,hi8(.LC1)
 4499 150c B72E      		mov r11,r23
 4500 150e 60E0      		ldi r22,lo8(.LC2)
 4501 1510 662E      		mov r6,r22
 4502 1512 60E0      		ldi r22,hi8(.LC2)
 4503 1514 762E      		mov r7,r22
 4504               	.LBB226:
 4505               	.LBB227:
 4506               	.LM674:
 4507 1516 5DE0      		ldi r21,lo8(13)
 4508 1518 C52E      		mov r12,r21
 4509               	.LBE227:
 4510               	.LBE226:
 4511               	.LBB229:
 4512               	.LBB230:
 4513 151a 4AE0      		ldi r20,lo8(10)
 4514 151c 542E      		mov r5,r20
 4515               	.LBE230:
 4516               	.LBE229:
 4517               	.LM675:
 4518 151e 3FE7      		ldi r19,lo8(127)
 4519 1520 432E      		mov r4,r19
 4520               	.LM676:
 4521 1522 2FE9      		ldi r18,lo8(-97)
 4522 1524 322E      		mov r3,r18
 4523               	.LM677:
 4524 1526 2224      		clr r2
 4525 1528 2394      		inc r2
 4526               	.LBB232:
 4527               	.LM678:
 4528               	/* #APP */
 4529               	 ;  534 "main.c" 1
 4530 152a 2491      		lpm r18, Z
 4531               		
 4532               	 ;  0 "" 2
 4533               	/* #NOAPP */
 4534 152c 2983      		std Y+1,r18
 4535 152e 3196      		adiw r30,1
 4536               	.LBE232:
 4537               	.LBB233:
 4538               	.LM679:
 4539               	/* #APP */
 4540               	 ;  535 "main.c" 1
 4541 1530 A491      		lpm r26, Z
 4542               		
 4543               	 ;  0 "" 2
 4544               	/* #NOAPP */
 4545 1532 AA83      		std Y+2,r26
 4546               	.LBE233:
 4547               	.LBB234:
 4548               	.LM680:
 4549 1534 FC01      		movw r30,r24
 4550               	/* #APP */
 4551               	 ;  536 "main.c" 1
 4552 1536 F491      		lpm r31, Z
 4553               		
 4554               	 ;  0 "" 2
 4555               	/* #NOAPP */
 4556 1538 FB83      		std Y+3,r31
 4557               	.LBE234:
 4558               	.LM681:
 4559 153a A695      		lsr r26
 4560 153c A695      		lsr r26
 4561 153e A695      		lsr r26
 4562 1540 AC83      		std Y+4,r26
 4563               	.LM682:
 4564 1542 9A81      		ldd r25,Y+2
 4565 1544 892F      		mov r24,r25
 4566 1546 90E0      		ldi r25,lo8(0)
 4567 1548 8770      		andi r24,lo8(7)
 4568 154a 9070      		andi r25,hi8(7)
 4569 154c 9E83      		std Y+6,r25
 4570 154e 8D83      		std Y+5,r24
 4571               	.LM683:
 4572 1550 AF5F      		subi r26,lo8(-(1))
 4573 1552 AF83      		std Y+7,r26
 4574               	.LBB235:
 4575               	.LM684:
 4576 1554 E0E0      		ldi r30,lo8(text_array)
 4577 1556 F0E0      		ldi r31,hi8(text_array)
 4578               	/* #APP */
 4579               	 ;  523 "main.c" 1
 4580 1558 F491      		lpm r31, Z
 4581               		
 4582               	 ;  0 "" 2
 4583               	/* #NOAPP */
 4584 155a F887      		std Y+8,r31
 4585               	.LBE235:
 4586               	.LBB236:
 4587               	.LM685:
 4588 155c F701      		movw r30,r14
 4589               	/* #APP */
 4590               	 ;  524 "main.c" 1
 4591 155e F491      		lpm r31, Z
 4592               		
 4593               	 ;  0 "" 2
 4594               	/* #NOAPP */
 4595 1560 F987      		std Y+9,r31
 4596               	.LBE236:
 4597               	.LBB237:
 4598               	.LM686:
 4599 1562 F801      		movw r30,r16
 4600               	/* #APP */
 4601               	 ;  525 "main.c" 1
 4602 1564 F491      		lpm r31, Z
 4603               		
 4604               	 ;  0 "" 2
 4605               	/* #NOAPP */
 4606 1566 FA87      		std Y+10,r31
 4607               	.LBE237:
 4608               	.LM687:
 4609 1568 2985      		ldd r18,Y+9
 4610 156a 2695      		lsr r18
 4611 156c 2695      		lsr r18
 4612 156e 2695      		lsr r18
 4613 1570 2B87      		std Y+11,r18
 4614               	.LM688:
 4615 1572 9985      		ldd r25,Y+9
 4616 1574 892F      		mov r24,r25
 4617 1576 90E0      		ldi r25,lo8(0)
 4618 1578 8770      		andi r24,lo8(7)
 4619 157a 9070      		andi r25,hi8(7)
 4620 157c 9D87      		std Y+13,r25
 4621 157e 8C87      		std Y+12,r24
 4622               	.LM689:
 4623 1580 2F5F      		subi r18,lo8(-(1))
 4624 1582 2E87      		std Y+14,r18
 4625               	.LVL434:
 4626               	.L501:
 4627               	.LM690:
 4628 1584 0E94 0000 		call RX_get_byte
 4629               	.LVL435:
 4630 1588 982F      		mov r25,r24
 4631               	.LVL436:
 4632               	.LM691:
 4633 158a 8A30      		cpi r24,lo8(10)
 4634 158c 01F0      		breq .L391
 4635               	.LVL437:
 4636               	.L514:
 4637 158e 8B30      		cpi r24,lo8(11)
 4638 1590 00F4      		brsh .L394
 4639 1592 8830      		cpi r24,lo8(8)
 4640 1594 01F4      		brne .+2
 4641 1596 00C0      		rjmp .L513
 4642               	.L389:
 4643               	.LM692:
 4644 1598 8091 0000 		lds r24,debug_msg
 4645               	.LVL438:
 4646 159c 8230      		cpi r24,lo8(2)
 4647 159e 01F0      		breq .L478
 4648               	.L462:
 4649               	.LM693:
 4650 15a0 892F      		mov r24,r25
 4651 15a2 0E94 0000 		call print_char
 4652               	.LVL439:
 4653               	.LM694:
 4654 15a6 0E94 0000 		call RX_get_byte
 4655 15aa 982F      		mov r25,r24
 4656               	.LVL440:
 4657               	.LM695:
 4658 15ac 8A30      		cpi r24,lo8(10)
 4659 15ae 01F4      		brne .L514
 4660               	.LVL441:
 4661               	.L391:
 4662               	.LM696:
 4663 15b0 7091 0000 		lds r23,y_offset
 4664 15b4 6091 0000 		lds r22,font_h
 4665 15b8 862F      		mov r24,r22
 4666               	.LVL442:
 4667 15ba 90E0      		ldi r25,lo8(0)
 4668               	.LVL443:
 4669 15bc 472F      		mov r20,r23
 4670 15be 50E0      		ldi r21,lo8(0)
 4671 15c0 2227      		clr r18
 4672 15c2 3327      		clr r19
 4673 15c4 281B      		sub r18,r24
 4674 15c6 390B      		sbc r19,r25
 4675 15c8 281B      		sub r18,r24
 4676 15ca 390B      		sbc r19,r25
 4677 15cc 205C      		subi r18,lo8(-(64))
 4678 15ce 3F4F      		sbci r19,hi8(-(64))
 4679 15d0 2417      		cp r18,r20
 4680 15d2 3507      		cpc r19,r21
 4681 15d4 04F0      		brlt .+2
 4682 15d6 00C0      		rjmp .L401
 4683               	.LM697:
 4684 15d8 872F      		mov r24,r23
 4685 15da 0E94 0000 		call __udivmodqi4
 4686 15de 9093 0000 		sts y_offset,r25
 4687               	.L402:
 4688               	.LM698:
 4689 15e2 8091 0000 		lds r24,debug_msg
 4690 15e6 8230      		cpi r24,lo8(2)
 4691 15e8 01F4      		brne .L501
 4692               	.L471:
 4693               	.LBB238:
 4694               	.LBB239:
 4695               	.LM699:
 4696 15ea 8091 C000 		lds r24,192
 4697 15ee 85FF      		sbrs r24,5
 4698 15f0 00C0      		rjmp .L471
 4699               	.LM700:
 4700 15f2 5092 C600 		sts 198,r5
 4701 15f6 00C0      		rjmp .L501
 4702               	.LVL444:
 4703               	.L478:
 4704               	.LBE239:
 4705               	.LBE238:
 4706               	.LBB240:
 4707               	.LBB241:
 4708               	.LM701:
 4709 15f8 8091 C000 		lds r24,192
 4710 15fc 85FF      		sbrs r24,5
 4711 15fe 00C0      		rjmp .L478
 4712               	.LM702:
 4713 1600 9093 C600 		sts 198,r25
 4714 1604 00C0      		rjmp .L462
 4715               	.LVL445:
 4716               	.L394:
 4717               	.LBE241:
 4718               	.LBE240:
 4719               	.LM703:
 4720 1606 8D30      		cpi r24,lo8(13)
 4721 1608 01F4      		brne .+2
 4722 160a 00C0      		rjmp .L392
 4723 160c 8C37      		cpi r24,lo8(124)
 4724 160e 01F4      		brne .L389
 4725               	.LM704:
 4726 1610 0E94 0000 		call RX_get_byte
 4727               	.LVL446:
 4728 1614 182F      		mov r17,r24
 4729               	.LVL447:
 4730               	.LM705:
 4731 1616 2091 0000 		lds r18,debug_msg
 4732 161a 2130      		cpi r18,lo8(1)
 4733 161c 01F0      		breq .L477
 4734 161e 2230      		cpi r18,lo8(2)
 4735 1620 01F4      		brne .L404
 4736               	.LM706:
 4737 1622 00D0      		rcall .
 4738 1624 00D0      		rcall .
 4739 1626 EDB7      		in r30,__SP_L__
 4740 1628 FEB7      		in r31,__SP_H__
 4741 162a 3196      		adiw r30,1
 4742 162c ADB7      		in r26,__SP_L__
 4743 162e BEB7      		in r27,__SP_H__
 4744 1630 1296      		adiw r26,1+1
 4745 1632 9C92      		st X,r9
 4746 1634 8E92      		st -X,r8
 4747 1636 1197      		sbiw r26,1
 4748 1638 8283      		std Z+2,r24
 4749 163a 1382      		std Z+3,__zero_reg__
 4750 163c 0E94 0000 		call rprintf
 4751 1640 0F90      		pop __tmp_reg__
 4752 1642 0F90      		pop __tmp_reg__
 4753 1644 0F90      		pop __tmp_reg__
 4754 1646 0F90      		pop __tmp_reg__
 4755               	.L404:
 4756               	.LM707:
 4757 1648 E12F      		mov r30,r17
 4758 164a F0E0      		ldi r31,lo8(0)
 4759               	.LVL448:
 4760 164c E232      		cpi r30,34
 4761 164e F105      		cpc r31,__zero_reg__
 4762 1650 00F4      		brsh .L507
 4763               	.LVL449:
 4764               	.L502:
 4765 1652 E050      		subi r30,lo8(-(gs(.L437)))
 4766 1654 F040      		sbci r31,hi8(-(gs(.L437)))
 4767               	.LVL450:
 4768 1656 EE0F      		lsl r30
 4769 1658 FF1F      		rol r31
 4770 165a 0590      		lpm __tmp_reg__,Z+
 4771 165c F491      		lpm r31,Z
 4772 165e E02D      		mov r30,__tmp_reg__
 4773 1660 0994      		ijmp
 4774               	.LVL451:
 4775               		.data
 4776               		.section .progmem.gcc_sw_table, "a", @progbits
 4777               		.p2align 1
 4778               	.L437:
 4779               		.data
 4780               		.section .progmem.gcc_sw_table, "a", @progbits
 4781               		.p2align 1
 4782 0000 0000      		.word gs(.L408)
 4783 0002 0000      		.word gs(.L409)
 4784 0004 0000      		.word gs(.L410)
 4785 0006 0000      		.word gs(.L411)
 4786 0008 0000      		.word gs(.L412)
 4787 000a 0000      		.word gs(.L413)
 4788 000c 0000      		.word gs(.L414)
 4789 000e 0000      		.word gs(.L415)
 4790 0010 0000      		.word gs(.L416)
 4791 0012 0000      		.word gs(.L507)
 4792 0014 0000      		.word gs(.L417)
 4793 0016 0000      		.word gs(.L418)
 4794 0018 0000      		.word gs(.L419)
 4795 001a 0000      		.word gs(.L420)
 4796 001c 0000      		.word gs(.L507)
 4797 001e 0000      		.word gs(.L421)
 4798 0020 0000      		.word gs(.L422)
 4799 0022 0000      		.word gs(.L507)
 4800 0024 0000      		.word gs(.L423)
 4801 0026 0000      		.word gs(.L507)
 4802 0028 0000      		.word gs(.L424)
 4803 002a 0000      		.word gs(.L425)
 4804 002c 0000      		.word gs(.L426)
 4805 002e 0000      		.word gs(.L507)
 4806 0030 0000      		.word gs(.L427)
 4807 0032 0000      		.word gs(.L428)
 4808 0034 0000      		.word gs(.L429)
 4809 0036 0000      		.word gs(.L430)
 4810 0038 0000      		.word gs(.L431)
 4811 003a 0000      		.word gs(.L432)
 4812 003c 0000      		.word gs(.L433)
 4813 003e 0000      		.word gs(.L434)
 4814 0040 0000      		.word gs(.L435)
 4815 0042 0000      		.word gs(.L436)
 4816               		.text
 4817               	.LVL452:
 4818               	.L477:
 4819               	.LBB242:
 4820               	.LBB243:
 4821               	.LM708:
 4822 1662 8091 C000 		lds r24,192
 4823 1666 85FF      		sbrs r24,5
 4824 1668 00C0      		rjmp .L477
 4825               	.LM709:
 4826 166a 1093 C600 		sts 198,r17
 4827               	.LBE243:
 4828               	.LBE242:
 4829               	.LM710:
 4830 166e E12F      		mov r30,r17
 4831 1670 F0E0      		ldi r31,lo8(0)
 4832               	.LVL453:
 4833 1672 E232      		cpi r30,34
 4834 1674 F105      		cpc r31,__zero_reg__
 4835 1676 00F0      		brlo .L502
 4836               	.LVL454:
 4837               	.L507:
 4838 1678 2091 0000 		lds r18,debug_msg
 4839               	.LVL455:
 4840               	.L407:
 4841               	.LM711:
 4842 167c 2130      		cpi r18,lo8(1)
 4843 167e 01F0      		breq .L474
 4844               	.LVL456:
 4845 1680 2230      		cpi r18,lo8(2)
 4846 1682 01F0      		breq .+2
 4847 1684 00C0      		rjmp .L501
 4848               	.LM712:
 4849 1686 8091 0000 		lds r24,RX_bytes
 4850 168a 00D0      		rcall .
 4851 168c 00D0      		rcall .
 4852 168e EDB7      		in r30,__SP_L__
 4853 1690 FEB7      		in r31,__SP_H__
 4854 1692 3196      		adiw r30,1
 4855 1694 ADB7      		in r26,__SP_L__
 4856 1696 BEB7      		in r27,__SP_H__
 4857 1698 1296      		adiw r26,1+1
 4858 169a 7C92      		st X,r7
 4859 169c 6E92      		st -X,r6
 4860 169e 1197      		sbiw r26,1
 4861 16a0 8283      		std Z+2,r24
 4862 16a2 1382      		std Z+3,__zero_reg__
 4863 16a4 0E94 0000 		call rprintf
 4864               	.LVL457:
 4865 16a8 0F90      		pop __tmp_reg__
 4866 16aa 0F90      		pop __tmp_reg__
 4867 16ac 0F90      		pop __tmp_reg__
 4868 16ae 0F90      		pop __tmp_reg__
 4869 16b0 00C0      		rjmp .L501
 4870               	.LVL458:
 4871               	.L474:
 4872               	.LBB244:
 4873               	.LBB245:
 4874               	.LM713:
 4875 16b2 8091 C000 		lds r24,192
 4876 16b6 85FF      		sbrs r24,5
 4877 16b8 00C0      		rjmp .L474
 4878               	.LM714:
 4879 16ba 1092 C600 		sts 198,__zero_reg__
 4880 16be 00C0      		rjmp .L501
 4881               	.LVL459:
 4882               	.L430:
 4883               	.LBE245:
 4884               	.LBE244:
 4885               	.LM715:
 4886 16c0 0E94 0000 		call RX_get_byte
 4887               	.LVL460:
 4888 16c4 182F      		mov r17,r24
 4889               	.LVL461:
 4890               	.LM716:
 4891 16c6 0E94 0000 		call RX_get_byte
 4892 16ca 682F      		mov r22,r24
 4893               	.LVL462:
 4894               	.LM717:
 4895 16cc 812F      		mov r24,r17
 4896 16ce 0E94 0000 		call write_data_LCD
 4897               	.LVL463:
 4898               	.L431:
 4899               	.LM718:
 4900 16d2 0E94 0000 		call RX_get_byte
 4901               	.LVL464:
 4902 16d6 D82E      		mov r13,r24
 4903               	.LVL465:
 4904               	.LM719:
 4905 16d8 0E94 0000 		call RX_get_byte
 4906 16dc E82E      		mov r14,r24
 4907               	.LVL466:
 4908               	.LM720:
 4909 16de 0E94 0000 		call RX_get_byte
 4910 16e2 F82E      		mov r15,r24
 4911 16e4 20E8      		ldi r18,lo8(-128)
 4912 16e6 2817      		cp r18,r24
 4913 16e8 00F0      		brlo .+2
 4914 16ea 00C0      		rjmp .L450
 4915               	.LVL467:
 4916 16ec 80E8      		ldi r24,lo8(-128)
 4917 16ee F82E      		mov r15,r24
 4918               	.LVL468:
 4919               	.L505:
 4920               	.LM721:
 4921 16f0 00E0      		ldi r16,lo8(0)
 4922 16f2 10E0      		ldi r17,hi8(0)
 4923               	.LVL469:
 4924               	.L452:
 4925               	.LM722:
 4926 16f4 0E94 0000 		call RX_get_byte
 4927 16f8 F801      		movw r30,r16
 4928 16fa E050      		subi r30,lo8(-(buffer))
 4929 16fc F040      		sbci r31,hi8(-(buffer))
 4930 16fe 8083      		st Z,r24
 4931 1700 0F5F      		subi r16,lo8(-(1))
 4932 1702 1F4F      		sbci r17,hi8(-(1))
 4933               	.LM723:
 4934 1704 0F15      		cp r16,r15
 4935 1706 00F0      		brlo .L452
 4936               	.LVL470:
 4937               	.L451:
 4938               	.LM724:
 4939 1708 8D2D      		mov r24,r13
 4940 170a 6E2D      		mov r22,r14
 4941 170c 4F2D      		mov r20,r15
 4942 170e 20E0      		ldi r18,lo8(buffer)
 4943 1710 30E0      		ldi r19,hi8(buffer)
 4944 1712 0E94 0000 		call write_block
 4945 1716 2091 0000 		lds r18,debug_msg
 4946 171a 00C0      		rjmp .L407
 4947               	.LVL471:
 4948               	.L408:
 4949               	.LM725:
 4950 171c 80E0      		ldi r24,lo8(0)
 4951 171e 0E94 0000 		call clear_screen
 4952               	.LVL472:
 4953               	.LM726:
 4954 1722 1092 0000 		sts x_offset,__zero_reg__
 4955               	.LM727:
 4956 1726 1092 0000 		sts y_offset,__zero_reg__
 4957 172a 2091 0000 		lds r18,debug_msg
 4958 172e 00C0      		rjmp .L407
 4959               	.LVL473:
 4960               	.L432:
 4961               	.LM728:
 4962 1730 0E94 0000 		call RX_get_byte
 4963               	.LVL474:
 4964               	.LM729:
 4965 1734 0E94 0000 		call read_data_LCD
 4966 1738 982F      		mov r25,r24
 4967               	.LVL475:
 4968               	.LM730:
 4969 173a 2091 0000 		lds r18,debug_msg
 4970 173e 2230      		cpi r18,lo8(2)
 4971 1740 01F4      		brne .+2
 4972 1742 00C0      		rjmp .L509
 4973               	.L475:
 4974               	.LBB246:
 4975               	.LBB247:
 4976               	.LM731:
 4977 1744 8091 C000 		lds r24,192
 4978 1748 85FF      		sbrs r24,5
 4979 174a 00C0      		rjmp .L475
 4980               	.LBE247:
 4981               	.LBE246:
 4982               	.LBB248:
 4983               	.LBB249:
 4984               	.LM732:
 4985 174c 9093 C600 		sts 198,r25
 4986 1750 00C0      		rjmp .L407
 4987               	.LVL476:
 4988               	.L429:
 4989               	.LBE249:
 4990               	.LBE248:
 4991               	.LM733:
 4992 1752 0E94 0000 		call RX_get_byte
 4993               	.LVL477:
 4994 1756 182F      		mov r17,r24
 4995               	.LVL478:
 4996               	.LM734:
 4997 1758 0E94 0000 		call RX_get_byte
 4998 175c 682F      		mov r22,r24
 4999               	.LVL479:
 5000               	.LM735:
 5001 175e 812F      		mov r24,r17
 5002 1760 0E94 0000 		call write_command_LCD
 5003               	.LVL480:
 5004 1764 2091 0000 		lds r18,debug_msg
 5005 1768 00C0      		rjmp .L407
 5006               	.LVL481:
 5007               	.L428:
 5008               	.LM736:
 5009 176a 0E94 0000 		call RX_get_byte
 5010               	.LVL482:
 5011 176e 8093 0000 		sts y_offset,r24
 5012               	.LM737:
 5013 1772 8823      		tst r24
 5014 1774 04F0      		brlt .+2
 5015 1776 00C0      		rjmp .L507
 5016 1778 4092 0000 		sts y_offset,r4
 5017 177c 2091 0000 		lds r18,debug_msg
 5018 1780 00C0      		rjmp .L407
 5019               	.LVL483:
 5020               	.L427:
 5021               	.LM738:
 5022 1782 0E94 0000 		call RX_get_byte
 5023               	.LVL484:
 5024 1786 8093 0000 		sts x_offset,r24
 5025               	.LM739:
 5026 178a 803A      		cpi r24,lo8(-96)
 5027 178c 00F4      		brsh .+2
 5028 178e 00C0      		rjmp .L507
 5029 1790 3092 0000 		sts x_offset,r3
 5030 1794 2091 0000 		lds r18,debug_msg
 5031 1798 00C0      		rjmp .L407
 5032               	.LVL485:
 5033               	.L426:
 5034               	.LM740:
 5035 179a 0E94 0000 		call RX_get_byte
 5036               	.LVL486:
 5037 179e F82E      		mov r15,r24
 5038               	.LVL487:
 5039               	.LM741:
 5040 17a0 0E94 0000 		call RX_get_byte
 5041 17a4 E82E      		mov r14,r24
 5042               	.LVL488:
 5043               	.LM742:
 5044 17a6 0E94 0000 		call RX_get_byte
 5045 17aa 082F      		mov r16,r24
 5046               	.LVL489:
 5047               	.LM743:
 5048 17ac 0E94 0000 		call RX_get_byte
 5049 17b0 182F      		mov r17,r24
 5050               	.LVL490:
 5051               	.LM744:
 5052 17b2 0E94 0000 		call RX_get_byte
 5053 17b6 282F      		mov r18,r24
 5054               	.LVL491:
 5055               	.LM745:
 5056 17b8 8F2D      		mov r24,r15
 5057 17ba 6E2D      		mov r22,r14
 5058 17bc 412F      		mov r20,r17
 5059 17be EE24      		clr r14
 5060 17c0 FF24      		clr r15
 5061               	.LVL492:
 5062 17c2 0E94 0000 		call bitblt
 5063               	.LVL493:
 5064 17c6 2091 0000 		lds r18,debug_msg
 5065 17ca 00C0      		rjmp .L407
 5066               	.LVL494:
 5067               	.L425:
 5068               	.LM746:
 5069 17cc 6091 0000 		lds r22,splash_screen
 5070 17d0 6225      		eor r22,r2
 5071 17d2 6093 0000 		sts splash_screen,r22
 5072               	.LM747:
 5073               	/* #APP */
 5074               	 ;  707 "main.c" 1
 5075 17d6 F894      		cli
 5076               	 ;  0 "" 2
 5077               	.LM748:
 5078               	/* #NOAPP */
 5079 17d8 82E0      		ldi r24,lo8(2)
 5080 17da 90E0      		ldi r25,hi8(2)
 5081 17dc 0E94 0000 		call EEPROM_write
 5082               	.LVL495:
 5083               	.LM749:
 5084               	/* #APP */
 5085               	 ;  709 "main.c" 1
 5086 17e0 7894      		sei
 5087               	 ;  0 "" 2
 5088               	/* #NOAPP */
 5089 17e2 2091 0000 		lds r18,debug_msg
 5090 17e6 00C0      		rjmp .L407
 5091               	.LVL496:
 5092               	.L424:
 5093               	.LM750:
 5094 17e8 8091 0000 		lds r24,reverse
 5095 17ec 8225      		eor r24,r2
 5096 17ee 8093 0000 		sts reverse,r24
 5097               	.LM751:
 5098 17f2 81E0      		ldi r24,lo8(1)
 5099 17f4 0E94 0000 		call clear_screen
 5100               	.LVL497:
 5101               	.LM752:
 5102               	/* #APP */
 5103               	 ;  700 "main.c" 1
 5104 17f8 F894      		cli
 5105               	 ;  0 "" 2
 5106               	.LM753:
 5107               	/* #NOAPP */
 5108 17fa 83E0      		ldi r24,lo8(3)
 5109 17fc 90E0      		ldi r25,hi8(3)
 5110 17fe 6091 0000 		lds r22,reverse
 5111 1802 0E94 0000 		call EEPROM_write
 5112               	.LM754:
 5113               	/* #APP */
 5114               	 ;  702 "main.c" 1
 5115 1806 7894      		sei
 5116               	 ;  0 "" 2
 5117               	/* #NOAPP */
 5118 1808 2091 0000 		lds r18,debug_msg
 5119 180c 00C0      		rjmp .L407
 5120               	.LVL498:
 5121               	.L423:
 5122               	.LM755:
 5123 180e 0E94 0000 		call RX_get_byte
 5124               	.LVL499:
 5125 1812 182F      		mov r17,r24
 5126               	.LVL500:
 5127               	.LM756:
 5128 1814 0E94 0000 		call RX_get_byte
 5129 1818 F82E      		mov r15,r24
 5130               	.LVL501:
 5131               	.LM757:
 5132 181a 0E94 0000 		call RX_get_byte
 5133 181e E82E      		mov r14,r24
 5134               	.LVL502:
 5135               	.LM758:
 5136 1820 0E94 0000 		call RX_get_byte
 5137 1824 D82E      		mov r13,r24
 5138               	.LVL503:
 5139               	.LM759:
 5140 1826 0E94 0000 		call RX_get_byte
 5141 182a 082F      		mov r16,r24
 5142               	.LVL504:
 5143               	.LM760:
 5144 182c 812F      		mov r24,r17
 5145 182e 6F2D      		mov r22,r15
 5146 1830 4E2D      		mov r20,r14
 5147 1832 2D2D      		mov r18,r13
 5148 1834 0E94 0000 		call draw_block
 5149 1838 2091 0000 		lds r18,debug_msg
 5150 183c 00C0      		rjmp .L407
 5151               	.LVL505:
 5152               	.L422:
 5153               	.LM761:
 5154 183e 0E94 0000 		call RX_get_byte
 5155               	.LVL506:
 5156 1842 082F      		mov r16,r24
 5157               	.LVL507:
 5158               	.LM762:
 5159 1844 0E94 0000 		call RX_get_byte
 5160 1848 182F      		mov r17,r24
 5161               	.LVL508:
 5162               	.LM763:
 5163 184a 0E94 0000 		call RX_get_byte
 5164               	.LM764:
 5165 184e 602F      		mov r22,r16
 5166 1850 412F      		mov r20,r17
 5167 1852 0E94 0000 		call pixel
 5168 1856 2091 0000 		lds r18,debug_msg
 5169 185a 00C0      		rjmp .L407
 5170               	.LVL509:
 5171               	.L421:
 5172               	.LM765:
 5173 185c 0E94 0000 		call RX_get_byte
 5174               	.LVL510:
 5175 1860 182F      		mov r17,r24
 5176               	.LVL511:
 5177               	.LM766:
 5178 1862 0E94 0000 		call RX_get_byte
 5179 1866 F82E      		mov r15,r24
 5180               	.LVL512:
 5181               	.LM767:
 5182 1868 0E94 0000 		call RX_get_byte
 5183 186c E82E      		mov r14,r24
 5184               	.LVL513:
 5185               	.LM768:
 5186 186e 0E94 0000 		call RX_get_byte
 5187 1872 D82E      		mov r13,r24
 5188               	.LM769:
 5189 1874 0E94 0000 		call RX_get_byte
 5190 1878 082F      		mov r16,r24
 5191               	.LVL514:
 5192               	.LM770:
 5193 187a 812F      		mov r24,r17
 5194 187c 6F2D      		mov r22,r15
 5195 187e 4E2D      		mov r20,r14
 5196 1880 2D2D      		mov r18,r13
 5197 1882 0E94 0000 		call box
 5198 1886 2091 0000 		lds r18,debug_msg
 5199 188a 00C0      		rjmp .L407
 5200               	.LVL515:
 5201               	.L420:
 5202               	.LM771:
 5203 188c 0E94 0000 		call RX_get_byte
 5204               	.LVL516:
 5205 1890 8830      		cpi r24,lo8(8)
 5206               	.LVL517:
 5207 1892 00F0      		brlo .L448
 5208 1894 87E0      		ldi r24,lo8(7)
 5209               	.L448:
 5210 1896 A2E2      		ldi r26,lo8(34)
 5211 1898 8A9F      		mul r24,r26
 5212 189a 8001      		movw r16,r0
 5213 189c 1124      		clr r1
 5214               	.LVL518:
 5215 189e 0050      		subi r16,lo8(-(sprite))
 5216 18a0 1040      		sbci r17,hi8(-(sprite))
 5217 18a2 EE24      		clr r14
 5218 18a4 FF24      		clr r15
 5219               	.LVL519:
 5220               	.L449:
 5221               	.LM772:
 5222 18a6 0E94 0000 		call RX_get_byte
 5223               	.LVL520:
 5224 18aa F801      		movw r30,r16
 5225 18ac 8193      		st Z+,r24
 5226 18ae 8F01      		movw r16,r30
 5227               	.LM773:
 5228 18b0 0894      		sec
 5229 18b2 E11C      		adc r14,__zero_reg__
 5230 18b4 F11C      		adc r15,__zero_reg__
 5231 18b6 F2E2      		ldi r31,lo8(34)
 5232 18b8 EF16      		cp r14,r31
 5233 18ba F104      		cpc r15,__zero_reg__
 5234 18bc 01F4      		brne .L449
 5235 18be 00C0      		rjmp .L507
 5236               	.LVL521:
 5237               	.L419:
 5238               	.LM774:
 5239 18c0 0E94 0000 		call RX_get_byte
 5240               	.LVL522:
 5241 18c4 182F      		mov r17,r24
 5242               	.LVL523:
 5243               	.LM775:
 5244 18c6 0E94 0000 		call RX_get_byte
 5245 18ca F82E      		mov r15,r24
 5246               	.LVL524:
 5247               	.LM776:
 5248 18cc 0E94 0000 		call RX_get_byte
 5249 18d0 E82E      		mov r14,r24
 5250               	.LVL525:
 5251               	.LM777:
 5252 18d2 0E94 0000 		call RX_get_byte
 5253 18d6 082F      		mov r16,r24
 5254               	.LVL526:
 5255               	.LM778:
 5256 18d8 0E94 0000 		call RX_get_byte
 5257               	.LM779:
 5258 18dc 612F      		mov r22,r17
 5259 18de 4F2D      		mov r20,r15
 5260 18e0 2E2D      		mov r18,r14
 5261 18e2 0E94 0000 		call line
 5262 18e6 2091 0000 		lds r18,debug_msg
 5263 18ea 00C0      		rjmp .L407
 5264               	.LVL527:
 5265               	.L418:
 5266               	.LM780:
 5267 18ec 0E94 0000 		call RX_get_byte
 5268               	.LVL528:
 5269 18f0 082F      		mov r16,r24
 5270               	.LVL529:
 5271               	.LM781:
 5272 18f2 0E94 0000 		call RX_get_byte
 5273 18f6 F82E      		mov r15,r24
 5274               	.LVL530:
 5275               	.LM782:
 5276 18f8 0E94 0000 		call RX_get_byte
 5277 18fc 182F      		mov r17,r24
 5278               	.LVL531:
 5279               	.LM783:
 5280 18fe 0E94 0000 		call RX_get_byte
 5281 1902 282F      		mov r18,r24
 5282               	.LVL532:
 5283               	.LM784:
 5284 1904 802F      		mov r24,r16
 5285 1906 6F2D      		mov r22,r15
 5286 1908 412F      		mov r20,r17
 5287 190a 0E94 0000 		call draw_sprite
 5288               	.LVL533:
 5289 190e 2091 0000 		lds r18,debug_msg
 5290 1912 00C0      		rjmp .L407
 5291               	.LVL534:
 5292               	.L417:
 5293               	.LM785:
 5294 1914 0E94 0000 		call RX_get_byte
 5295               	.LVL535:
 5296               	.LM786:
 5297 1918 8830      		cpi r24,lo8(8)
 5298               	.LVL536:
 5299 191a 00F0      		brlo .L447
 5300 191c 87E0      		ldi r24,lo8(7)
 5301               	.L447:
 5302 191e 8093 0000 		sts font_mode,r24
 5303 1922 2091 0000 		lds r18,debug_msg
 5304 1926 00C0      		rjmp .L407
 5305               	.LVL537:
 5306               	.L436:
 5307               	.LM787:
 5308 1928 0E94 0000 		call RX_get_byte
 5309               	.LVL538:
 5310               	.LM788:
 5311 192c 886B      		ori r24,lo8(-72)
 5312 192e 60E0      		ldi r22,lo8(0)
 5313 1930 0E94 0000 		call write_command_LCD
 5314 1934 00C0      		rjmp .L507
 5315               	.LVL539:
 5316               	.L435:
 5317               	.LM789:
 5318 1936 0E94 0000 		call RX_get_byte
 5319               	.LVL540:
 5320               	.LM790:
 5321 193a 8064      		ori r24,lo8(64)
 5322 193c 60E0      		ldi r22,lo8(0)
 5323 193e 0E94 0000 		call write_command_LCD
 5324 1942 2091 0000 		lds r18,debug_msg
 5325 1946 00C0      		rjmp .L407
 5326               	.LVL541:
 5327               	.L434:
 5328               	.LM791:
 5329 1948 0E94 0000 		call RX_get_byte
 5330               	.LVL542:
 5331 194c F82E      		mov r15,r24
 5332               	.LVL543:
 5333               	.LM792:
 5334 194e 0E94 0000 		call RX_get_byte
 5335 1952 082F      		mov r16,r24
 5336               	.LVL544:
 5337               	.LM793:
 5338 1954 0E94 0000 		call RX_get_byte
 5339 1958 182F      		mov r17,r24
 5340               	.LVL545:
 5341 195a 8138      		cpi r24,lo8(-127)
 5342 195c 00F0      		brlo .L455
 5343               	.LVL546:
 5344 195e 10E8      		ldi r17,lo8(-128)
 5345               	.LVL547:
 5346               	.L455:
 5347               	.LM794:
 5348 1960 8F2D      		mov r24,r15
 5349 1962 602F      		mov r22,r16
 5350 1964 412F      		mov r20,r17
 5351 1966 20E0      		ldi r18,lo8(buffer)
 5352 1968 30E0      		ldi r19,hi8(buffer)
 5353 196a 0E94 0000 		call read_block
 5354               	.LM795:
 5355 196e 1123      		tst r17
 5356 1970 01F4      		brne .+2
 5357 1972 00C0      		rjmp .L507
 5358 1974 00E0      		ldi r16,lo8(buffer)
 5359 1976 E02E      		mov r14,r16
 5360 1978 00E0      		ldi r16,hi8(buffer)
 5361 197a F02E      		mov r15,r16
 5362               	.LVL548:
 5363 197c 2091 0000 		lds r18,debug_msg
 5364 1980 1150      		subi r17,lo8(-(-1))
 5365 1982 012F      		mov r16,r17
 5366 1984 10E0      		ldi r17,lo8(0)
 5367               	.LVL549:
 5368 1986 0050      		subi r16,lo8(-(buffer+1))
 5369 1988 1040      		sbci r17,hi8(-(buffer+1))
 5370               	.LM796:
 5371 198a 2230      		cpi r18,lo8(2)
 5372 198c 01F0      		breq .L515
 5373               	.L456:
 5374               	.LM797:
 5375 198e F701      		movw r30,r14
 5376 1990 9081      		ld r25,Z
 5377               	.L458:
 5378               	.LBB251:
 5379               	.LBB252:
 5380               	.LM798:
 5381 1992 8091 C000 		lds r24,192
 5382 1996 85FF      		sbrs r24,5
 5383 1998 00C0      		rjmp .L458
 5384               	.LM799:
 5385 199a 9093 C600 		sts 198,r25
 5386               	.L457:
 5387 199e 0894      		sec
 5388 19a0 E11C      		adc r14,__zero_reg__
 5389 19a2 F11C      		adc r15,__zero_reg__
 5390               	.LBE252:
 5391               	.LBE251:
 5392               	.LM800:
 5393 19a4 E016      		cp r14,r16
 5394 19a6 F106      		cpc r15,r17
 5395 19a8 01F4      		brne .+2
 5396 19aa 00C0      		rjmp .L407
 5397               	.LM801:
 5398 19ac 2230      		cpi r18,lo8(2)
 5399 19ae 01F4      		brne .L456
 5400               	.L515:
 5401               	.LM802:
 5402 19b0 00D0      		rcall .
 5403 19b2 00D0      		rcall .
 5404 19b4 EDB7      		in r30,__SP_L__
 5405 19b6 FEB7      		in r31,__SP_H__
 5406 19b8 3196      		adiw r30,1
 5407 19ba ADB7      		in r26,__SP_L__
 5408 19bc BEB7      		in r27,__SP_H__
 5409 19be 1296      		adiw r26,1+1
 5410 19c0 BC92      		st X,r11
 5411 19c2 AE92      		st -X,r10
 5412 19c4 1197      		sbiw r26,1
 5413 19c6 D701      		movw r26,r14
 5414 19c8 8C91      		ld r24,X
 5415 19ca 8283      		std Z+2,r24
 5416 19cc 1382      		std Z+3,__zero_reg__
 5417 19ce 0E94 0000 		call rprintf
 5418 19d2 0F90      		pop __tmp_reg__
 5419 19d4 0F90      		pop __tmp_reg__
 5420 19d6 0F90      		pop __tmp_reg__
 5421 19d8 0F90      		pop __tmp_reg__
 5422 19da 2091 0000 		lds r18,debug_msg
 5423 19de 00C0      		rjmp .L457
 5424               	.LVL550:
 5425               	.L433:
 5426               	.LM803:
 5427 19e0 0E94 0000 		call RX_get_byte
 5428               	.LVL551:
 5429 19e4 182F      		mov r17,r24
 5430               	.LVL552:
 5431               	.LM804:
 5432 19e6 0E94 0000 		call RX_get_byte
 5433 19ea 682F      		mov r22,r24
 5434               	.LVL553:
 5435               	.LM805:
 5436 19ec 812F      		mov r24,r17
 5437 19ee 0E94 0000 		call read_byte
 5438               	.LVL554:
 5439 19f2 982F      		mov r25,r24
 5440               	.LVL555:
 5441               	.LM806:
 5442 19f4 2091 0000 		lds r18,debug_msg
 5443 19f8 2230      		cpi r18,lo8(2)
 5444 19fa 01F4      		brne .+2
 5445 19fc 00C0      		rjmp .L509
 5446               	.L476:
 5447               	.LBB253:
 5448               	.LBB250:
 5449               	.LM807:
 5450 19fe 8091 C000 		lds r24,192
 5451 1a02 85FF      		sbrs r24,5
 5452 1a04 00C0      		rjmp .L476
 5453               	.LM808:
 5454 1a06 9093 C600 		sts 198,r25
 5455 1a0a 00C0      		rjmp .L407
 5456               	.LVL556:
 5457               	.L416:
 5458               	.LBE250:
 5459               	.LBE253:
 5460               	.LM809:
 5461 1a0c 8091 0000 		lds r24,aux_font
 5462 1a10 8130      		cpi r24,lo8(1)
 5463 1a12 01F4      		brne .+2
 5464 1a14 00C0      		rjmp .L516
 5465               	.LM810:
 5466 1a16 2092 0000 		sts aux_font,r2
 5467               	.LM811:
 5468 1a1a A981      		ldd r26,Y+1
 5469 1a1c A093 0000 		sts font_w,r26
 5470               	.LM812:
 5471 1a20 BA81      		ldd r27,Y+2
 5472 1a22 B093 0000 		sts font_h,r27
 5473               	.LM813:
 5474 1a26 EB81      		ldd r30,Y+3
 5475 1a28 E093 0000 		sts font_space,r30
 5476               	.LM814:
 5477 1a2c FC81      		ldd r31,Y+4
 5478               	.LVL557:
 5479 1a2e F093 0000 		sts font_bytes,r31
 5480               	.LM815:
 5481 1a32 8D81      		ldd r24,Y+5
 5482 1a34 9E81      		ldd r25,Y+6
 5483 1a36 892B      		or r24,r25
 5484 1a38 01F0      		breq .L446
 5485               	.LM816:
 5486 1a3a 9F81      		ldd r25,Y+7
 5487 1a3c 9093 0000 		sts font_bytes,r25
 5488               	.L446:
 5489               	.LM817:
 5490 1a40 8091 0000 		lds r24,font_bytes
 5491 1a44 9091 0000 		lds r25,font_w
 5492 1a48 899F      		mul r24,r25
 5493 1a4a 802D      		mov r24,r0
 5494 1a4c 1124      		clr r1
 5495 1a4e 8093 0000 		sts font_bytes,r24
 5496 1a52 2091 0000 		lds r18,debug_msg
 5497 1a56 00C0      		rjmp .L407
 5498               	.LVL558:
 5499               	.L415:
 5500               	.LM818:
 5501 1a58 0E94 0000 		call RX_get_byte
 5502               	.LVL559:
 5503 1a5c 982F      		mov r25,r24
 5504               	.LVL560:
 5505               	.LM819:
 5506 1a5e 8150      		subi r24,lo8(-(-1))
 5507 1a60 8630      		cpi r24,lo8(6)
 5508 1a62 00F4      		brsh .L443
 5509 1a64 9093 0000 		sts baud_rate,r25
 5510               	.L443:
 5511               	.LM820:
 5512 1a68 8091 0000 		lds r24,baud_rate
 5513 1a6c 0E94 0000 		call set_baud
 5514               	.LVL561:
 5515               	.LM821:
 5516               	/* #APP */
 5517               	 ;  513 "main.c" 1
 5518 1a70 F894      		cli
 5519               	 ;  0 "" 2
 5520               	.LM822:
 5521               	/* #NOAPP */
 5522 1a72 80E0      		ldi r24,lo8(0)
 5523 1a74 90E0      		ldi r25,hi8(0)
 5524 1a76 6091 0000 		lds r22,baud_rate
 5525 1a7a 0E94 0000 		call EEPROM_write
 5526               	.LM823:
 5527               	/* #APP */
 5528               	 ;  515 "main.c" 1
 5529 1a7e 7894      		sei
 5530               	 ;  0 "" 2
 5531               	/* #NOAPP */
 5532 1a80 2091 0000 		lds r18,debug_msg
 5533 1a84 00C0      		rjmp .L407
 5534               	.LVL562:
 5535               	.L414:
 5536               	.LM824:
 5537 1a86 0E94 0000 		call LCD_reset
 5538               	.LVL563:
 5539 1a8a 2091 0000 		lds r18,debug_msg
 5540 1a8e 00C0      		rjmp .L407
 5541               	.LVL564:
 5542               	.L413:
 5543               	.LM825:
 5544 1a90 0E94 0000 		call RX_get_byte
 5545               	.LVL565:
 5546 1a94 E82E      		mov r14,r24
 5547               	.LVL566:
 5548               	.LM826:
 5549 1a96 0E94 0000 		call RX_get_byte
 5550 1a9a F82E      		mov r15,r24
 5551               	.LVL567:
 5552               	.LM827:
 5553 1a9c 0E94 0000 		call RX_get_byte
 5554 1aa0 182F      		mov r17,r24
 5555               	.LVL568:
 5556               	.LM828:
 5557 1aa2 0E94 0000 		call RX_get_byte
 5558 1aa6 282F      		mov r18,r24
 5559               	.LVL569:
 5560               	.LM829:
 5561 1aa8 8091 0000 		lds r24,reverse
 5562 1aac 8130      		cpi r24,lo8(1)
 5563 1aae 01F4      		brne .+2
 5564 1ab0 00C0      		rjmp .L517
 5565 1ab2 00E0      		ldi r16,lo8(0)
 5566               	.LVL570:
 5567               	.L442:
 5568               	.LM830:
 5569 1ab4 8E2D      		mov r24,r14
 5570 1ab6 6F2D      		mov r22,r15
 5571 1ab8 412F      		mov r20,r17
 5572 1aba 0E94 0000 		call draw_block
 5573               	.LVL571:
 5574 1abe 2091 0000 		lds r18,debug_msg
 5575 1ac2 00C0      		rjmp .L407
 5576               	.LVL572:
 5577               	.L412:
 5578               	.LM831:
 5579 1ac4 8091 0000 		lds r24,CR_LF
 5580 1ac8 8130      		cpi r24,lo8(1)
 5581 1aca 01F4      		brne .+2
 5582 1acc 00C0      		rjmp .L518
 5583               	.LM832:
 5584 1ace 2092 0000 		sts CR_LF,r2
 5585               	.L440:
 5586               	.LM833:
 5587               	/* #APP */
 5588               	 ;  469 "main.c" 1
 5589 1ad2 F894      		cli
 5590               	 ;  0 "" 2
 5591               	.LM834:
 5592               	/* #NOAPP */
 5593 1ad4 85E0      		ldi r24,lo8(5)
 5594 1ad6 90E0      		ldi r25,hi8(5)
 5595 1ad8 6091 0000 		lds r22,CR_LF
 5596 1adc 0E94 0000 		call EEPROM_write
 5597               	.LVL573:
 5598               	.LM835:
 5599               	/* #APP */
 5600               	 ;  471 "main.c" 1
 5601 1ae0 7894      		sei
 5602               	 ;  0 "" 2
 5603               	/* #NOAPP */
 5604 1ae2 2091 0000 		lds r18,debug_msg
 5605 1ae6 00C0      		rjmp .L407
 5606               	.LVL574:
 5607               	.L410:
 5608               	.LM836:
 5609 1ae8 0E94 0000 		call RX_get_byte
 5610               	.LVL575:
 5611 1aec 8093 0000 		sts BL_dutycycle,r24
 5612               	.LM837:
 5613 1af0 0E94 0000 		call set_backlight
 5614               	.LM838:
 5615               	/* #APP */
 5616               	 ;  441 "main.c" 1
 5617 1af4 F894      		cli
 5618               	 ;  0 "" 2
 5619               	.LM839:
 5620               	/* #NOAPP */
 5621 1af6 81E0      		ldi r24,lo8(1)
 5622 1af8 90E0      		ldi r25,hi8(1)
 5623 1afa 6091 0000 		lds r22,BL_dutycycle
 5624 1afe 0E94 0000 		call EEPROM_write
 5625               	.LM840:
 5626               	/* #APP */
 5627               	 ;  443 "main.c" 1
 5628 1b02 7894      		sei
 5629               	 ;  0 "" 2
 5630               	/* #NOAPP */
 5631 1b04 2091 0000 		lds r18,debug_msg
 5632 1b08 00C0      		rjmp .L407
 5633               	.LVL576:
 5634               	.L411:
 5635               	.LM841:
 5636 1b0a 0E94 0000 		call RX_get_byte
 5637               	.LVL577:
 5638 1b0e 182F      		mov r17,r24
 5639               	.LVL578:
 5640               	.LM842:
 5641 1b10 0E94 0000 		call RX_get_byte
 5642 1b14 082F      		mov r16,r24
 5643               	.LVL579:
 5644               	.LM843:
 5645 1b16 0E94 0000 		call RX_get_byte
 5646 1b1a F82E      		mov r15,r24
 5647               	.LVL580:
 5648               	.LM844:
 5649 1b1c 0E94 0000 		call RX_get_byte
 5650               	.LM845:
 5651 1b20 612F      		mov r22,r17
 5652 1b22 70E0      		ldi r23,lo8(0)
 5653 1b24 402F      		mov r20,r16
 5654 1b26 50E0      		ldi r21,lo8(0)
 5655 1b28 2F2D      		mov r18,r15
 5656 1b2a 30E0      		ldi r19,lo8(0)
 5657 1b2c 0E94 0000 		call circle
 5658 1b30 2091 0000 		lds r18,debug_msg
 5659 1b34 00C0      		rjmp .L407
 5660               	.LVL581:
 5661               	.L409:
 5662               	.LM846:
 5663 1b36 0E94 0000 		call RX_get_byte
 5664               	.LVL582:
 5665 1b3a 8093 0000 		sts debug_msg,r24
 5666               	.LM847:
 5667 1b3e 8330      		cpi r24,lo8(3)
 5668 1b40 00F0      		brlo .L438
 5669 1b42 82E0      		ldi r24,lo8(2)
 5670 1b44 8093 0000 		sts debug_msg,r24
 5671               	.L438:
 5672               	.LM848:
 5673               	/* #APP */
 5674               	 ;  429 "main.c" 1
 5675 1b48 F894      		cli
 5676               	 ;  0 "" 2
 5677               	.LM849:
 5678               	/* #NOAPP */
 5679 1b4a 84E0      		ldi r24,lo8(4)
 5680 1b4c 90E0      		ldi r25,hi8(4)
 5681 1b4e 6091 0000 		lds r22,debug_msg
 5682 1b52 0E94 0000 		call EEPROM_write
 5683               	.LM850:
 5684               	/* #APP */
 5685               	 ;  431 "main.c" 1
 5686 1b56 7894      		sei
 5687               	 ;  0 "" 2
 5688               	/* #NOAPP */
 5689 1b58 2091 0000 		lds r18,debug_msg
 5690 1b5c 00C0      		rjmp .L407
 5691               	.LVL583:
 5692               	.L392:
 5693               	.LM851:
 5694 1b5e 8091 0000 		lds r24,font_space
 5695               	.LVL584:
 5696 1b62 6091 0000 		lds r22,font_w
 5697 1b66 70E0      		ldi r23,lo8(0)
 5698 1b68 680F      		add r22,r24
 5699 1b6a 711D      		adc r23,__zero_reg__
 5700 1b6c 8091 0000 		lds r24,x_offset
 5701 1b70 90E0      		ldi r25,lo8(0)
 5702               	.LVL585:
 5703 1b72 0E94 0000 		call __divmodhi4
 5704 1b76 8093 0000 		sts x_offset,r24
 5705               	.LM852:
 5706 1b7a 9091 0000 		lds r25,debug_msg
 5707 1b7e 9230      		cpi r25,lo8(2)
 5708 1b80 01F0      		breq .L473
 5709               	.L396:
 5710               	.LM853:
 5711 1b82 8091 0000 		lds r24,CR_LF
 5712 1b86 8130      		cpi r24,lo8(1)
 5713 1b88 01F0      		breq .+2
 5714 1b8a 00C0      		rjmp .L501
 5715               	.LM854:
 5716 1b8c 9230      		cpi r25,lo8(2)
 5717 1b8e 01F0      		breq .L472
 5718               	.L398:
 5719               	.LM855:
 5720 1b90 7091 0000 		lds r23,y_offset
 5721 1b94 6091 0000 		lds r22,font_h
 5722 1b98 862F      		mov r24,r22
 5723 1b9a 90E0      		ldi r25,lo8(0)
 5724 1b9c 472F      		mov r20,r23
 5725 1b9e 50E0      		ldi r21,lo8(0)
 5726 1ba0 2227      		clr r18
 5727 1ba2 3327      		clr r19
 5728 1ba4 281B      		sub r18,r24
 5729 1ba6 390B      		sbc r19,r25
 5730 1ba8 281B      		sub r18,r24
 5731 1baa 390B      		sbc r19,r25
 5732 1bac 205C      		subi r18,lo8(-(64))
 5733 1bae 3F4F      		sbci r19,hi8(-(64))
 5734 1bb0 2417      		cp r18,r20
 5735 1bb2 3507      		cpc r19,r21
 5736 1bb4 04F4      		brge .L400
 5737               	.LM856:
 5738 1bb6 872F      		mov r24,r23
 5739 1bb8 0E94 0000 		call __udivmodqi4
 5740 1bbc 9093 0000 		sts y_offset,r25
 5741 1bc0 00C0      		rjmp .L501
 5742               	.L473:
 5743               	.LBB254:
 5744               	.LBB228:
 5745               	.LM857:
 5746 1bc2 8091 C000 		lds r24,192
 5747 1bc6 85FF      		sbrs r24,5
 5748 1bc8 00C0      		rjmp .L473
 5749               	.LM858:
 5750 1bca C092 C600 		sts 198,r12
 5751 1bce 00C0      		rjmp .L396
 5752               	.L472:
 5753               	.LBE228:
 5754               	.LBE254:
 5755               	.LBB255:
 5756               	.LBB231:
 5757               	.LM859:
 5758 1bd0 8091 C000 		lds r24,192
 5759 1bd4 85FF      		sbrs r24,5
 5760 1bd6 00C0      		rjmp .L472
 5761               	.LM860:
 5762 1bd8 5092 C600 		sts 198,r5
 5763 1bdc 00C0      		rjmp .L398
 5764               	.LVL586:
 5765               	.L513:
 5766               	.LBE231:
 5767               	.LBE255:
 5768               	.LM861:
 5769 1bde 0E94 0000 		call del_char
 5770               	.LVL587:
 5771               	.LM862:
 5772 1be2 8091 0000 		lds r24,debug_msg
 5773 1be6 8230      		cpi r24,lo8(2)
 5774 1be8 01F0      		breq .+2
 5775 1bea 00C0      		rjmp .L501
 5776               	.L479:
 5777               	.LBB256:
 5778               	.LBB257:
 5779               	.LM863:
 5780 1bec 8091 C000 		lds r24,192
 5781 1bf0 85FF      		sbrs r24,5
 5782 1bf2 00C0      		rjmp .L479
 5783               	.LM864:
 5784 1bf4 88E0      		ldi r24,lo8(8)
 5785 1bf6 8093 C600 		sts 198,r24
 5786 1bfa 00C0      		rjmp .L501
 5787               	.L401:
 5788               	.LBE257:
 5789               	.LBE256:
 5790               	.LM865:
 5791 1bfc 670F      		add r22,r23
 5792 1bfe 6093 0000 		sts y_offset,r22
 5793 1c02 00C0      		rjmp .L402
 5794               	.L400:
 5795               	.LM866:
 5796 1c04 670F      		add r22,r23
 5797 1c06 6093 0000 		sts y_offset,r22
 5798 1c0a 00C0      		rjmp .L501
 5799               	.LVL588:
 5800               	.L450:
 5801               	.LM867:
 5802 1c0c 8823      		tst r24
 5803 1c0e 01F0      		breq .+2
 5804 1c10 00C0      		rjmp .L505
 5805 1c12 00C0      		rjmp .L451
 5806               	.LVL589:
 5807               	.L509:
 5808               	.LM868:
 5809 1c14 00D0      		rcall .
 5810 1c16 00D0      		rcall .
 5811 1c18 EDB7      		in r30,__SP_L__
 5812 1c1a FEB7      		in r31,__SP_H__
 5813 1c1c 3196      		adiw r30,1
 5814 1c1e ADB7      		in r26,__SP_L__
 5815 1c20 BEB7      		in r27,__SP_H__
 5816 1c22 1296      		adiw r26,1+1
 5817 1c24 BC92      		st X,r11
 5818 1c26 AE92      		st -X,r10
 5819 1c28 1197      		sbiw r26,1
 5820 1c2a 9283      		std Z+2,r25
 5821 1c2c 1382      		std Z+3,__zero_reg__
 5822 1c2e 0E94 0000 		call rprintf
 5823               	.LVL590:
 5824 1c32 0F90      		pop __tmp_reg__
 5825 1c34 0F90      		pop __tmp_reg__
 5826 1c36 0F90      		pop __tmp_reg__
 5827 1c38 0F90      		pop __tmp_reg__
 5828 1c3a 2091 0000 		lds r18,debug_msg
 5829 1c3e 00C0      		rjmp .L407
 5830               	.LVL591:
 5831               	.L518:
 5832               	.LM869:
 5833 1c40 1092 0000 		sts CR_LF,__zero_reg__
 5834 1c44 00C0      		rjmp .L440
 5835               	.L516:
 5836               	.LM870:
 5837 1c46 1092 0000 		sts aux_font,__zero_reg__
 5838               	.LM871:
 5839 1c4a B885      		ldd r27,Y+8
 5840 1c4c B093 0000 		sts font_w,r27
 5841               	.LM872:
 5842 1c50 E985      		ldd r30,Y+9
 5843 1c52 E093 0000 		sts font_h,r30
 5844               	.LM873:
 5845 1c56 FA85      		ldd r31,Y+10
 5846               	.LVL592:
 5847 1c58 F093 0000 		sts font_space,r31
 5848               	.LM874:
 5849 1c5c 2B85      		ldd r18,Y+11
 5850 1c5e 2093 0000 		sts font_bytes,r18
 5851               	.LM875:
 5852 1c62 8C85      		ldd r24,Y+12
 5853 1c64 9D85      		ldd r25,Y+13
 5854 1c66 892B      		or r24,r25
 5855 1c68 01F4      		brne .+2
 5856 1c6a 00C0      		rjmp .L446
 5857               	.LM876:
 5858 1c6c 9E85      		ldd r25,Y+14
 5859 1c6e 9093 0000 		sts font_bytes,r25
 5860 1c72 00C0      		rjmp .L446
 5861               	.LVL593:
 5862               	.L517:
 5863               	.LM877:
 5864 1c74 0FEF      		ldi r16,lo8(-1)
 5865               	.LVL594:
 5866 1c76 00C0      		rjmp .L442
 5867               	.LVL595:
 5868               	.L386:
 5869               	.LM878:
 5870 1c78 8091 0000 		lds r24,baud_rate
 5871 1c7c 0E94 0000 		call set_baud
 5872 1c80 00C0      		rjmp .L387
 5873               	.L512:
 5874               	.LM879:
 5875 1c82 88E3      		ldi r24,lo8(56)
 5876 1c84 68E1      		ldi r22,lo8(24)
 5877 1c86 40E0      		ldi r20,lo8(0)
 5878 1c88 24E0      		ldi r18,lo8(4)
 5879 1c8a 0E94 0000 		call draw_sprite
 5880 1c8e 00C0      		rjmp .L385
 5881               	.LFE6:
 5883               	.global	baud_rate
 5884               		.data
 5887               	baud_rate:
 5888 003b 06        		.byte	6
 5889               	.global	RX_in
 5890               	.global	RX_in
 5891               		.section .bss
 5894               	RX_in:
 5895 0000 00        		.skip 1,0
 5896               	.global	RX_read
 5897               	.global	RX_read
 5900               	RX_read:
 5901 0001 0000      		.skip 2,0
 5902               	.global	RX_bytes
 5903               	.global	RX_bytes
 5906               	RX_bytes:
 5907 0003 00        		.skip 1,0
 5908               	.global	RX_pause
 5909               	.global	RX_pause
 5912               	RX_pause:
 5913 0004 00        		.skip 1,0
 5914               	.global	reverse
 5915               	.global	reverse
 5918               	reverse:
 5919 0005 00        		.skip 1,0
 5920               	.global	splash_screen
 5921               		.data
 5924               	splash_screen:
 5925 003c 01        		.byte	1
 5926               	.global	debug_msg
 5927               	.global	debug_msg
 5928               		.section .bss
 5931               	debug_msg:
 5932 0006 00        		.skip 1,0
 5933               	.global	BL_dutycycle
 5934               		.data
 5937               	BL_dutycycle:
 5938 003d 64        		.byte	100
 5939               	.global	sprite
 5942               	sprite:
 5943 003e 0A        		.byte	10
 5944 003f 10        		.byte	16
 5945 0040 80        		.byte	-128
 5946 0041 C0        		.byte	-64
 5947 0042 40        		.byte	64
 5948 0043 0C        		.byte	12
 5949 0044 3E        		.byte	62
 5950 0045 FE        		.byte	-2
 5951 0046 F2        		.byte	-14
 5952 0047 E0        		.byte	-32
 5953 0048 F0        		.byte	-16
 5954 0049 E0        		.byte	-32
 5955 004a FF        		.byte	-1
 5956 004b 7F        		.byte	127
 5957 004c 3F        		.byte	63
 5958 004d 1F        		.byte	31
 5959 004e 1F        		.byte	31
 5960 004f 1F        		.byte	31
 5961 0050 1F        		.byte	31
 5962 0051 0F        		.byte	15
 5963 0052 07        		.byte	7
 5964 0053 03        		.byte	3
 5965 0054 0000 0000 		.skip 250,0
 5965      0000 0000 
 5965      0000 0000 
 5965      0000 0000 
 5965      0000 0000 
 5966               	.global	x_offset
 5967               	.global	x_offset
 5968               		.section .bss
 5971               	x_offset:
 5972 0007 00        		.skip 1,0
 5973               	.global	y_offset
 5974               	.global	y_offset
 5977               	y_offset:
 5978 0008 00        		.skip 1,0
 5979               	.global	font_mode
 5980               		.data
 5983               	font_mode:
 5984 014e 07        		.byte	7
 5985               	.global	CR_LF
 5988               	CR_LF:
 5989 014f 01        		.byte	1
 5990               	.global	aux_font
 5991               	.global	aux_font
 5992               		.section .bss
 5995               	aux_font:
 5996 0009 00        		.skip 1,0
 5997               		.lcomm y.2630,2
 5998               		.lcomm x.2629,2
 5999               		.lcomm height.2628,2
 6000               		.lcomm width.2627,2
 6001               		.lcomm temp_data2.2450,1
 6002               		.lcomm temp_data1.2449,1
 6003               		.lcomm temp_x.2448,1
 6004               		.lcomm temp_side.2447,1
 6005               		.lcomm temp_page.2446,1
 6006               		.section	.progmem.data,"a",@progbits
 6009               	text_array:
 6010 0000 05        		.byte	5
 6011 0001 08        		.byte	8
 6012 0002 01        		.byte	1
 6013 0003 00        		.byte	0
 6014 0004 00        		.byte	0
 6015 0005 00        		.byte	0
 6016 0006 00        		.byte	0
 6017 0007 00        		.byte	0
 6018 0008 00        		.byte	0
 6019 0009 6F        		.byte	111
 6020 000a 6F        		.byte	111
 6021 000b 00        		.byte	0
 6022 000c 00        		.byte	0
 6023 000d 00        		.byte	0
 6024 000e 07        		.byte	7
 6025 000f 00        		.byte	0
 6026 0010 07        		.byte	7
 6027 0011 00        		.byte	0
 6028 0012 14        		.byte	20
 6029 0013 7F        		.byte	127
 6030 0014 14        		.byte	20
 6031 0015 7F        		.byte	127
 6032 0016 14        		.byte	20
 6033 0017 00        		.byte	0
 6034 0018 26        		.byte	38
 6035 0019 6B        		.byte	107
 6036 001a 2A        		.byte	42
 6037 001b 10        		.byte	16
 6038 001c 43        		.byte	67
 6039 001d 33        		.byte	51
 6040 001e 08        		.byte	8
 6041 001f 64        		.byte	100
 6042 0020 63        		.byte	99
 6043 0021 32        		.byte	50
 6044 0022 4D        		.byte	77
 6045 0023 49        		.byte	73
 6046 0024 36        		.byte	54
 6047 0025 50        		.byte	80
 6048 0026 00        		.byte	0
 6049 0027 00        		.byte	0
 6050 0028 07        		.byte	7
 6051 0029 00        		.byte	0
 6052 002a 00        		.byte	0
 6053 002b 00        		.byte	0
 6054 002c 1C        		.byte	28
 6055 002d 22        		.byte	34
 6056 002e 41        		.byte	65
 6057 002f 00        		.byte	0
 6058 0030 00        		.byte	0
 6059 0031 41        		.byte	65
 6060 0032 22        		.byte	34
 6061 0033 1C        		.byte	28
 6062 0034 00        		.byte	0
 6063 0035 11        		.byte	17
 6064 0036 0A        		.byte	10
 6065 0037 1F        		.byte	31
 6066 0038 0A        		.byte	10
 6067 0039 11        		.byte	17
 6068 003a 10        		.byte	16
 6069 003b 10        		.byte	16
 6070 003c 7C        		.byte	124
 6071 003d 10        		.byte	16
 6072 003e 10        		.byte	16
 6073 003f 00        		.byte	0
 6074 0040 00        		.byte	0
 6075 0041 A0        		.byte	-96
 6076 0042 60        		.byte	96
 6077 0043 00        		.byte	0
 6078 0044 10        		.byte	16
 6079 0045 10        		.byte	16
 6080 0046 10        		.byte	16
 6081 0047 10        		.byte	16
 6082 0048 10        		.byte	16
 6083 0049 00        		.byte	0
 6084 004a 00        		.byte	0
 6085 004b 60        		.byte	96
 6086 004c 60        		.byte	96
 6087 004d 00        		.byte	0
 6088 004e 40        		.byte	64
 6089 004f 30        		.byte	48
 6090 0050 08        		.byte	8
 6091 0051 06        		.byte	6
 6092 0052 01        		.byte	1
 6093 0053 3E        		.byte	62
 6094 0054 51        		.byte	81
 6095 0055 49        		.byte	73
 6096 0056 45        		.byte	69
 6097 0057 3E        		.byte	62
 6098 0058 00        		.byte	0
 6099 0059 42        		.byte	66
 6100 005a 7F        		.byte	127
 6101 005b 40        		.byte	64
 6102 005c 00        		.byte	0
 6103 005d 42        		.byte	66
 6104 005e 61        		.byte	97
 6105 005f 51        		.byte	81
 6106 0060 49        		.byte	73
 6107 0061 46        		.byte	70
 6108 0062 22        		.byte	34
 6109 0063 41        		.byte	65
 6110 0064 49        		.byte	73
 6111 0065 49        		.byte	73
 6112 0066 36        		.byte	54
 6113 0067 08        		.byte	8
 6114 0068 0C        		.byte	12
 6115 0069 0A        		.byte	10
 6116 006a 7F        		.byte	127
 6117 006b 08        		.byte	8
 6118 006c 27        		.byte	39
 6119 006d 45        		.byte	69
 6120 006e 45        		.byte	69
 6121 006f 45        		.byte	69
 6122 0070 39        		.byte	57
 6123 0071 3C        		.byte	60
 6124 0072 4A        		.byte	74
 6125 0073 49        		.byte	73
 6126 0074 49        		.byte	73
 6127 0075 30        		.byte	48
 6128 0076 01        		.byte	1
 6129 0077 61        		.byte	97
 6130 0078 19        		.byte	25
 6131 0079 07        		.byte	7
 6132 007a 01        		.byte	1
 6133 007b 36        		.byte	54
 6134 007c 49        		.byte	73
 6135 007d 49        		.byte	73
 6136 007e 49        		.byte	73
 6137 007f 36        		.byte	54
 6138 0080 06        		.byte	6
 6139 0081 49        		.byte	73
 6140 0082 49        		.byte	73
 6141 0083 29        		.byte	41
 6142 0084 1E        		.byte	30
 6143 0085 00        		.byte	0
 6144 0086 00        		.byte	0
 6145 0087 6C        		.byte	108
 6146 0088 6C        		.byte	108
 6147 0089 00        		.byte	0
 6148 008a 00        		.byte	0
 6149 008b 00        		.byte	0
 6150 008c AC        		.byte	-84
 6151 008d 6C        		.byte	108
 6152 008e 00        		.byte	0
 6153 008f 08        		.byte	8
 6154 0090 14        		.byte	20
 6155 0091 22        		.byte	34
 6156 0092 41        		.byte	65
 6157 0093 00        		.byte	0
 6158 0094 14        		.byte	20
 6159 0095 14        		.byte	20
 6160 0096 14        		.byte	20
 6161 0097 14        		.byte	20
 6162 0098 14        		.byte	20
 6163 0099 00        		.byte	0
 6164 009a 41        		.byte	65
 6165 009b 22        		.byte	34
 6166 009c 14        		.byte	20
 6167 009d 08        		.byte	8
 6168 009e 02        		.byte	2
 6169 009f 01        		.byte	1
 6170 00a0 51        		.byte	81
 6171 00a1 09        		.byte	9
 6172 00a2 06        		.byte	6
 6173 00a3 3E        		.byte	62
 6174 00a4 41        		.byte	65
 6175 00a5 5D        		.byte	93
 6176 00a6 5D        		.byte	93
 6177 00a7 46        		.byte	70
 6178 00a8 7C        		.byte	124
 6179 00a9 12        		.byte	18
 6180 00aa 11        		.byte	17
 6181 00ab 12        		.byte	18
 6182 00ac 7C        		.byte	124
 6183 00ad 7F        		.byte	127
 6184 00ae 49        		.byte	73
 6185 00af 49        		.byte	73
 6186 00b0 49        		.byte	73
 6187 00b1 36        		.byte	54
 6188 00b2 3E        		.byte	62
 6189 00b3 41        		.byte	65
 6190 00b4 41        		.byte	65
 6191 00b5 41        		.byte	65
 6192 00b6 22        		.byte	34
 6193 00b7 7F        		.byte	127
 6194 00b8 41        		.byte	65
 6195 00b9 41        		.byte	65
 6196 00ba 41        		.byte	65
 6197 00bb 3E        		.byte	62
 6198 00bc 7F        		.byte	127
 6199 00bd 49        		.byte	73
 6200 00be 49        		.byte	73
 6201 00bf 49        		.byte	73
 6202 00c0 41        		.byte	65
 6203 00c1 7F        		.byte	127
 6204 00c2 09        		.byte	9
 6205 00c3 09        		.byte	9
 6206 00c4 09        		.byte	9
 6207 00c5 01        		.byte	1
 6208 00c6 3E        		.byte	62
 6209 00c7 41        		.byte	65
 6210 00c8 41        		.byte	65
 6211 00c9 51        		.byte	81
 6212 00ca 72        		.byte	114
 6213 00cb 7F        		.byte	127
 6214 00cc 08        		.byte	8
 6215 00cd 08        		.byte	8
 6216 00ce 08        		.byte	8
 6217 00cf 7F        		.byte	127
 6218 00d0 41        		.byte	65
 6219 00d1 41        		.byte	65
 6220 00d2 7F        		.byte	127
 6221 00d3 41        		.byte	65
 6222 00d4 41        		.byte	65
 6223 00d5 21        		.byte	33
 6224 00d6 41        		.byte	65
 6225 00d7 3F        		.byte	63
 6226 00d8 01        		.byte	1
 6227 00d9 01        		.byte	1
 6228 00da 7F        		.byte	127
 6229 00db 08        		.byte	8
 6230 00dc 14        		.byte	20
 6231 00dd 22        		.byte	34
 6232 00de 41        		.byte	65
 6233 00df 7F        		.byte	127
 6234 00e0 40        		.byte	64
 6235 00e1 40        		.byte	64
 6236 00e2 40        		.byte	64
 6237 00e3 40        		.byte	64
 6238 00e4 7F        		.byte	127
 6239 00e5 02        		.byte	2
 6240 00e6 04        		.byte	4
 6241 00e7 02        		.byte	2
 6242 00e8 7F        		.byte	127
 6243 00e9 7F        		.byte	127
 6244 00ea 06        		.byte	6
 6245 00eb 08        		.byte	8
 6246 00ec 30        		.byte	48
 6247 00ed 7F        		.byte	127
 6248 00ee 3E        		.byte	62
 6249 00ef 41        		.byte	65
 6250 00f0 41        		.byte	65
 6251 00f1 41        		.byte	65
 6252 00f2 3E        		.byte	62
 6253 00f3 7F        		.byte	127
 6254 00f4 09        		.byte	9
 6255 00f5 09        		.byte	9
 6256 00f6 09        		.byte	9
 6257 00f7 06        		.byte	6
 6258 00f8 3E        		.byte	62
 6259 00f9 41        		.byte	65
 6260 00fa 41        		.byte	65
 6261 00fb 61        		.byte	97
 6262 00fc 7E        		.byte	126
 6263 00fd 7F        		.byte	127
 6264 00fe 09        		.byte	9
 6265 00ff 19        		.byte	25
 6266 0100 29        		.byte	41
 6267 0101 46        		.byte	70
 6268 0102 26        		.byte	38
 6269 0103 49        		.byte	73
 6270 0104 49        		.byte	73
 6271 0105 49        		.byte	73
 6272 0106 32        		.byte	50
 6273 0107 01        		.byte	1
 6274 0108 01        		.byte	1
 6275 0109 7F        		.byte	127
 6276 010a 01        		.byte	1
 6277 010b 01        		.byte	1
 6278 010c 3F        		.byte	63
 6279 010d 40        		.byte	64
 6280 010e 40        		.byte	64
 6281 010f 40        		.byte	64
 6282 0110 3F        		.byte	63
 6283 0111 1F        		.byte	31
 6284 0112 20        		.byte	32
 6285 0113 40        		.byte	64
 6286 0114 20        		.byte	32
 6287 0115 1F        		.byte	31
 6288 0116 3F        		.byte	63
 6289 0117 40        		.byte	64
 6290 0118 30        		.byte	48
 6291 0119 40        		.byte	64
 6292 011a 3F        		.byte	63
 6293 011b 63        		.byte	99
 6294 011c 14        		.byte	20
 6295 011d 08        		.byte	8
 6296 011e 14        		.byte	20
 6297 011f 63        		.byte	99
 6298 0120 03        		.byte	3
 6299 0121 04        		.byte	4
 6300 0122 78        		.byte	120
 6301 0123 04        		.byte	4
 6302 0124 03        		.byte	3
 6303 0125 61        		.byte	97
 6304 0126 51        		.byte	81
 6305 0127 49        		.byte	73
 6306 0128 45        		.byte	69
 6307 0129 43        		.byte	67
 6308 012a 00        		.byte	0
 6309 012b 00        		.byte	0
 6310 012c 7F        		.byte	127
 6311 012d 41        		.byte	65
 6312 012e 00        		.byte	0
 6313 012f 01        		.byte	1
 6314 0130 06        		.byte	6
 6315 0131 08        		.byte	8
 6316 0132 30        		.byte	48
 6317 0133 40        		.byte	64
 6318 0134 00        		.byte	0
 6319 0135 00        		.byte	0
 6320 0136 41        		.byte	65
 6321 0137 7F        		.byte	127
 6322 0138 00        		.byte	0
 6323 0139 04        		.byte	4
 6324 013a 02        		.byte	2
 6325 013b 01        		.byte	1
 6326 013c 02        		.byte	2
 6327 013d 04        		.byte	4
 6328 013e 80        		.byte	-128
 6329 013f 80        		.byte	-128
 6330 0140 80        		.byte	-128
 6331 0141 80        		.byte	-128
 6332 0142 80        		.byte	-128
 6333 0143 01        		.byte	1
 6334 0144 02        		.byte	2
 6335 0145 04        		.byte	4
 6336 0146 00        		.byte	0
 6337 0147 00        		.byte	0
 6338 0148 20        		.byte	32
 6339 0149 54        		.byte	84
 6340 014a 54        		.byte	84
 6341 014b 54        		.byte	84
 6342 014c 78        		.byte	120
 6343 014d 7F        		.byte	127
 6344 014e 48        		.byte	72
 6345 014f 44        		.byte	68
 6346 0150 44        		.byte	68
 6347 0151 38        		.byte	56
 6348 0152 38        		.byte	56
 6349 0153 44        		.byte	68
 6350 0154 44        		.byte	68
 6351 0155 44        		.byte	68
 6352 0156 28        		.byte	40
 6353 0157 38        		.byte	56
 6354 0158 44        		.byte	68
 6355 0159 44        		.byte	68
 6356 015a 48        		.byte	72
 6357 015b 7F        		.byte	127
 6358 015c 38        		.byte	56
 6359 015d 54        		.byte	84
 6360 015e 54        		.byte	84
 6361 015f 54        		.byte	84
 6362 0160 18        		.byte	24
 6363 0161 08        		.byte	8
 6364 0162 7E        		.byte	126
 6365 0163 09        		.byte	9
 6366 0164 01        		.byte	1
 6367 0165 02        		.byte	2
 6368 0166 18        		.byte	24
 6369 0167 A4        		.byte	-92
 6370 0168 A4        		.byte	-92
 6371 0169 A4        		.byte	-92
 6372 016a 78        		.byte	120
 6373 016b 7F        		.byte	127
 6374 016c 08        		.byte	8
 6375 016d 08        		.byte	8
 6376 016e 08        		.byte	8
 6377 016f 70        		.byte	112
 6378 0170 00        		.byte	0
 6379 0171 48        		.byte	72
 6380 0172 7A        		.byte	122
 6381 0173 40        		.byte	64
 6382 0174 00        		.byte	0
 6383 0175 40        		.byte	64
 6384 0176 80        		.byte	-128
 6385 0177 80        		.byte	-128
 6386 0178 88        		.byte	-120
 6387 0179 7A        		.byte	122
 6388 017a 7F        		.byte	127
 6389 017b 10        		.byte	16
 6390 017c 10        		.byte	16
 6391 017d 28        		.byte	40
 6392 017e 44        		.byte	68
 6393 017f 00        		.byte	0
 6394 0180 41        		.byte	65
 6395 0181 7F        		.byte	127
 6396 0182 40        		.byte	64
 6397 0183 00        		.byte	0
 6398 0184 7C        		.byte	124
 6399 0185 04        		.byte	4
 6400 0186 38        		.byte	56
 6401 0187 04        		.byte	4
 6402 0188 78        		.byte	120
 6403 0189 7C        		.byte	124
 6404 018a 04        		.byte	4
 6405 018b 04        		.byte	4
 6406 018c 04        		.byte	4
 6407 018d 78        		.byte	120
 6408 018e 38        		.byte	56
 6409 018f 44        		.byte	68
 6410 0190 44        		.byte	68
 6411 0191 44        		.byte	68
 6412 0192 38        		.byte	56
 6413 0193 FC        		.byte	-4
 6414 0194 24        		.byte	36
 6415 0195 24        		.byte	36
 6416 0196 24        		.byte	36
 6417 0197 18        		.byte	24
 6418 0198 18        		.byte	24
 6419 0199 24        		.byte	36
 6420 019a 24        		.byte	36
 6421 019b FC        		.byte	-4
 6422 019c 80        		.byte	-128
 6423 019d 7C        		.byte	124
 6424 019e 08        		.byte	8
 6425 019f 04        		.byte	4
 6426 01a0 04        		.byte	4
 6427 01a1 08        		.byte	8
 6428 01a2 48        		.byte	72
 6429 01a3 54        		.byte	84
 6430 01a4 54        		.byte	84
 6431 01a5 54        		.byte	84
 6432 01a6 20        		.byte	32
 6433 01a7 00        		.byte	0
 6434 01a8 08        		.byte	8
 6435 01a9 3C        		.byte	60
 6436 01aa 48        		.byte	72
 6437 01ab 20        		.byte	32
 6438 01ac 3C        		.byte	60
 6439 01ad 40        		.byte	64
 6440 01ae 40        		.byte	64
 6441 01af 40        		.byte	64
 6442 01b0 7C        		.byte	124
 6443 01b1 0C        		.byte	12
 6444 01b2 30        		.byte	48
 6445 01b3 40        		.byte	64
 6446 01b4 30        		.byte	48
 6447 01b5 0C        		.byte	12
 6448 01b6 1C        		.byte	28
 6449 01b7 60        		.byte	96
 6450 01b8 18        		.byte	24
 6451 01b9 60        		.byte	96
 6452 01ba 1C        		.byte	28
 6453 01bb 44        		.byte	68
 6454 01bc 28        		.byte	40
 6455 01bd 10        		.byte	16
 6456 01be 28        		.byte	40
 6457 01bf 44        		.byte	68
 6458 01c0 1C        		.byte	28
 6459 01c1 A0        		.byte	-96
 6460 01c2 A0        		.byte	-96
 6461 01c3 A0        		.byte	-96
 6462 01c4 7C        		.byte	124
 6463 01c5 44        		.byte	68
 6464 01c6 64        		.byte	100
 6465 01c7 54        		.byte	84
 6466 01c8 4C        		.byte	76
 6467 01c9 44        		.byte	68
 6468 01ca 00        		.byte	0
 6469 01cb 08        		.byte	8
 6470 01cc 36        		.byte	54
 6471 01cd 41        		.byte	65
 6472 01ce 41        		.byte	65
 6473 01cf 20        		.byte	32
 6474 01d0 40        		.byte	64
 6475 01d1 FF        		.byte	-1
 6476 01d2 40        		.byte	64
 6477 01d3 20        		.byte	32
 6478 01d4 41        		.byte	65
 6479 01d5 41        		.byte	65
 6480 01d6 36        		.byte	54
 6481 01d7 08        		.byte	8
 6482 01d8 00        		.byte	0
 6483 01d9 10        		.byte	16
 6484 01da 08        		.byte	8
 6485 01db 18        		.byte	24
 6486 01dc 10        		.byte	16
 6487 01dd 08        		.byte	8
 6490               	aux_text_array:
 6491 01de 0A        		.byte	10
 6492 01df 10        		.byte	16
 6493 01e0 01        		.byte	1
 6494 01e1 00        		.byte	0
 6495 01e2 00        		.byte	0
 6496 01e3 00        		.byte	0
 6497 01e4 00        		.byte	0
 6498 01e5 00        		.byte	0
 6499 01e6 00        		.byte	0
 6500 01e7 00        		.byte	0
 6501 01e8 00        		.byte	0
 6502 01e9 00        		.byte	0
 6503 01ea 00        		.byte	0
 6504 01eb 00        		.byte	0
 6505 01ec 00        		.byte	0
 6506 01ed 00        		.byte	0
 6507 01ee 00        		.byte	0
 6508 01ef 00        		.byte	0
 6509 01f0 00        		.byte	0
 6510 01f1 00        		.byte	0
 6511 01f2 00        		.byte	0
 6512 01f3 00        		.byte	0
 6513 01f4 00        		.byte	0
 6514 01f5 00        		.byte	0
 6515 01f6 00        		.byte	0
 6516 01f7 00        		.byte	0
 6517 01f8 00        		.byte	0
 6518 01f9 FF        		.byte	-1
 6519 01fa FF        		.byte	-1
 6520 01fb 00        		.byte	0
 6521 01fc 00        		.byte	0
 6522 01fd 00        		.byte	0
 6523 01fe 00        		.byte	0
 6524 01ff 00        		.byte	0
 6525 0200 00        		.byte	0
 6526 0201 00        		.byte	0
 6527 0202 00        		.byte	0
 6528 0203 0C        		.byte	12
 6529 0204 0C        		.byte	12
 6530 0205 00        		.byte	0
 6531 0206 00        		.byte	0
 6532 0207 00        		.byte	0
 6533 0208 00        		.byte	0
 6534 0209 00        		.byte	0
 6535 020a 00        		.byte	0
 6536 020b 0F        		.byte	15
 6537 020c 0F        		.byte	15
 6538 020d 00        		.byte	0
 6539 020e 00        		.byte	0
 6540 020f 0F        		.byte	15
 6541 0210 0F        		.byte	15
 6542 0211 00        		.byte	0
 6543 0212 00        		.byte	0
 6544 0213 00        		.byte	0
 6545 0214 00        		.byte	0
 6546 0215 00        		.byte	0
 6547 0216 00        		.byte	0
 6548 0217 00        		.byte	0
 6549 0218 00        		.byte	0
 6550 0219 00        		.byte	0
 6551 021a 00        		.byte	0
 6552 021b 00        		.byte	0
 6553 021c 00        		.byte	0
 6554 021d 80        		.byte	-128
 6555 021e 98        		.byte	-104
 6556 021f D8        		.byte	-40
 6557 0220 FC        		.byte	-4
 6558 0221 9F        		.byte	-97
 6559 0222 99        		.byte	-103
 6560 0223 F8        		.byte	-8
 6561 0224 FF        		.byte	-1
 6562 0225 9F        		.byte	-97
 6563 0226 18        		.byte	24
 6564 0227 01        		.byte	1
 6565 0228 0D        		.byte	13
 6566 0229 0F        		.byte	15
 6567 022a 01        		.byte	1
 6568 022b 01        		.byte	1
 6569 022c 0F        		.byte	15
 6570 022d 07        		.byte	7
 6571 022e 01        		.byte	1
 6572 022f 01        		.byte	1
 6573 0230 00        		.byte	0
 6574 0231 00        		.byte	0
 6575 0232 38        		.byte	56
 6576 0233 7C        		.byte	124
 6577 0234 6C        		.byte	108
 6578 0235 FF        		.byte	-1
 6579 0236 CC        		.byte	-52
 6580 0237 CC        		.byte	-52
 6581 0238 80        		.byte	-128
 6582 0239 00        		.byte	0
 6583 023a 00        		.byte	0
 6584 023b 00        		.byte	0
 6585 023c 06        		.byte	6
 6586 023d 0C        		.byte	12
 6587 023e 0C        		.byte	12
 6588 023f 3F        		.byte	63
 6589 0240 0C        		.byte	12
 6590 0241 0F        		.byte	15
 6591 0242 07        		.byte	7
 6592 0243 00        		.byte	0
 6593 0244 00        		.byte	0
 6594 0245 8E        		.byte	-114
 6595 0246 91        		.byte	-111
 6596 0247 51        		.byte	81
 6597 0248 51        		.byte	81
 6598 0249 4E        		.byte	78
 6599 024a A0        		.byte	-96
 6600 024b A0        		.byte	-96
 6601 024c 90        		.byte	-112
 6602 024d 10        		.byte	16
 6603 024e 00        		.byte	0
 6604 024f 00        		.byte	0
 6605 0250 00        		.byte	0
 6606 0251 00        		.byte	0
 6607 0252 00        		.byte	0
 6608 0253 07        		.byte	7
 6609 0254 08        		.byte	8
 6610 0255 08        		.byte	8
 6611 0256 08        		.byte	8
 6612 0257 07        		.byte	7
 6613 0258 00        		.byte	0
 6614 0259 00        		.byte	0
 6615 025a 80        		.byte	-128
 6616 025b EE        		.byte	-18
 6617 025c 3F        		.byte	63
 6618 025d 73        		.byte	115
 6619 025e E3        		.byte	-29
 6620 025f C3        		.byte	-61
 6621 0260 06        		.byte	6
 6622 0261 C0        		.byte	-64
 6623 0262 C0        		.byte	-64
 6624 0263 00        		.byte	0
 6625 0264 03        		.byte	3
 6626 0265 07        		.byte	7
 6627 0266 0E        		.byte	14
 6628 0267 0C        		.byte	12
 6629 0268 0C        		.byte	12
 6630 0269 0F        		.byte	15
 6631 026a 0F        		.byte	15
 6632 026b 0F        		.byte	15
 6633 026c 09        		.byte	9
 6634 026d 00        		.byte	0
 6635 026e 00        		.byte	0
 6636 026f 00        		.byte	0
 6637 0270 00        		.byte	0
 6638 0271 0F        		.byte	15
 6639 0272 0F        		.byte	15
 6640 0273 00        		.byte	0
 6641 0274 00        		.byte	0
 6642 0275 00        		.byte	0
 6643 0276 00        		.byte	0
 6644 0277 00        		.byte	0
 6645 0278 00        		.byte	0
 6646 0279 00        		.byte	0
 6647 027a 00        		.byte	0
 6648 027b 00        		.byte	0
 6649 027c 00        		.byte	0
 6650 027d 00        		.byte	0
 6651 027e 00        		.byte	0
 6652 027f 00        		.byte	0
 6653 0280 00        		.byte	0
 6654 0281 00        		.byte	0
 6655 0282 00        		.byte	0
 6656 0283 00        		.byte	0
 6657 0284 F0        		.byte	-16
 6658 0285 FE        		.byte	-2
 6659 0286 0F        		.byte	15
 6660 0287 01        		.byte	1
 6661 0288 00        		.byte	0
 6662 0289 00        		.byte	0
 6663 028a 00        		.byte	0
 6664 028b 00        		.byte	0
 6665 028c 00        		.byte	0
 6666 028d 00        		.byte	0
 6667 028e 03        		.byte	3
 6668 028f 1F        		.byte	31
 6669 0290 3C        		.byte	60
 6670 0291 20        		.byte	32
 6671 0292 00        		.byte	0
 6672 0293 00        		.byte	0
 6673 0294 00        		.byte	0
 6674 0295 00        		.byte	0
 6675 0296 00        		.byte	0
 6676 0297 01        		.byte	1
 6677 0298 0F        		.byte	15
 6678 0299 FE        		.byte	-2
 6679 029a F0        		.byte	-16
 6680 029b 00        		.byte	0
 6681 029c 00        		.byte	0
 6682 029d 00        		.byte	0
 6683 029e 00        		.byte	0
 6684 029f 00        		.byte	0
 6685 02a0 00        		.byte	0
 6686 02a1 20        		.byte	32
 6687 02a2 3C        		.byte	60
 6688 02a3 1F        		.byte	31
 6689 02a4 03        		.byte	3
 6690 02a5 00        		.byte	0
 6691 02a6 00        		.byte	0
 6692 02a7 00        		.byte	0
 6693 02a8 00        		.byte	0
 6694 02a9 00        		.byte	0
 6695 02aa 24        		.byte	36
 6696 02ab 3C        		.byte	60
 6697 02ac 18        		.byte	24
 6698 02ad FF        		.byte	-1
 6699 02ae 18        		.byte	24
 6700 02af 3C        		.byte	60
 6701 02b0 24        		.byte	36
 6702 02b1 00        		.byte	0
 6703 02b2 00        		.byte	0
 6704 02b3 00        		.byte	0
 6705 02b4 00        		.byte	0
 6706 02b5 00        		.byte	0
 6707 02b6 00        		.byte	0
 6708 02b7 00        		.byte	0
 6709 02b8 00        		.byte	0
 6710 02b9 00        		.byte	0
 6711 02ba 00        		.byte	0
 6712 02bb 00        		.byte	0
 6713 02bc 00        		.byte	0
 6714 02bd 00        		.byte	0
 6715 02be C0        		.byte	-64
 6716 02bf C0        		.byte	-64
 6717 02c0 C0        		.byte	-64
 6718 02c1 F8        		.byte	-8
 6719 02c2 F8        		.byte	-8
 6720 02c3 C0        		.byte	-64
 6721 02c4 C0        		.byte	-64
 6722 02c5 C0        		.byte	-64
 6723 02c6 00        		.byte	0
 6724 02c7 00        		.byte	0
 6725 02c8 00        		.byte	0
 6726 02c9 00        		.byte	0
 6727 02ca 00        		.byte	0
 6728 02cb 07        		.byte	7
 6729 02cc 07        		.byte	7
 6730 02cd 00        		.byte	0
 6731 02ce 00        		.byte	0
 6732 02cf 00        		.byte	0
 6733 02d0 00        		.byte	0
 6734 02d1 00        		.byte	0
 6735 02d2 00        		.byte	0
 6736 02d3 00        		.byte	0
 6737 02d4 00        		.byte	0
 6738 02d5 00        		.byte	0
 6739 02d6 00        		.byte	0
 6740 02d7 00        		.byte	0
 6741 02d8 00        		.byte	0
 6742 02d9 00        		.byte	0
 6743 02da 00        		.byte	0
 6744 02db 00        		.byte	0
 6745 02dc 00        		.byte	0
 6746 02dd 00        		.byte	0
 6747 02de 20        		.byte	32
 6748 02df 3E        		.byte	62
 6749 02e0 1E        		.byte	30
 6750 02e1 00        		.byte	0
 6751 02e2 00        		.byte	0
 6752 02e3 00        		.byte	0
 6753 02e4 00        		.byte	0
 6754 02e5 00        		.byte	0
 6755 02e6 00        		.byte	0
 6756 02e7 80        		.byte	-128
 6757 02e8 80        		.byte	-128
 6758 02e9 80        		.byte	-128
 6759 02ea 80        		.byte	-128
 6760 02eb 80        		.byte	-128
 6761 02ec 00        		.byte	0
 6762 02ed 00        		.byte	0
 6763 02ee 00        		.byte	0
 6764 02ef 00        		.byte	0
 6765 02f0 00        		.byte	0
 6766 02f1 01        		.byte	1
 6767 02f2 01        		.byte	1
 6768 02f3 01        		.byte	1
 6769 02f4 01        		.byte	1
 6770 02f5 01        		.byte	1
 6771 02f6 00        		.byte	0
 6772 02f7 00        		.byte	0
 6773 02f8 00        		.byte	0
 6774 02f9 00        		.byte	0
 6775 02fa 00        		.byte	0
 6776 02fb 00        		.byte	0
 6777 02fc 00        		.byte	0
 6778 02fd 00        		.byte	0
 6779 02fe 00        		.byte	0
 6780 02ff 00        		.byte	0
 6781 0300 00        		.byte	0
 6782 0301 00        		.byte	0
 6783 0302 00        		.byte	0
 6784 0303 00        		.byte	0
 6785 0304 00        		.byte	0
 6786 0305 00        		.byte	0
 6787 0306 00        		.byte	0
 6788 0307 0E        		.byte	14
 6789 0308 0E        		.byte	14
 6790 0309 00        		.byte	0
 6791 030a 00        		.byte	0
 6792 030b 00        		.byte	0
 6793 030c 00        		.byte	0
 6794 030d 00        		.byte	0
 6795 030e 00        		.byte	0
 6796 030f 00        		.byte	0
 6797 0310 00        		.byte	0
 6798 0311 E0        		.byte	-32
 6799 0312 F8        		.byte	-8
 6800 0313 1E        		.byte	30
 6801 0314 07        		.byte	7
 6802 0315 01        		.byte	1
 6803 0316 00        		.byte	0
 6804 0317 00        		.byte	0
 6805 0318 10        		.byte	16
 6806 0319 1C        		.byte	28
 6807 031a 0F        		.byte	15
 6808 031b 03        		.byte	3
 6809 031c 00        		.byte	0
 6810 031d 00        		.byte	0
 6811 031e 00        		.byte	0
 6812 031f 00        		.byte	0
 6813 0320 00        		.byte	0
 6814 0321 00        		.byte	0
 6815 0322 F8        		.byte	-8
 6816 0323 FE        		.byte	-2
 6817 0324 07        		.byte	7
 6818 0325 63        		.byte	99
 6819 0326 63        		.byte	99
 6820 0327 07        		.byte	7
 6821 0328 FE        		.byte	-2
 6822 0329 FC        		.byte	-4
 6823 032a 00        		.byte	0
 6824 032b 00        		.byte	0
 6825 032c 01        		.byte	1
 6826 032d 07        		.byte	7
 6827 032e 0E        		.byte	14
 6828 032f 0C        		.byte	12
 6829 0330 0C        		.byte	12
 6830 0331 0E        		.byte	14
 6831 0332 07        		.byte	7
 6832 0333 03        		.byte	3
 6833 0334 00        		.byte	0
 6834 0335 00        		.byte	0
 6835 0336 00        		.byte	0
 6836 0337 06        		.byte	6
 6837 0338 03        		.byte	3
 6838 0339 FF        		.byte	-1
 6839 033a FF        		.byte	-1
 6840 033b 00        		.byte	0
 6841 033c 00        		.byte	0
 6842 033d 00        		.byte	0
 6843 033e 00        		.byte	0
 6844 033f 00        		.byte	0
 6845 0340 0C        		.byte	12
 6846 0341 0C        		.byte	12
 6847 0342 0C        		.byte	12
 6848 0343 0F        		.byte	15
 6849 0344 0F        		.byte	15
 6850 0345 0C        		.byte	12
 6851 0346 0C        		.byte	12
 6852 0347 0C        		.byte	12
 6853 0348 00        		.byte	0
 6854 0349 00        		.byte	0
 6855 034a 06        		.byte	6
 6856 034b 03        		.byte	3
 6857 034c 03        		.byte	3
 6858 034d 83        		.byte	-125
 6859 034e C3        		.byte	-61
 6860 034f 63        		.byte	99
 6861 0350 3E        		.byte	62
 6862 0351 1C        		.byte	28
 6863 0352 00        		.byte	0
 6864 0353 00        		.byte	0
 6865 0354 0C        		.byte	12
 6866 0355 0E        		.byte	14
 6867 0356 0F        		.byte	15
 6868 0357 0D        		.byte	13
 6869 0358 0C        		.byte	12
 6870 0359 0C        		.byte	12
 6871 035a 0C        		.byte	12
 6872 035b 0C        		.byte	12
 6873 035c 00        		.byte	0
 6874 035d 00        		.byte	0
 6875 035e 06        		.byte	6
 6876 035f 03        		.byte	3
 6877 0360 63        		.byte	99
 6878 0361 63        		.byte	99
 6879 0362 63        		.byte	99
 6880 0363 E3        		.byte	-29
 6881 0364 FE        		.byte	-2
 6882 0365 9C        		.byte	-100
 6883 0366 00        		.byte	0
 6884 0367 00        		.byte	0
 6885 0368 06        		.byte	6
 6886 0369 0C        		.byte	12
 6887 036a 0C        		.byte	12
 6888 036b 0C        		.byte	12
 6889 036c 0C        		.byte	12
 6890 036d 0C        		.byte	12
 6891 036e 07        		.byte	7
 6892 036f 07        		.byte	7
 6893 0370 00        		.byte	0
 6894 0371 00        		.byte	0
 6895 0372 C0        		.byte	-64
 6896 0373 E0        		.byte	-32
 6897 0374 B8        		.byte	-72
 6898 0375 8C        		.byte	-116
 6899 0376 87        		.byte	-121
 6900 0377 FF        		.byte	-1
 6901 0378 FF        		.byte	-1
 6902 0379 80        		.byte	-128
 6903 037a 00        		.byte	0
 6904 037b 00        		.byte	0
 6905 037c 01        		.byte	1
 6906 037d 01        		.byte	1
 6907 037e 01        		.byte	1
 6908 037f 01        		.byte	1
 6909 0380 01        		.byte	1
 6910 0381 0F        		.byte	15
 6911 0382 0F        		.byte	15
 6912 0383 01        		.byte	1
 6913 0384 00        		.byte	0
 6914 0385 00        		.byte	0
 6915 0386 7F        		.byte	127
 6916 0387 3F        		.byte	63
 6917 0388 33        		.byte	51
 6918 0389 33        		.byte	51
 6919 038a 33        		.byte	51
 6920 038b 73        		.byte	115
 6921 038c E3        		.byte	-29
 6922 038d C0        		.byte	-64
 6923 038e 00        		.byte	0
 6924 038f 00        		.byte	0
 6925 0390 06        		.byte	6
 6926 0391 0C        		.byte	12
 6927 0392 0C        		.byte	12
 6928 0393 0C        		.byte	12
 6929 0394 0C        		.byte	12
 6930 0395 0E        		.byte	14
 6931 0396 07        		.byte	7
 6932 0397 03        		.byte	3
 6933 0398 00        		.byte	0
 6934 0399 00        		.byte	0
 6935 039a F8        		.byte	-8
 6936 039b FE        		.byte	-2
 6937 039c 67        		.byte	103
 6938 039d 33        		.byte	51
 6939 039e 33        		.byte	51
 6940 039f 73        		.byte	115
 6941 03a0 E6        		.byte	-26
 6942 03a1 C0        		.byte	-64
 6943 03a2 00        		.byte	0
 6944 03a3 00        		.byte	0
 6945 03a4 03        		.byte	3
 6946 03a5 07        		.byte	7
 6947 03a6 0E        		.byte	14
 6948 03a7 0C        		.byte	12
 6949 03a8 0C        		.byte	12
 6950 03a9 0E        		.byte	14
 6951 03aa 07        		.byte	7
 6952 03ab 03        		.byte	3
 6953 03ac 00        		.byte	0
 6954 03ad 00        		.byte	0
 6955 03ae 03        		.byte	3
 6956 03af 03        		.byte	3
 6957 03b0 03        		.byte	3
 6958 03b1 83        		.byte	-125
 6959 03b2 F3        		.byte	-13
 6960 03b3 7F        		.byte	127
 6961 03b4 1F        		.byte	31
 6962 03b5 07        		.byte	7
 6963 03b6 00        		.byte	0
 6964 03b7 00        		.byte	0
 6965 03b8 00        		.byte	0
 6966 03b9 08        		.byte	8
 6967 03ba 0E        		.byte	14
 6968 03bb 07        		.byte	7
 6969 03bc 01        		.byte	1
 6970 03bd 00        		.byte	0
 6971 03be 00        		.byte	0
 6972 03bf 00        		.byte	0
 6973 03c0 00        		.byte	0
 6974 03c1 00        		.byte	0
 6975 03c2 9C        		.byte	-100
 6976 03c3 FE        		.byte	-2
 6977 03c4 63        		.byte	99
 6978 03c5 63        		.byte	99
 6979 03c6 63        		.byte	99
 6980 03c7 63        		.byte	99
 6981 03c8 FE        		.byte	-2
 6982 03c9 9C        		.byte	-100
 6983 03ca 00        		.byte	0
 6984 03cb 00        		.byte	0
 6985 03cc 07        		.byte	7
 6986 03cd 07        		.byte	7
 6987 03ce 0C        		.byte	12
 6988 03cf 0C        		.byte	12
 6989 03d0 0C        		.byte	12
 6990 03d1 0C        		.byte	12
 6991 03d2 07        		.byte	7
 6992 03d3 07        		.byte	7
 6993 03d4 00        		.byte	0
 6994 03d5 00        		.byte	0
 6995 03d6 3C        		.byte	60
 6996 03d7 7E        		.byte	126
 6997 03d8 E7        		.byte	-25
 6998 03d9 C3        		.byte	-61
 6999 03da C3        		.byte	-61
 7000 03db 67        		.byte	103
 7001 03dc FE        		.byte	-2
 7002 03dd FC        		.byte	-4
 7003 03de 00        		.byte	0
 7004 03df 00        		.byte	0
 7005 03e0 00        		.byte	0
 7006 03e1 06        		.byte	6
 7007 03e2 0C        		.byte	12
 7008 03e3 0C        		.byte	12
 7009 03e4 0C        		.byte	12
 7010 03e5 0E        		.byte	14
 7011 03e6 07        		.byte	7
 7012 03e7 01        		.byte	1
 7013 03e8 00        		.byte	0
 7014 03e9 00        		.byte	0
 7015 03ea 00        		.byte	0
 7016 03eb 00        		.byte	0
 7017 03ec 00        		.byte	0
 7018 03ed 70        		.byte	112
 7019 03ee 70        		.byte	112
 7020 03ef 00        		.byte	0
 7021 03f0 00        		.byte	0
 7022 03f1 00        		.byte	0
 7023 03f2 00        		.byte	0
 7024 03f3 00        		.byte	0
 7025 03f4 00        		.byte	0
 7026 03f5 00        		.byte	0
 7027 03f6 00        		.byte	0
 7028 03f7 0E        		.byte	14
 7029 03f8 0E        		.byte	14
 7030 03f9 00        		.byte	0
 7031 03fa 00        		.byte	0
 7032 03fb 00        		.byte	0
 7033 03fc 00        		.byte	0
 7034 03fd 00        		.byte	0
 7035 03fe 00        		.byte	0
 7036 03ff 00        		.byte	0
 7037 0400 00        		.byte	0
 7038 0401 70        		.byte	112
 7039 0402 70        		.byte	112
 7040 0403 00        		.byte	0
 7041 0404 00        		.byte	0
 7042 0405 00        		.byte	0
 7043 0406 00        		.byte	0
 7044 0407 00        		.byte	0
 7045 0408 00        		.byte	0
 7046 0409 00        		.byte	0
 7047 040a 20        		.byte	32
 7048 040b 3E        		.byte	62
 7049 040c 1E        		.byte	30
 7050 040d 00        		.byte	0
 7051 040e 00        		.byte	0
 7052 040f 00        		.byte	0
 7053 0410 00        		.byte	0
 7054 0411 00        		.byte	0
 7055 0412 C0        		.byte	-64
 7056 0413 C0        		.byte	-64
 7057 0414 E0        		.byte	-32
 7058 0415 20        		.byte	32
 7059 0416 30        		.byte	48
 7060 0417 30        		.byte	48
 7061 0418 10        		.byte	16
 7062 0419 18        		.byte	24
 7063 041a 00        		.byte	0
 7064 041b 00        		.byte	0
 7065 041c 00        		.byte	0
 7066 041d 00        		.byte	0
 7067 041e 01        		.byte	1
 7068 041f 01        		.byte	1
 7069 0420 03        		.byte	3
 7070 0421 03        		.byte	3
 7071 0422 02        		.byte	2
 7072 0423 06        		.byte	6
 7073 0424 00        		.byte	0
 7074 0425 00        		.byte	0
 7075 0426 30        		.byte	48
 7076 0427 30        		.byte	48
 7077 0428 30        		.byte	48
 7078 0429 30        		.byte	48
 7079 042a 30        		.byte	48
 7080 042b 30        		.byte	48
 7081 042c 30        		.byte	48
 7082 042d 30        		.byte	48
 7083 042e 00        		.byte	0
 7084 042f 00        		.byte	0
 7085 0430 03        		.byte	3
 7086 0431 03        		.byte	3
 7087 0432 03        		.byte	3
 7088 0433 03        		.byte	3
 7089 0434 03        		.byte	3
 7090 0435 03        		.byte	3
 7091 0436 03        		.byte	3
 7092 0437 03        		.byte	3
 7093 0438 00        		.byte	0
 7094 0439 00        		.byte	0
 7095 043a 18        		.byte	24
 7096 043b 10        		.byte	16
 7097 043c 30        		.byte	48
 7098 043d 30        		.byte	48
 7099 043e 20        		.byte	32
 7100 043f E0        		.byte	-32
 7101 0440 C0        		.byte	-64
 7102 0441 C0        		.byte	-64
 7103 0442 00        		.byte	0
 7104 0443 00        		.byte	0
 7105 0444 06        		.byte	6
 7106 0445 02        		.byte	2
 7107 0446 03        		.byte	3
 7108 0447 03        		.byte	3
 7109 0448 01        		.byte	1
 7110 0449 01        		.byte	1
 7111 044a 00        		.byte	0
 7112 044b 00        		.byte	0
 7113 044c 00        		.byte	0
 7114 044d 00        		.byte	0
 7115 044e 06        		.byte	6
 7116 044f 03        		.byte	3
 7117 0450 C3        		.byte	-61
 7118 0451 E3        		.byte	-29
 7119 0452 33        		.byte	51
 7120 0453 3F        		.byte	63
 7121 0454 0E        		.byte	14
 7122 0455 00        		.byte	0
 7123 0456 00        		.byte	0
 7124 0457 00        		.byte	0
 7125 0458 00        		.byte	0
 7126 0459 00        		.byte	0
 7127 045a 0D        		.byte	13
 7128 045b 0D        		.byte	13
 7129 045c 00        		.byte	0
 7130 045d 00        		.byte	0
 7131 045e 00        		.byte	0
 7132 045f 00        		.byte	0
 7133 0460 00        		.byte	0
 7134 0461 F0        		.byte	-16
 7135 0462 F8        		.byte	-8
 7136 0463 1C        		.byte	28
 7137 0464 CE        		.byte	-50
 7138 0465 E6        		.byte	-26
 7139 0466 66        		.byte	102
 7140 0467 6E        		.byte	110
 7141 0468 FC        		.byte	-4
 7142 0469 F8        		.byte	-8
 7143 046a 00        		.byte	0
 7144 046b 03        		.byte	3
 7145 046c 0F        		.byte	15
 7146 046d 1C        		.byte	28
 7147 046e 39        		.byte	57
 7148 046f 33        		.byte	51
 7149 0470 33        		.byte	51
 7150 0471 33        		.byte	51
 7151 0472 3B        		.byte	59
 7152 0473 13        		.byte	19
 7153 0474 00        		.byte	0
 7154 0475 00        		.byte	0
 7155 0476 00        		.byte	0
 7156 0477 E0        		.byte	-32
 7157 0478 FE        		.byte	-2
 7158 0479 9F        		.byte	-97
 7159 047a 9F        		.byte	-97
 7160 047b FE        		.byte	-2
 7161 047c E0        		.byte	-32
 7162 047d 00        		.byte	0
 7163 047e 00        		.byte	0
 7164 047f 00        		.byte	0
 7165 0480 0C        		.byte	12
 7166 0481 0F        		.byte	15
 7167 0482 07        		.byte	7
 7168 0483 01        		.byte	1
 7169 0484 01        		.byte	1
 7170 0485 07        		.byte	7
 7171 0486 0F        		.byte	15
 7172 0487 0C        		.byte	12
 7173 0488 00        		.byte	0
 7174 0489 00        		.byte	0
 7175 048a FF        		.byte	-1
 7176 048b FF        		.byte	-1
 7177 048c 63        		.byte	99
 7178 048d 63        		.byte	99
 7179 048e 63        		.byte	99
 7180 048f 63        		.byte	99
 7181 0490 FE        		.byte	-2
 7182 0491 9E        		.byte	-98
 7183 0492 00        		.byte	0
 7184 0493 00        		.byte	0
 7185 0494 0F        		.byte	15
 7186 0495 0F        		.byte	15
 7187 0496 0C        		.byte	12
 7188 0497 0C        		.byte	12
 7189 0498 0C        		.byte	12
 7190 0499 0C        		.byte	12
 7191 049a 0F        		.byte	15
 7192 049b 07        		.byte	7
 7193 049c 00        		.byte	0
 7194 049d 00        		.byte	0
 7195 049e F8        		.byte	-8
 7196 049f FE        		.byte	-2
 7197 04a0 06        		.byte	6
 7198 04a1 03        		.byte	3
 7199 04a2 03        		.byte	3
 7200 04a3 03        		.byte	3
 7201 04a4 03        		.byte	3
 7202 04a5 06        		.byte	6
 7203 04a6 00        		.byte	0
 7204 04a7 00        		.byte	0
 7205 04a8 01        		.byte	1
 7206 04a9 07        		.byte	7
 7207 04aa 06        		.byte	6
 7208 04ab 0C        		.byte	12
 7209 04ac 0C        		.byte	12
 7210 04ad 0C        		.byte	12
 7211 04ae 0C        		.byte	12
 7212 04af 06        		.byte	6
 7213 04b0 00        		.byte	0
 7214 04b1 00        		.byte	0
 7215 04b2 FF        		.byte	-1
 7216 04b3 FF        		.byte	-1
 7217 04b4 03        		.byte	3
 7218 04b5 03        		.byte	3
 7219 04b6 03        		.byte	3
 7220 04b7 06        		.byte	6
 7221 04b8 FE        		.byte	-2
 7222 04b9 F8        		.byte	-8
 7223 04ba 00        		.byte	0
 7224 04bb 00        		.byte	0
 7225 04bc 0F        		.byte	15
 7226 04bd 0F        		.byte	15
 7227 04be 0C        		.byte	12
 7228 04bf 0C        		.byte	12
 7229 04c0 0C        		.byte	12
 7230 04c1 06        		.byte	6
 7231 04c2 07        		.byte	7
 7232 04c3 01        		.byte	1
 7233 04c4 00        		.byte	0
 7234 04c5 00        		.byte	0
 7235 04c6 FF        		.byte	-1
 7236 04c7 FF        		.byte	-1
 7237 04c8 63        		.byte	99
 7238 04c9 63        		.byte	99
 7239 04ca 63        		.byte	99
 7240 04cb 63        		.byte	99
 7241 04cc 63        		.byte	99
 7242 04cd 03        		.byte	3
 7243 04ce 00        		.byte	0
 7244 04cf 00        		.byte	0
 7245 04d0 0F        		.byte	15
 7246 04d1 0F        		.byte	15
 7247 04d2 0C        		.byte	12
 7248 04d3 0C        		.byte	12
 7249 04d4 0C        		.byte	12
 7250 04d5 0C        		.byte	12
 7251 04d6 0C        		.byte	12
 7252 04d7 0C        		.byte	12
 7253 04d8 00        		.byte	0
 7254 04d9 00        		.byte	0
 7255 04da FF        		.byte	-1
 7256 04db FF        		.byte	-1
 7257 04dc 63        		.byte	99
 7258 04dd 63        		.byte	99
 7259 04de 63        		.byte	99
 7260 04df 63        		.byte	99
 7261 04e0 63        		.byte	99
 7262 04e1 03        		.byte	3
 7263 04e2 00        		.byte	0
 7264 04e3 00        		.byte	0
 7265 04e4 0F        		.byte	15
 7266 04e5 0F        		.byte	15
 7267 04e6 00        		.byte	0
 7268 04e7 00        		.byte	0
 7269 04e8 00        		.byte	0
 7270 04e9 00        		.byte	0
 7271 04ea 00        		.byte	0
 7272 04eb 00        		.byte	0
 7273 04ec 00        		.byte	0
 7274 04ed 00        		.byte	0
 7275 04ee F8        		.byte	-8
 7276 04ef FE        		.byte	-2
 7277 04f0 06        		.byte	6
 7278 04f1 03        		.byte	3
 7279 04f2 C3        		.byte	-61
 7280 04f3 C3        		.byte	-61
 7281 04f4 C3        		.byte	-61
 7282 04f5 C6        		.byte	-58
 7283 04f6 00        		.byte	0
 7284 04f7 00        		.byte	0
 7285 04f8 01        		.byte	1
 7286 04f9 07        		.byte	7
 7287 04fa 06        		.byte	6
 7288 04fb 0C        		.byte	12
 7289 04fc 0C        		.byte	12
 7290 04fd 0C        		.byte	12
 7291 04fe 0F        		.byte	15
 7292 04ff 07        		.byte	7
 7293 0500 00        		.byte	0
 7294 0501 00        		.byte	0
 7295 0502 FF        		.byte	-1
 7296 0503 FF        		.byte	-1
 7297 0504 60        		.byte	96
 7298 0505 60        		.byte	96
 7299 0506 60        		.byte	96
 7300 0507 60        		.byte	96
 7301 0508 FF        		.byte	-1
 7302 0509 FF        		.byte	-1
 7303 050a 00        		.byte	0
 7304 050b 00        		.byte	0
 7305 050c 0F        		.byte	15
 7306 050d 0F        		.byte	15
 7307 050e 00        		.byte	0
 7308 050f 00        		.byte	0
 7309 0510 00        		.byte	0
 7310 0511 00        		.byte	0
 7311 0512 0F        		.byte	15
 7312 0513 0F        		.byte	15
 7313 0514 00        		.byte	0
 7314 0515 00        		.byte	0
 7315 0516 00        		.byte	0
 7316 0517 03        		.byte	3
 7317 0518 03        		.byte	3
 7318 0519 FF        		.byte	-1
 7319 051a FF        		.byte	-1
 7320 051b 03        		.byte	3
 7321 051c 03        		.byte	3
 7322 051d 00        		.byte	0
 7323 051e 00        		.byte	0
 7324 051f 00        		.byte	0
 7325 0520 00        		.byte	0
 7326 0521 0C        		.byte	12
 7327 0522 0C        		.byte	12
 7328 0523 0F        		.byte	15
 7329 0524 0F        		.byte	15
 7330 0525 0C        		.byte	12
 7331 0526 0C        		.byte	12
 7332 0527 00        		.byte	0
 7333 0528 00        		.byte	0
 7334 0529 00        		.byte	0
 7335 052a 00        		.byte	0
 7336 052b 00        		.byte	0
 7337 052c 00        		.byte	0
 7338 052d 03        		.byte	3
 7339 052e 03        		.byte	3
 7340 052f 03        		.byte	3
 7341 0530 FF        		.byte	-1
 7342 0531 FF        		.byte	-1
 7343 0532 00        		.byte	0
 7344 0533 00        		.byte	0
 7345 0534 06        		.byte	6
 7346 0535 0C        		.byte	12
 7347 0536 0C        		.byte	12
 7348 0537 0C        		.byte	12
 7349 0538 0C        		.byte	12
 7350 0539 0C        		.byte	12
 7351 053a 07        		.byte	7
 7352 053b 07        		.byte	7
 7353 053c 00        		.byte	0
 7354 053d 00        		.byte	0
 7355 053e FF        		.byte	-1
 7356 053f FF        		.byte	-1
 7357 0540 70        		.byte	112
 7358 0541 78        		.byte	120
 7359 0542 FE        		.byte	-2
 7360 0543 87        		.byte	-121
 7361 0544 03        		.byte	3
 7362 0545 01        		.byte	1
 7363 0546 00        		.byte	0
 7364 0547 00        		.byte	0
 7365 0548 0F        		.byte	15
 7366 0549 0F        		.byte	15
 7367 054a 00        		.byte	0
 7368 054b 00        		.byte	0
 7369 054c 01        		.byte	1
 7370 054d 07        		.byte	7
 7371 054e 0F        		.byte	15
 7372 054f 0C        		.byte	12
 7373 0550 00        		.byte	0
 7374 0551 00        		.byte	0
 7375 0552 FF        		.byte	-1
 7376 0553 FF        		.byte	-1
 7377 0554 00        		.byte	0
 7378 0555 00        		.byte	0
 7379 0556 00        		.byte	0
 7380 0557 00        		.byte	0
 7381 0558 00        		.byte	0
 7382 0559 00        		.byte	0
 7383 055a 00        		.byte	0
 7384 055b 00        		.byte	0
 7385 055c 0F        		.byte	15
 7386 055d 0F        		.byte	15
 7387 055e 0C        		.byte	12
 7388 055f 0C        		.byte	12
 7389 0560 0C        		.byte	12
 7390 0561 0C        		.byte	12
 7391 0562 0C        		.byte	12
 7392 0563 0C        		.byte	12
 7393 0564 00        		.byte	0
 7394 0565 00        		.byte	0
 7395 0566 FF        		.byte	-1
 7396 0567 FF        		.byte	-1
 7397 0568 1F        		.byte	31
 7398 0569 F8        		.byte	-8
 7399 056a F8        		.byte	-8
 7400 056b 1F        		.byte	31
 7401 056c FF        		.byte	-1
 7402 056d FF        		.byte	-1
 7403 056e 00        		.byte	0
 7404 056f 00        		.byte	0
 7405 0570 0F        		.byte	15
 7406 0571 0F        		.byte	15
 7407 0572 00        		.byte	0
 7408 0573 00        		.byte	0
 7409 0574 00        		.byte	0
 7410 0575 00        		.byte	0
 7411 0576 0F        		.byte	15
 7412 0577 0F        		.byte	15
 7413 0578 00        		.byte	0
 7414 0579 00        		.byte	0
 7415 057a FF        		.byte	-1
 7416 057b FF        		.byte	-1
 7417 057c 0F        		.byte	15
 7418 057d 78        		.byte	120
 7419 057e E0        		.byte	-32
 7420 057f 00        		.byte	0
 7421 0580 FF        		.byte	-1
 7422 0581 FF        		.byte	-1
 7423 0582 00        		.byte	0
 7424 0583 00        		.byte	0
 7425 0584 0F        		.byte	15
 7426 0585 0F        		.byte	15
 7427 0586 00        		.byte	0
 7428 0587 00        		.byte	0
 7429 0588 01        		.byte	1
 7430 0589 0F        		.byte	15
 7431 058a 0F        		.byte	15
 7432 058b 0F        		.byte	15
 7433 058c 00        		.byte	0
 7434 058d 00        		.byte	0
 7435 058e F8        		.byte	-8
 7436 058f FE        		.byte	-2
 7437 0590 07        		.byte	7
 7438 0591 03        		.byte	3
 7439 0592 03        		.byte	3
 7440 0593 07        		.byte	7
 7441 0594 FE        		.byte	-2
 7442 0595 F8        		.byte	-8
 7443 0596 00        		.byte	0
 7444 0597 00        		.byte	0
 7445 0598 01        		.byte	1
 7446 0599 07        		.byte	7
 7447 059a 0E        		.byte	14
 7448 059b 0C        		.byte	12
 7449 059c 0C        		.byte	12
 7450 059d 0E        		.byte	14
 7451 059e 07        		.byte	7
 7452 059f 01        		.byte	1
 7453 05a0 00        		.byte	0
 7454 05a1 00        		.byte	0
 7455 05a2 FF        		.byte	-1
 7456 05a3 FF        		.byte	-1
 7457 05a4 63        		.byte	99
 7458 05a5 63        		.byte	99
 7459 05a6 63        		.byte	99
 7460 05a7 63        		.byte	99
 7461 05a8 3E        		.byte	62
 7462 05a9 3E        		.byte	62
 7463 05aa 00        		.byte	0
 7464 05ab 00        		.byte	0
 7465 05ac 0F        		.byte	15
 7466 05ad 0F        		.byte	15
 7467 05ae 00        		.byte	0
 7468 05af 00        		.byte	0
 7469 05b0 00        		.byte	0
 7470 05b1 00        		.byte	0
 7471 05b2 00        		.byte	0
 7472 05b3 00        		.byte	0
 7473 05b4 00        		.byte	0
 7474 05b5 00        		.byte	0
 7475 05b6 F8        		.byte	-8
 7476 05b7 FE        		.byte	-2
 7477 05b8 07        		.byte	7
 7478 05b9 03        		.byte	3
 7479 05ba 03        		.byte	3
 7480 05bb 07        		.byte	7
 7481 05bc FE        		.byte	-2
 7482 05bd F8        		.byte	-8
 7483 05be 00        		.byte	0
 7484 05bf 00        		.byte	0
 7485 05c0 01        		.byte	1
 7486 05c1 07        		.byte	7
 7487 05c2 0E        		.byte	14
 7488 05c3 0C        		.byte	12
 7489 05c4 0C        		.byte	12
 7490 05c5 1E        		.byte	30
 7491 05c6 37        		.byte	55
 7492 05c7 03        		.byte	3
 7493 05c8 00        		.byte	0
 7494 05c9 00        		.byte	0
 7495 05ca FF        		.byte	-1
 7496 05cb FF        		.byte	-1
 7497 05cc 63        		.byte	99
 7498 05cd 63        		.byte	99
 7499 05ce E3        		.byte	-29
 7500 05cf E3        		.byte	-29
 7501 05d0 FE        		.byte	-2
 7502 05d1 1E        		.byte	30
 7503 05d2 00        		.byte	0
 7504 05d3 00        		.byte	0
 7505 05d4 0F        		.byte	15
 7506 05d5 0F        		.byte	15
 7507 05d6 00        		.byte	0
 7508 05d7 00        		.byte	0
 7509 05d8 00        		.byte	0
 7510 05d9 01        		.byte	1
 7511 05da 0F        		.byte	15
 7512 05db 0F        		.byte	15
 7513 05dc 08        		.byte	8
 7514 05dd 00        		.byte	0
 7515 05de 1C        		.byte	28
 7516 05df 3E        		.byte	62
 7517 05e0 73        		.byte	115
 7518 05e1 63        		.byte	99
 7519 05e2 63        		.byte	99
 7520 05e3 E3        		.byte	-29
 7521 05e4 C6        		.byte	-58
 7522 05e5 80        		.byte	-128
 7523 05e6 00        		.byte	0
 7524 05e7 00        		.byte	0
 7525 05e8 06        		.byte	6
 7526 05e9 0C        		.byte	12
 7527 05ea 0C        		.byte	12
 7528 05eb 0C        		.byte	12
 7529 05ec 0C        		.byte	12
 7530 05ed 0C        		.byte	12
 7531 05ee 07        		.byte	7
 7532 05ef 07        		.byte	7
 7533 05f0 00        		.byte	0
 7534 05f1 00        		.byte	0
 7535 05f2 03        		.byte	3
 7536 05f3 03        		.byte	3
 7537 05f4 03        		.byte	3
 7538 05f5 FF        		.byte	-1
 7539 05f6 FF        		.byte	-1
 7540 05f7 03        		.byte	3
 7541 05f8 03        		.byte	3
 7542 05f9 03        		.byte	3
 7543 05fa 00        		.byte	0
 7544 05fb 00        		.byte	0
 7545 05fc 00        		.byte	0
 7546 05fd 00        		.byte	0
 7547 05fe 00        		.byte	0
 7548 05ff 0F        		.byte	15
 7549 0600 0F        		.byte	15
 7550 0601 00        		.byte	0
 7551 0602 00        		.byte	0
 7552 0603 00        		.byte	0
 7553 0604 00        		.byte	0
 7554 0605 00        		.byte	0
 7555 0606 FF        		.byte	-1
 7556 0607 FF        		.byte	-1
 7557 0608 00        		.byte	0
 7558 0609 00        		.byte	0
 7559 060a 00        		.byte	0
 7560 060b 00        		.byte	0
 7561 060c FF        		.byte	-1
 7562 060d FF        		.byte	-1
 7563 060e 00        		.byte	0
 7564 060f 00        		.byte	0
 7565 0610 03        		.byte	3
 7566 0611 07        		.byte	7
 7567 0612 0E        		.byte	14
 7568 0613 0C        		.byte	12
 7569 0614 0C        		.byte	12
 7570 0615 0E        		.byte	14
 7571 0616 07        		.byte	7
 7572 0617 03        		.byte	3
 7573 0618 00        		.byte	0
 7574 0619 00        		.byte	0
 7575 061a 03        		.byte	3
 7576 061b 7F        		.byte	127
 7577 061c FE        		.byte	-2
 7578 061d 80        		.byte	-128
 7579 061e 80        		.byte	-128
 7580 061f FE        		.byte	-2
 7581 0620 7F        		.byte	127
 7582 0621 03        		.byte	3
 7583 0622 00        		.byte	0
 7584 0623 00        		.byte	0
 7585 0624 00        		.byte	0
 7586 0625 00        		.byte	0
 7587 0626 0F        		.byte	15
 7588 0627 0F        		.byte	15
 7589 0628 0F        		.byte	15
 7590 0629 0F        		.byte	15
 7591 062a 00        		.byte	0
 7592 062b 00        		.byte	0
 7593 062c 00        		.byte	0
 7594 062d 0F        		.byte	15
 7595 062e FF        		.byte	-1
 7596 062f F0        		.byte	-16
 7597 0630 00        		.byte	0
 7598 0631 F8        		.byte	-8
 7599 0632 F8        		.byte	-8
 7600 0633 00        		.byte	0
 7601 0634 F0        		.byte	-16
 7602 0635 FF        		.byte	-1
 7603 0636 0F        		.byte	15
 7604 0637 00        		.byte	0
 7605 0638 0F        		.byte	15
 7606 0639 0F        		.byte	15
 7607 063a 0F        		.byte	15
 7608 063b 00        		.byte	0
 7609 063c 00        		.byte	0
 7610 063d 0F        		.byte	15
 7611 063e 0F        		.byte	15
 7612 063f 0F        		.byte	15
 7613 0640 00        		.byte	0
 7614 0641 00        		.byte	0
 7615 0642 01        		.byte	1
 7616 0643 07        		.byte	7
 7617 0644 9F        		.byte	-97
 7618 0645 FC        		.byte	-4
 7619 0646 FC        		.byte	-4
 7620 0647 9F        		.byte	-97
 7621 0648 07        		.byte	7
 7622 0649 01        		.byte	1
 7623 064a 00        		.byte	0
 7624 064b 00        		.byte	0
 7625 064c 08        		.byte	8
 7626 064d 0E        		.byte	14
 7627 064e 0F        		.byte	15
 7628 064f 01        		.byte	1
 7629 0650 01        		.byte	1
 7630 0651 0F        		.byte	15
 7631 0652 0E        		.byte	14
 7632 0653 08        		.byte	8
 7633 0654 00        		.byte	0
 7634 0655 01        		.byte	1
 7635 0656 07        		.byte	7
 7636 0657 1F        		.byte	31
 7637 0658 3C        		.byte	60
 7638 0659 F0        		.byte	-16
 7639 065a F0        		.byte	-16
 7640 065b 3C        		.byte	60
 7641 065c 1F        		.byte	31
 7642 065d 07        		.byte	7
 7643 065e 01        		.byte	1
 7644 065f 00        		.byte	0
 7645 0660 00        		.byte	0
 7646 0661 00        		.byte	0
 7647 0662 00        		.byte	0
 7648 0663 0F        		.byte	15
 7649 0664 0F        		.byte	15
 7650 0665 00        		.byte	0
 7651 0666 00        		.byte	0
 7652 0667 00        		.byte	0
 7653 0668 00        		.byte	0
 7654 0669 00        		.byte	0
 7655 066a 03        		.byte	3
 7656 066b 03        		.byte	3
 7657 066c C3        		.byte	-61
 7658 066d E3        		.byte	-29
 7659 066e 7B        		.byte	123
 7660 066f 3F        		.byte	63
 7661 0670 0F        		.byte	15
 7662 0671 07        		.byte	7
 7663 0672 00        		.byte	0
 7664 0673 00        		.byte	0
 7665 0674 0E        		.byte	14
 7666 0675 0F        		.byte	15
 7667 0676 0F        		.byte	15
 7668 0677 0D        		.byte	13
 7669 0678 0C        		.byte	12
 7670 0679 0C        		.byte	12
 7671 067a 0C        		.byte	12
 7672 067b 0C        		.byte	12
 7673 067c 00        		.byte	0
 7674 067d 00        		.byte	0
 7675 067e 00        		.byte	0
 7676 067f 00        		.byte	0
 7677 0680 FF        		.byte	-1
 7678 0681 FF        		.byte	-1
 7679 0682 01        		.byte	1
 7680 0683 01        		.byte	1
 7681 0684 00        		.byte	0
 7682 0685 00        		.byte	0
 7683 0686 00        		.byte	0
 7684 0687 00        		.byte	0
 7685 0688 00        		.byte	0
 7686 0689 00        		.byte	0
 7687 068a 3F        		.byte	63
 7688 068b 3F        		.byte	63
 7689 068c 20        		.byte	32
 7690 068d 20        		.byte	32
 7691 068e 00        		.byte	0
 7692 068f 00        		.byte	0
 7693 0690 00        		.byte	0
 7694 0691 00        		.byte	0
 7695 0692 01        		.byte	1
 7696 0693 07        		.byte	7
 7697 0694 1C        		.byte	28
 7698 0695 70        		.byte	112
 7699 0696 C0        		.byte	-64
 7700 0697 00        		.byte	0
 7701 0698 00        		.byte	0
 7702 0699 00        		.byte	0
 7703 069a 00        		.byte	0
 7704 069b 00        		.byte	0
 7705 069c 00        		.byte	0
 7706 069d 00        		.byte	0
 7707 069e 00        		.byte	0
 7708 069f 00        		.byte	0
 7709 06a0 01        		.byte	1
 7710 06a1 07        		.byte	7
 7711 06a2 1C        		.byte	28
 7712 06a3 10        		.byte	16
 7713 06a4 00        		.byte	0
 7714 06a5 00        		.byte	0
 7715 06a6 00        		.byte	0
 7716 06a7 01        		.byte	1
 7717 06a8 01        		.byte	1
 7718 06a9 FF        		.byte	-1
 7719 06aa FF        		.byte	-1
 7720 06ab 00        		.byte	0
 7721 06ac 00        		.byte	0
 7722 06ad 00        		.byte	0
 7723 06ae 00        		.byte	0
 7724 06af 00        		.byte	0
 7725 06b0 00        		.byte	0
 7726 06b1 20        		.byte	32
 7727 06b2 20        		.byte	32
 7728 06b3 3F        		.byte	63
 7729 06b4 3F        		.byte	63
 7730 06b5 00        		.byte	0
 7731 06b6 00        		.byte	0
 7732 06b7 00        		.byte	0
 7733 06b8 00        		.byte	0
 7734 06b9 08        		.byte	8
 7735 06ba 0C        		.byte	12
 7736 06bb 0E        		.byte	14
 7737 06bc 07        		.byte	7
 7738 06bd 03        		.byte	3
 7739 06be 07        		.byte	7
 7740 06bf 0E        		.byte	14
 7741 06c0 0C        		.byte	12
 7742 06c1 08        		.byte	8
 7743 06c2 00        		.byte	0
 7744 06c3 00        		.byte	0
 7745 06c4 00        		.byte	0
 7746 06c5 00        		.byte	0
 7747 06c6 00        		.byte	0
 7748 06c7 00        		.byte	0
 7749 06c8 00        		.byte	0
 7750 06c9 00        		.byte	0
 7751 06ca 00        		.byte	0
 7752 06cb 00        		.byte	0
 7753 06cc 00        		.byte	0
 7754 06cd 00        		.byte	0
 7755 06ce 00        		.byte	0
 7756 06cf 00        		.byte	0
 7757 06d0 00        		.byte	0
 7758 06d1 00        		.byte	0
 7759 06d2 00        		.byte	0
 7760 06d3 00        		.byte	0
 7761 06d4 00        		.byte	0
 7762 06d5 00        		.byte	0
 7763 06d6 00        		.byte	0
 7764 06d7 80        		.byte	-128
 7765 06d8 80        		.byte	-128
 7766 06d9 80        		.byte	-128
 7767 06da 80        		.byte	-128
 7768 06db 80        		.byte	-128
 7769 06dc 80        		.byte	-128
 7770 06dd 80        		.byte	-128
 7771 06de 80        		.byte	-128
 7772 06df 80        		.byte	-128
 7773 06e0 80        		.byte	-128
 7774 06e1 00        		.byte	0
 7775 06e2 00        		.byte	0
 7776 06e3 00        		.byte	0
 7777 06e4 01        		.byte	1
 7778 06e5 03        		.byte	3
 7779 06e6 02        		.byte	2
 7780 06e7 00        		.byte	0
 7781 06e8 00        		.byte	0
 7782 06e9 00        		.byte	0
 7783 06ea 00        		.byte	0
 7784 06eb 00        		.byte	0
 7785 06ec 00        		.byte	0
 7786 06ed 00        		.byte	0
 7787 06ee 00        		.byte	0
 7788 06ef 00        		.byte	0
 7789 06f0 00        		.byte	0
 7790 06f1 00        		.byte	0
 7791 06f2 00        		.byte	0
 7792 06f3 00        		.byte	0
 7793 06f4 00        		.byte	0
 7794 06f5 00        		.byte	0
 7795 06f6 00        		.byte	0
 7796 06f7 B0        		.byte	-80
 7797 06f8 98        		.byte	-104
 7798 06f9 D8        		.byte	-40
 7799 06fa D8        		.byte	-40
 7800 06fb D8        		.byte	-40
 7801 06fc F8        		.byte	-8
 7802 06fd F0        		.byte	-16
 7803 06fe 00        		.byte	0
 7804 06ff 00        		.byte	0
 7805 0700 07        		.byte	7
 7806 0701 0F        		.byte	15
 7807 0702 0D        		.byte	13
 7808 0703 0C        		.byte	12
 7809 0704 0C        		.byte	12
 7810 0705 06        		.byte	6
 7811 0706 0F        		.byte	15
 7812 0707 0F        		.byte	15
 7813 0708 00        		.byte	0
 7814 0709 00        		.byte	0
 7815 070a FF        		.byte	-1
 7816 070b FF        		.byte	-1
 7817 070c 30        		.byte	48
 7818 070d 18        		.byte	24
 7819 070e 18        		.byte	24
 7820 070f 38        		.byte	56
 7821 0710 F0        		.byte	-16
 7822 0711 E0        		.byte	-32
 7823 0712 00        		.byte	0
 7824 0713 00        		.byte	0
 7825 0714 0F        		.byte	15
 7826 0715 0F        		.byte	15
 7827 0716 06        		.byte	6
 7828 0717 0C        		.byte	12
 7829 0718 0C        		.byte	12
 7830 0719 0E        		.byte	14
 7831 071a 07        		.byte	7
 7832 071b 03        		.byte	3
 7833 071c 00        		.byte	0
 7834 071d 00        		.byte	0
 7835 071e E0        		.byte	-32
 7836 071f F0        		.byte	-16
 7837 0720 38        		.byte	56
 7838 0721 18        		.byte	24
 7839 0722 18        		.byte	24
 7840 0723 18        		.byte	24
 7841 0724 18        		.byte	24
 7842 0725 30        		.byte	48
 7843 0726 00        		.byte	0
 7844 0727 00        		.byte	0
 7845 0728 03        		.byte	3
 7846 0729 07        		.byte	7
 7847 072a 0E        		.byte	14
 7848 072b 0C        		.byte	12
 7849 072c 0C        		.byte	12
 7850 072d 0C        		.byte	12
 7851 072e 0C        		.byte	12
 7852 072f 06        		.byte	6
 7853 0730 00        		.byte	0
 7854 0731 00        		.byte	0
 7855 0732 E0        		.byte	-32
 7856 0733 F0        		.byte	-16
 7857 0734 38        		.byte	56
 7858 0735 18        		.byte	24
 7859 0736 18        		.byte	24
 7860 0737 30        		.byte	48
 7861 0738 FF        		.byte	-1
 7862 0739 FF        		.byte	-1
 7863 073a 00        		.byte	0
 7864 073b 00        		.byte	0
 7865 073c 03        		.byte	3
 7866 073d 07        		.byte	7
 7867 073e 0E        		.byte	14
 7868 073f 0C        		.byte	12
 7869 0740 0C        		.byte	12
 7870 0741 06        		.byte	6
 7871 0742 0F        		.byte	15
 7872 0743 0F        		.byte	15
 7873 0744 00        		.byte	0
 7874 0745 00        		.byte	0
 7875 0746 E0        		.byte	-32
 7876 0747 F0        		.byte	-16
 7877 0748 D8        		.byte	-40
 7878 0749 D8        		.byte	-40
 7879 074a D8        		.byte	-40
 7880 074b D8        		.byte	-40
 7881 074c F0        		.byte	-16
 7882 074d E0        		.byte	-32
 7883 074e 00        		.byte	0
 7884 074f 00        		.byte	0
 7885 0750 03        		.byte	3
 7886 0751 07        		.byte	7
 7887 0752 0E        		.byte	14
 7888 0753 0C        		.byte	12
 7889 0754 0C        		.byte	12
 7890 0755 0C        		.byte	12
 7891 0756 0C        		.byte	12
 7892 0757 06        		.byte	6
 7893 0758 00        		.byte	0
 7894 0759 00        		.byte	0
 7895 075a 18        		.byte	24
 7896 075b 18        		.byte	24
 7897 075c FE        		.byte	-2
 7898 075d FF        		.byte	-1
 7899 075e 1B        		.byte	27
 7900 075f 1B        		.byte	27
 7901 0760 1B        		.byte	27
 7902 0761 00        		.byte	0
 7903 0762 00        		.byte	0
 7904 0763 00        		.byte	0
 7905 0764 00        		.byte	0
 7906 0765 00        		.byte	0
 7907 0766 0F        		.byte	15
 7908 0767 0F        		.byte	15
 7909 0768 00        		.byte	0
 7910 0769 00        		.byte	0
 7911 076a 00        		.byte	0
 7912 076b 00        		.byte	0
 7913 076c 00        		.byte	0
 7914 076d 00        		.byte	0
 7915 076e E0        		.byte	-32
 7916 076f F0        		.byte	-16
 7917 0770 38        		.byte	56
 7918 0771 18        		.byte	24
 7919 0772 18        		.byte	24
 7920 0773 30        		.byte	48
 7921 0774 F8        		.byte	-8
 7922 0775 F8        		.byte	-8
 7923 0776 00        		.byte	0
 7924 0777 00        		.byte	0
 7925 0778 03        		.byte	3
 7926 0779 37        		.byte	55
 7927 077a 6E        		.byte	110
 7928 077b 6C        		.byte	108
 7929 077c 6C        		.byte	108
 7930 077d 66        		.byte	102
 7931 077e 7F        		.byte	127
 7932 077f 3F        		.byte	63
 7933 0780 00        		.byte	0
 7934 0781 00        		.byte	0
 7935 0782 FF        		.byte	-1
 7936 0783 FF        		.byte	-1
 7937 0784 30        		.byte	48
 7938 0785 18        		.byte	24
 7939 0786 18        		.byte	24
 7940 0787 18        		.byte	24
 7941 0788 F8        		.byte	-8
 7942 0789 F0        		.byte	-16
 7943 078a 00        		.byte	0
 7944 078b 00        		.byte	0
 7945 078c 0F        		.byte	15
 7946 078d 0F        		.byte	15
 7947 078e 00        		.byte	0
 7948 078f 00        		.byte	0
 7949 0790 00        		.byte	0
 7950 0791 00        		.byte	0
 7951 0792 0F        		.byte	15
 7952 0793 0F        		.byte	15
 7953 0794 00        		.byte	0
 7954 0795 00        		.byte	0
 7955 0796 00        		.byte	0
 7956 0797 18        		.byte	24
 7957 0798 18        		.byte	24
 7958 0799 FB        		.byte	-5
 7959 079a FB        		.byte	-5
 7960 079b 00        		.byte	0
 7961 079c 00        		.byte	0
 7962 079d 00        		.byte	0
 7963 079e 00        		.byte	0
 7964 079f 00        		.byte	0
 7965 07a0 0C        		.byte	12
 7966 07a1 0C        		.byte	12
 7967 07a2 0C        		.byte	12
 7968 07a3 0F        		.byte	15
 7969 07a4 0F        		.byte	15
 7970 07a5 0C        		.byte	12
 7971 07a6 0C        		.byte	12
 7972 07a7 0C        		.byte	12
 7973 07a8 00        		.byte	0
 7974 07a9 00        		.byte	0
 7975 07aa 00        		.byte	0
 7976 07ab 18        		.byte	24
 7977 07ac 18        		.byte	24
 7978 07ad FB        		.byte	-5
 7979 07ae FB        		.byte	-5
 7980 07af 00        		.byte	0
 7981 07b0 00        		.byte	0
 7982 07b1 00        		.byte	0
 7983 07b2 00        		.byte	0
 7984 07b3 00        		.byte	0
 7985 07b4 60        		.byte	96
 7986 07b5 60        		.byte	96
 7987 07b6 60        		.byte	96
 7988 07b7 7F        		.byte	127
 7989 07b8 3F        		.byte	63
 7990 07b9 00        		.byte	0
 7991 07ba 00        		.byte	0
 7992 07bb 00        		.byte	0
 7993 07bc 00        		.byte	0
 7994 07bd 00        		.byte	0
 7995 07be FF        		.byte	-1
 7996 07bf FF        		.byte	-1
 7997 07c0 C0        		.byte	-64
 7998 07c1 F0        		.byte	-16
 7999 07c2 B8        		.byte	-72
 8000 07c3 18        		.byte	24
 8001 07c4 08        		.byte	8
 8002 07c5 00        		.byte	0
 8003 07c6 00        		.byte	0
 8004 07c7 00        		.byte	0
 8005 07c8 0F        		.byte	15
 8006 07c9 0F        		.byte	15
 8007 07ca 00        		.byte	0
 8008 07cb 01        		.byte	1
 8009 07cc 03        		.byte	3
 8010 07cd 0F        		.byte	15
 8011 07ce 0C        		.byte	12
 8012 07cf 08        		.byte	8
 8013 07d0 00        		.byte	0
 8014 07d1 00        		.byte	0
 8015 07d2 03        		.byte	3
 8016 07d3 03        		.byte	3
 8017 07d4 FF        		.byte	-1
 8018 07d5 FF        		.byte	-1
 8019 07d6 00        		.byte	0
 8020 07d7 00        		.byte	0
 8021 07d8 00        		.byte	0
 8022 07d9 00        		.byte	0
 8023 07da 00        		.byte	0
 8024 07db 00        		.byte	0
 8025 07dc 00        		.byte	0
 8026 07dd 00        		.byte	0
 8027 07de 07        		.byte	7
 8028 07df 0F        		.byte	15
 8029 07e0 0C        		.byte	12
 8030 07e1 0C        		.byte	12
 8031 07e2 0C        		.byte	12
 8032 07e3 00        		.byte	0
 8033 07e4 00        		.byte	0
 8034 07e5 00        		.byte	0
 8035 07e6 F8        		.byte	-8
 8036 07e7 F8        		.byte	-8
 8037 07e8 18        		.byte	24
 8038 07e9 F8        		.byte	-8
 8039 07ea F0        		.byte	-16
 8040 07eb 18        		.byte	24
 8041 07ec F8        		.byte	-8
 8042 07ed F0        		.byte	-16
 8043 07ee 00        		.byte	0
 8044 07ef 00        		.byte	0
 8045 07f0 0F        		.byte	15
 8046 07f1 0F        		.byte	15
 8047 07f2 00        		.byte	0
 8048 07f3 0F        		.byte	15
 8049 07f4 0F        		.byte	15
 8050 07f5 00        		.byte	0
 8051 07f6 0F        		.byte	15
 8052 07f7 0F        		.byte	15
 8053 07f8 00        		.byte	0
 8054 07f9 00        		.byte	0
 8055 07fa F8        		.byte	-8
 8056 07fb F8        		.byte	-8
 8057 07fc 30        		.byte	48
 8058 07fd 18        		.byte	24
 8059 07fe 18        		.byte	24
 8060 07ff 18        		.byte	24
 8061 0800 F8        		.byte	-8
 8062 0801 F0        		.byte	-16
 8063 0802 00        		.byte	0
 8064 0803 00        		.byte	0
 8065 0804 0F        		.byte	15
 8066 0805 0F        		.byte	15
 8067 0806 00        		.byte	0
 8068 0807 00        		.byte	0
 8069 0808 00        		.byte	0
 8070 0809 00        		.byte	0
 8071 080a 0F        		.byte	15
 8072 080b 0F        		.byte	15
 8073 080c 00        		.byte	0
 8074 080d 00        		.byte	0
 8075 080e E0        		.byte	-32
 8076 080f F0        		.byte	-16
 8077 0810 38        		.byte	56
 8078 0811 18        		.byte	24
 8079 0812 18        		.byte	24
 8080 0813 38        		.byte	56
 8081 0814 F0        		.byte	-16
 8082 0815 E0        		.byte	-32
 8083 0816 00        		.byte	0
 8084 0817 00        		.byte	0
 8085 0818 03        		.byte	3
 8086 0819 07        		.byte	7
 8087 081a 0E        		.byte	14
 8088 081b 0C        		.byte	12
 8089 081c 0C        		.byte	12
 8090 081d 0E        		.byte	14
 8091 081e 07        		.byte	7
 8092 081f 03        		.byte	3
 8093 0820 00        		.byte	0
 8094 0821 00        		.byte	0
 8095 0822 F8        		.byte	-8
 8096 0823 F8        		.byte	-8
 8097 0824 30        		.byte	48
 8098 0825 18        		.byte	24
 8099 0826 18        		.byte	24
 8100 0827 38        		.byte	56
 8101 0828 F0        		.byte	-16
 8102 0829 E0        		.byte	-32
 8103 082a 00        		.byte	0
 8104 082b 00        		.byte	0
 8105 082c 7F        		.byte	127
 8106 082d 7F        		.byte	127
 8107 082e 06        		.byte	6
 8108 082f 0C        		.byte	12
 8109 0830 0C        		.byte	12
 8110 0831 0E        		.byte	14
 8111 0832 07        		.byte	7
 8112 0833 03        		.byte	3
 8113 0834 00        		.byte	0
 8114 0835 00        		.byte	0
 8115 0836 E0        		.byte	-32
 8116 0837 F0        		.byte	-16
 8117 0838 38        		.byte	56
 8118 0839 18        		.byte	24
 8119 083a 18        		.byte	24
 8120 083b 30        		.byte	48
 8121 083c F8        		.byte	-8
 8122 083d F8        		.byte	-8
 8123 083e 00        		.byte	0
 8124 083f 00        		.byte	0
 8125 0840 03        		.byte	3
 8126 0841 07        		.byte	7
 8127 0842 0E        		.byte	14
 8128 0843 0C        		.byte	12
 8129 0844 0C        		.byte	12
 8130 0845 06        		.byte	6
 8131 0846 7F        		.byte	127
 8132 0847 7F        		.byte	127
 8133 0848 00        		.byte	0
 8134 0849 00        		.byte	0
 8135 084a 00        		.byte	0
 8136 084b F8        		.byte	-8
 8137 084c F8        		.byte	-8
 8138 084d 30        		.byte	48
 8139 084e 18        		.byte	24
 8140 084f 18        		.byte	24
 8141 0850 18        		.byte	24
 8142 0851 18        		.byte	24
 8143 0852 00        		.byte	0
 8144 0853 00        		.byte	0
 8145 0854 00        		.byte	0
 8146 0855 0F        		.byte	15
 8147 0856 0F        		.byte	15
 8148 0857 00        		.byte	0
 8149 0858 00        		.byte	0
 8150 0859 00        		.byte	0
 8151 085a 00        		.byte	0
 8152 085b 00        		.byte	0
 8153 085c 00        		.byte	0
 8154 085d 00        		.byte	0
 8155 085e 70        		.byte	112
 8156 085f F8        		.byte	-8
 8157 0860 D8        		.byte	-40
 8158 0861 D8        		.byte	-40
 8159 0862 D8        		.byte	-40
 8160 0863 D8        		.byte	-40
 8161 0864 98        		.byte	-104
 8162 0865 30        		.byte	48
 8163 0866 00        		.byte	0
 8164 0867 00        		.byte	0
 8165 0868 06        		.byte	6
 8166 0869 0C        		.byte	12
 8167 086a 0C        		.byte	12
 8168 086b 0C        		.byte	12
 8169 086c 0C        		.byte	12
 8170 086d 0D        		.byte	13
 8171 086e 0F        		.byte	15
 8172 086f 07        		.byte	7
 8173 0870 00        		.byte	0
 8174 0871 00        		.byte	0
 8175 0872 18        		.byte	24
 8176 0873 18        		.byte	24
 8177 0874 FE        		.byte	-2
 8178 0875 FE        		.byte	-2
 8179 0876 18        		.byte	24
 8180 0877 18        		.byte	24
 8181 0878 18        		.byte	24
 8182 0879 00        		.byte	0
 8183 087a 00        		.byte	0
 8184 087b 00        		.byte	0
 8185 087c 00        		.byte	0
 8186 087d 00        		.byte	0
 8187 087e 07        		.byte	7
 8188 087f 0F        		.byte	15
 8189 0880 0C        		.byte	12
 8190 0881 0C        		.byte	12
 8191 0882 0C        		.byte	12
 8192 0883 00        		.byte	0
 8193 0884 00        		.byte	0
 8194 0885 00        		.byte	0
 8195 0886 F8        		.byte	-8
 8196 0887 F8        		.byte	-8
 8197 0888 00        		.byte	0
 8198 0889 00        		.byte	0
 8199 088a 00        		.byte	0
 8200 088b 00        		.byte	0
 8201 088c F8        		.byte	-8
 8202 088d F8        		.byte	-8
 8203 088e 00        		.byte	0
 8204 088f 00        		.byte	0
 8205 0890 07        		.byte	7
 8206 0891 0F        		.byte	15
 8207 0892 0C        		.byte	12
 8208 0893 0C        		.byte	12
 8209 0894 0C        		.byte	12
 8210 0895 06        		.byte	6
 8211 0896 0F        		.byte	15
 8212 0897 0F        		.byte	15
 8213 0898 00        		.byte	0
 8214 0899 00        		.byte	0
 8215 089a 18        		.byte	24
 8216 089b F8        		.byte	-8
 8217 089c F0        		.byte	-16
 8218 089d 00        		.byte	0
 8219 089e 00        		.byte	0
 8220 089f F0        		.byte	-16
 8221 08a0 F8        		.byte	-8
 8222 08a1 18        		.byte	24
 8223 08a2 00        		.byte	0
 8224 08a3 00        		.byte	0
 8225 08a4 00        		.byte	0
 8226 08a5 00        		.byte	0
 8227 08a6 07        		.byte	7
 8228 08a7 0F        		.byte	15
 8229 08a8 0F        		.byte	15
 8230 08a9 07        		.byte	7
 8231 08aa 00        		.byte	0
 8232 08ab 00        		.byte	0
 8233 08ac 00        		.byte	0
 8234 08ad 38        		.byte	56
 8235 08ae F8        		.byte	-8
 8236 08af 80        		.byte	-128
 8237 08b0 00        		.byte	0
 8238 08b1 E0        		.byte	-32
 8239 08b2 E0        		.byte	-32
 8240 08b3 00        		.byte	0
 8241 08b4 80        		.byte	-128
 8242 08b5 F8        		.byte	-8
 8243 08b6 38        		.byte	56
 8244 08b7 00        		.byte	0
 8245 08b8 03        		.byte	3
 8246 08b9 0F        		.byte	15
 8247 08ba 0F        		.byte	15
 8248 08bb 01        		.byte	1
 8249 08bc 01        		.byte	1
 8250 08bd 0F        		.byte	15
 8251 08be 0F        		.byte	15
 8252 08bf 03        		.byte	3
 8253 08c0 00        		.byte	0
 8254 08c1 00        		.byte	0
 8255 08c2 08        		.byte	8
 8256 08c3 18        		.byte	24
 8257 08c4 78        		.byte	120
 8258 08c5 E0        		.byte	-32
 8259 08c6 E0        		.byte	-32
 8260 08c7 78        		.byte	120
 8261 08c8 18        		.byte	24
 8262 08c9 08        		.byte	8
 8263 08ca 00        		.byte	0
 8264 08cb 00        		.byte	0
 8265 08cc 08        		.byte	8
 8266 08cd 0C        		.byte	12
 8267 08ce 0F        		.byte	15
 8268 08cf 03        		.byte	3
 8269 08d0 03        		.byte	3
 8270 08d1 0F        		.byte	15
 8271 08d2 0C        		.byte	12
 8272 08d3 08        		.byte	8
 8273 08d4 00        		.byte	0
 8274 08d5 00        		.byte	0
 8275 08d6 08        		.byte	8
 8276 08d7 78        		.byte	120
 8277 08d8 F8        		.byte	-8
 8278 08d9 C0        		.byte	-64
 8279 08da 80        		.byte	-128
 8280 08db F8        		.byte	-8
 8281 08dc F8        		.byte	-8
 8282 08dd 18        		.byte	24
 8283 08de 00        		.byte	0
 8284 08df 00        		.byte	0
 8285 08e0 00        		.byte	0
 8286 08e1 60        		.byte	96
 8287 08e2 61        		.byte	97
 8288 08e3 7F        		.byte	127
 8289 08e4 1F        		.byte	31
 8290 08e5 07        		.byte	7
 8291 08e6 00        		.byte	0
 8292 08e7 00        		.byte	0
 8293 08e8 00        		.byte	0
 8294 08e9 00        		.byte	0
 8295 08ea 18        		.byte	24
 8296 08eb 18        		.byte	24
 8297 08ec 18        		.byte	24
 8298 08ed 98        		.byte	-104
 8299 08ee D8        		.byte	-40
 8300 08ef 78        		.byte	120
 8301 08f0 38        		.byte	56
 8302 08f1 18        		.byte	24
 8303 08f2 00        		.byte	0
 8304 08f3 00        		.byte	0
 8305 08f4 0C        		.byte	12
 8306 08f5 0E        		.byte	14
 8307 08f6 0F        		.byte	15
 8308 08f7 0D        		.byte	13
 8309 08f8 0C        		.byte	12
 8310 08f9 0C        		.byte	12
 8311 08fa 0C        		.byte	12
 8312 08fb 0C        		.byte	12
 8313 08fc 00        		.byte	0
 8314 08fd 00        		.byte	0
 8315 08fe 00        		.byte	0
 8316 08ff 80        		.byte	-128
 8317 0900 80        		.byte	-128
 8318 0901 7E        		.byte	126
 8319 0902 7F        		.byte	127
 8320 0903 01        		.byte	1
 8321 0904 01        		.byte	1
 8322 0905 00        		.byte	0
 8323 0906 00        		.byte	0
 8324 0907 00        		.byte	0
 8325 0908 00        		.byte	0
 8326 0909 00        		.byte	0
 8327 090a 00        		.byte	0
 8328 090b 3F        		.byte	63
 8329 090c 7F        		.byte	127
 8330 090d 40        		.byte	64
 8331 090e 40        		.byte	64
 8332 090f 00        		.byte	0
 8333 0910 00        		.byte	0
 8334 0911 10        		.byte	16
 8335 0912 18        		.byte	24
 8336 0913 1C        		.byte	28
 8337 0914 1E        		.byte	30
 8338 0915 FF        		.byte	-1
 8339 0916 FF        		.byte	-1
 8340 0917 1E        		.byte	30
 8341 0918 1C        		.byte	28
 8342 0919 18        		.byte	24
 8343 091a 10        		.byte	16
 8344 091b 00        		.byte	0
 8345 091c 00        		.byte	0
 8346 091d 00        		.byte	0
 8347 091e 00        		.byte	0
 8348 091f FF        		.byte	-1
 8349 0920 FF        		.byte	-1
 8350 0921 00        		.byte	0
 8351 0922 00        		.byte	0
 8352 0923 00        		.byte	0
 8353 0924 00        		.byte	0
 8354 0925 00        		.byte	0
 8355 0926 00        		.byte	0
 8356 0927 01        		.byte	1
 8357 0928 01        		.byte	1
 8358 0929 7F        		.byte	127
 8359 092a 7E        		.byte	126
 8360 092b 80        		.byte	-128
 8361 092c 80        		.byte	-128
 8362 092d 00        		.byte	0
 8363 092e 00        		.byte	0
 8364 092f 00        		.byte	0
 8365 0930 00        		.byte	0
 8366 0931 40        		.byte	64
 8367 0932 40        		.byte	64
 8368 0933 7F        		.byte	127
 8369 0934 3F        		.byte	63
 8370 0935 00        		.byte	0
 8371 0936 00        		.byte	0
 8372 0937 00        		.byte	0
 8373 0938 00        		.byte	0
 8374 0939 00        		.byte	0
 8375 093a C0        		.byte	-64
 8376 093b 60        		.byte	96
 8377 093c 60        		.byte	96
 8378 093d 60        		.byte	96
 8379 093e C0        		.byte	-64
 8380 093f C0        		.byte	-64
 8381 0940 C0        		.byte	-64
 8382 0941 60        		.byte	96
 8383 0942 00        		.byte	0
 8384 0943 00        		.byte	0
 8385 0944 00        		.byte	0
 8386 0945 00        		.byte	0
 8387 0946 00        		.byte	0
 8388 0947 00        		.byte	0
 8389 0948 00        		.byte	0
 8390 0949 00        		.byte	0
 8391 094a 00        		.byte	0
 8392 094b 00        		.byte	0
 8393 094c 00        		.byte	0
 8394               		.comm RX_array,256,1
 8395               		.comm buffer,256,1
 8396               		.comm font_bytes,1,1
 8397               		.comm font_w,1,1
 8398               		.comm font_h,1,1
 8399               		.comm font_space,1,1
 8672               	.Letext0:
DEFINED SYMBOLS
                            *ABS*:0000000000000000 main.c
     /tmp/ccYeDOsC.s:2      *ABS*:000000000000003f __SREG__
     /tmp/ccYeDOsC.s:3      *ABS*:000000000000003e __SP_H__
     /tmp/ccYeDOsC.s:4      *ABS*:000000000000003d __SP_L__
     /tmp/ccYeDOsC.s:5      *ABS*:0000000000000034 __CCP__
     /tmp/ccYeDOsC.s:6      *ABS*:0000000000000000 __tmp_reg__
     /tmp/ccYeDOsC.s:7      *ABS*:0000000000000001 __zero_reg__
     /tmp/ccYeDOsC.s:18     .text:0000000000000000 __vector_18
     /tmp/ccYeDOsC.s:5894   .bss:0000000000000000 RX_in
                            *COM*:0000000000000100 RX_array
     /tmp/ccYeDOsC.s:5906   .bss:0000000000000003 RX_bytes
     /tmp/ccYeDOsC.s:5912   .bss:0000000000000004 RX_pause
     /tmp/ccYeDOsC.s:95     .text:000000000000006a __vector_14
     /tmp/ccYeDOsC.s:5937   .data:000000000000003d BL_dutycycle
     /tmp/ccYeDOsC.s:152    .text:00000000000000b4 ioinit
     /tmp/ccYeDOsC.s:188    .text:00000000000000d8 delay_us
     /tmp/ccYeDOsC.s:229    .text:00000000000000fe delay_ms
     /tmp/ccYeDOsC.s:270    .text:000000000000012a USART_Init
     /tmp/ccYeDOsC.s:304    .text:0000000000000148 RX_get_byte
     /tmp/ccYeDOsC.s:5900   .bss:0000000000000001 RX_read
     /tmp/ccYeDOsC.s:382    .text:00000000000001b0 put_char
     /tmp/ccYeDOsC.s:404    .text:00000000000001c0 delay
     /tmp/ccYeDOsC.s:430    .text:00000000000001cc set_data
     /tmp/ccYeDOsC.s:463    .text:00000000000001ec write_command_LCD
     /tmp/ccYeDOsC.s:594    .text:0000000000000252 write_data_LCD
     /tmp/ccYeDOsC.s:725    .text:00000000000002b8 write_block
     /tmp/ccYeDOsC.s:1082   .text:000000000000041a read_data_LCD
     /tmp/ccYeDOsC.s:1237   .text:0000000000000480 read_block
     /tmp/ccYeDOsC.s:1668   .text:00000000000005fe clear_screen
     /tmp/ccYeDOsC.s:5918   .bss:0000000000000005 reverse
     /tmp/ccYeDOsC.s:5971   .bss:0000000000000007 x_offset
     /tmp/ccYeDOsC.s:5977   .bss:0000000000000008 y_offset
                            *COM*:0000000000000100 buffer
     /tmp/ccYeDOsC.s:1859   .text:00000000000006ce bitblt
     /tmp/ccYeDOsC.s:2493   .text:0000000000000a60 print_char
                            *COM*:0000000000000001 font_bytes
     /tmp/ccYeDOsC.s:5995   .bss:0000000000000009 aux_font
     /tmp/ccYeDOsC.s:6009   .progmem.data:0000000000000000 text_array
                            *COM*:0000000000000001 font_w
                            *COM*:0000000000000001 font_h
     /tmp/ccYeDOsC.s:5983   .data:000000000000014e font_mode
                            *COM*:0000000000000001 font_space
     /tmp/ccYeDOsC.s:6490   .progmem.data:00000000000001de aux_text_array
     /tmp/ccYeDOsC.s:2804   .text:0000000000000c16 read_byte
     /tmp/ccYeDOsC.s:2830   .text:0000000000000c2c pixel
     /tmp/ccYeDOsC.s:6003   .bss:0000000000000015 temp_side.2447
     /tmp/ccYeDOsC.s:6002   .bss:0000000000000014 temp_x.2448
     /tmp/ccYeDOsC.s:6004   .bss:0000000000000016 temp_page.2446
     /tmp/ccYeDOsC.s:6001   .bss:0000000000000013 temp_data1.2449
     /tmp/ccYeDOsC.s:6000   .bss:0000000000000012 temp_data2.2450
     /tmp/ccYeDOsC.s:2967   .text:0000000000000d02 line
     /tmp/ccYeDOsC.s:3248   .text:0000000000000e60 circle
     /tmp/ccYeDOsC.s:3467   .text:0000000000000fac EEPROM_write
     /tmp/ccYeDOsC.s:3493   .text:0000000000000fbc EEPROM_read
     /tmp/ccYeDOsC.s:3518   .text:0000000000000fca set_backlight
     /tmp/ccYeDOsC.s:3573   .text:0000000000001008 draw_block
     /tmp/ccYeDOsC.s:5999   .bss:0000000000000010 width.2627
     /tmp/ccYeDOsC.s:5997   .bss:000000000000000c x.2629
     /tmp/ccYeDOsC.s:5998   .bss:000000000000000e height.2628
                             .bss:000000000000000a y.2630
     /tmp/ccYeDOsC.s:3699   .text:00000000000010c4 del_char
     /tmp/ccYeDOsC.s:3790   .text:000000000000115e box
     /tmp/ccYeDOsC.s:3896   .text:00000000000011f8 draw_sprite
     /tmp/ccYeDOsC.s:5942   .data:000000000000003e sprite
     /tmp/ccYeDOsC.s:3941   .text:000000000000122e set_baud
     /tmp/ccYeDOsC.s:4016   .text:0000000000001284 LCD_reset
     /tmp/ccYeDOsC.s:4070   .text:00000000000012c6 main
     /tmp/ccYeDOsC.s:5887   .data:000000000000003b baud_rate
     /tmp/ccYeDOsC.s:5924   .data:000000000000003c splash_screen
     /tmp/ccYeDOsC.s:5931   .bss:0000000000000006 debug_msg
     /tmp/ccYeDOsC.s:5988   .data:000000000000014f CR_LF

UNDEFINED SYMBOLS
__divmodhi4
__udivmodqi4
rprintf_devopen
rprintf
__do_copy_data
__do_clear_bss
