   1               		.file	"main.c"
   2               	__SREG__ = 0x3f
   3               	__SP_H__ = 0x3e
   4               	__SP_L__ = 0x3d
   5               	__CCP__  = 0x34
   6               	__tmp_reg__ = 0
   7               	__zero_reg__ = 1
  15               	.Ltext0:
  16               	.global	__vector_20
  18               	__vector_20:
  19               	.LFB4:
  20               	.LM1:
  21 0000 1F92      		push __zero_reg__
  22 0002 0F92      		push r0
  23 0004 0FB6      		in r0,__SREG__
  24 0006 0F92      		push r0
  25 0008 1124      		clr __zero_reg__
  26 000a 8F93      		push r24
  27 000c 9F93      		push r25
  28 000e EF93      		push r30
  29 0010 FF93      		push r31
  30               	/* prologue: Signal */
  31               	/* frame size = 0 */
  32               	.LM2:
  33               	/* #APP */
  34               	 ;  203 "main.c" 1
  35 0012 F894      		cli
  36               	 ;  0 "" 2
  37               	.LM3:
  38               	/* #NOAPP */
  39 0014 8091 0000 		lds r24,RX_in
  40 0018 9091 C600 		lds r25,198
  41 001c E82F      		mov r30,r24
  42 001e F0E0      		ldi r31,lo8(0)
  43 0020 E050      		subi r30,lo8(-(RX_array))
  44 0022 F040      		sbci r31,hi8(-(RX_array))
  45 0024 9083      		st Z,r25
  46 0026 8F5F      		subi r24,lo8(-(1))
  47 0028 8093 0000 		sts RX_in,r24
  48               	.LM4:
  49 002c 8091 0000 		lds r24,RX_in
  50 0030 8431      		cpi r24,lo8(20)
  51 0032 00F0      		brlo .L2
  52 0034 1092 0000 		sts RX_in,__zero_reg__
  53               	.L2:
  54               	.LM5:
  55 0038 8091 0000 		lds r24,RX_bytes
  56 003c 8F5F      		subi r24,lo8(-(1))
  57 003e 8093 0000 		sts RX_bytes,r24
  58               	.LM6:
  59 0042 8091 0000 		lds r24,RX_bytes
  60 0046 8031      		cpi r24,lo8(16)
  61 0048 00F0      		brlo .L3
  62               	.L6:
  63               	.LBB109:
  64               	.LBB110:
  65               	.LM7:
  66 004a 8091 C000 		lds r24,192
  67 004e 85FF      		sbrs r24,5
  68 0050 00C0      		rjmp .L6
  69               	.LM8:
  70 0052 83E1      		ldi r24,lo8(19)
  71 0054 8093 C600 		sts 198,r24
  72               	.LBE110:
  73               	.LBE109:
  74               	.LM9:
  75 0058 81E0      		ldi r24,lo8(1)
  76 005a 8093 0000 		sts RX_pause,r24
  77               	.L3:
  78               	.LM10:
  79               	/* #APP */
  80               	 ;  216 "main.c" 1
  81 005e 7894      		sei
  82               	 ;  0 "" 2
  83               	/* epilogue start */
  84               	.LM11:
  85               	/* #NOAPP */
  86 0060 FF91      		pop r31
  87 0062 EF91      		pop r30
  88 0064 9F91      		pop r25
  89 0066 8F91      		pop r24
  90 0068 0F90      		pop r0
  91 006a 0FBE      		out __SREG__,r0
  92 006c 0F90      		pop r0
  93 006e 1F90      		pop __zero_reg__
  94 0070 1895      		reti
  95               	.LFE4:
  97               	.global	__vector_16
  99               	__vector_16:
 100               	.LFB5:
 101               	.LM12:
 102 0072 1F92      		push __zero_reg__
 103 0074 0F92      		push r0
 104 0076 0FB6      		in r0,__SREG__
 105 0078 0F92      		push r0
 106 007a 1124      		clr __zero_reg__
 107 007c 8F93      		push r24
 108 007e 9F93      		push r25
 109               	/* prologue: Signal */
 110               	/* frame size = 0 */
 111               	.LM13:
 112 0080 15BC      		out 69-32,__zero_reg__
 113               	.LM14:
 114 0082 1092 6E00 		sts 110,__zero_reg__
 115               	.LM15:
 116 0086 82E0      		ldi r24,lo8(2)
 117 0088 85BB      		out 53-32,r24
 118               	.LM16:
 119 008a 16BC      		out 70-32,__zero_reg__
 120               	.LM17:
 121 008c 0499      		sbic 32-32,4
 122 008e 00C0      		rjmp .L13
 123               	.LM18:
 124 0090 149A      		sbi 34-32,4
 125               	.LM19:
 126 0092 8091 0000 		lds r24,BL_dutycycle
 127 0096 87BD      		out 71-32,r24
 128               	.L11:
 129               	.LM20:
 130 0098 82E0      		ldi r24,lo8(2)
 131 009a 8093 6E00 		sts 110,r24
 132               	.LM21:
 133 009e 85BD      		out 69-32,r24
 134               	/* epilogue start */
 135               	.LM22:
 136 00a0 9F91      		pop r25
 137 00a2 8F91      		pop r24
 138 00a4 0F90      		pop r0
 139 00a6 0FBE      		out __SREG__,r0
 140 00a8 0F90      		pop r0
 141 00aa 1F90      		pop __zero_reg__
 142 00ac 1895      		reti
 143               	.L13:
 144               	.LM23:
 145 00ae 1498      		cbi 34-32,4
 146               	.LM24:
 147 00b0 84E6      		ldi r24,lo8(100)
 148 00b2 9091 0000 		lds r25,BL_dutycycle
 149 00b6 891B      		sub r24,r25
 150 00b8 87BD      		out 71-32,r24
 151 00ba 00C0      		rjmp .L11
 152               	.LFE5:
 154               	.global	ioinit
 156               	ioinit:
 157               	.LFB7:
 158               	.LM25:
 159               	/* prologue: function */
 160               	/* frame size = 0 */
 161               	.LM26:
 162 00bc 14B8      		out 36-32,__zero_reg__
 163               	.LM27:
 164 00be 17B8      		out 39-32,__zero_reg__
 165               	.LM28:
 166 00c0 80EF      		ldi r24,lo8(-16)
 167 00c2 82B9      		out 34-32,r24
 168               	.LM29:
 169 00c4 81B9      		out 33-32,r24
 170               	.LM30:
 171 00c6 8EEF      		ldi r24,lo8(-2)
 172 00c8 8AB9      		out 42-32,r24
 173               	.LM31:
 174 00ca 80E2      		ldi r24,lo8(32)
 175 00cc 8BB9      		out 43-32,r24
 176               	.LM32:
 177 00ce 82E0      		ldi r24,lo8(2)
 178 00d0 8093 B100 		sts 177,r24
 179               	.LM33:
 180 00d4 84BD      		out 68-32,r24
 181               	.LM34:
 182 00d6 8093 6E00 		sts 110,r24
 183               	.LM35:
 184 00da 8091 0000 		lds r24,BL_dutycycle
 185 00de 87BD      		out 71-32,r24
 186               	/* epilogue start */
 187               	.LM36:
 188 00e0 0895      		ret
 189               	.LFE7:
 191               	.global	delay_us
 193               	delay_us:
 194               	.LFB9:
 195               	.LM37:
 196               	.LVL0:
 197               	/* prologue: function */
 198               	/* frame size = 0 */
 199               	.LM38:
 200 00e2 8823      		tst r24
 201 00e4 01F4      		brne .L17
 202 00e6 9FEF      		ldi r25,lo8(-1)
 203               	.L18:
 204               	.LM39:
 205 00e8 B89A      		sbi 55-32,0
 206               	.LM40:
 207 00ea 9093 B200 		sts 178,r25
 208               	.L19:
 209               	.LM41:
 210 00ee B89B      		sbis 55-32,0
 211 00f0 00C0      		rjmp .L19
 212               	.LM42:
 213 00f2 8823      		tst r24
 214 00f4 01F0      		breq .L22
 215               	.LM43:
 216 00f6 B89A      		sbi 55-32,0
 217               	.LM44:
 218 00f8 9093 B200 		sts 178,r25
 219               	.L21:
 220               	.LM45:
 221 00fc B89B      		sbis 55-32,0
 222 00fe 00C0      		rjmp .L21
 223               	.L22:
 224 0100 0895      		ret
 225               	.L17:
 226               	.LM46:
 227 0102 982F      		mov r25,r24
 228 0104 9195      		neg r25
 229 0106 00C0      		rjmp .L18
 230               	.LFE9:
 232               	.global	delay_ms
 234               	delay_ms:
 235               	.LFB8:
 236               	.LM47:
 237               	.LVL1:
 238 0108 CF93      		push r28
 239 010a DF93      		push r29
 240               	/* prologue: function */
 241               	/* frame size = 0 */
 242 010c EC01      		movw r28,r24
 243               	.LM48:
 244 010e 0097      		sbiw r24,0
 245 0110 01F0      		breq .L28
 246               	.L29:
 247               	.LM49:
 248 0112 8AEF      		ldi r24,lo8(-6)
 249               	.LVL2:
 250 0114 0E94 0000 		call delay_us
 251               	.LM50:
 252 0118 8AEF      		ldi r24,lo8(-6)
 253 011a 0E94 0000 		call delay_us
 254               	.LM51:
 255 011e 8AEF      		ldi r24,lo8(-6)
 256 0120 0E94 0000 		call delay_us
 257               	.LM52:
 258 0124 8AEF      		ldi r24,lo8(-6)
 259 0126 0E94 0000 		call delay_us
 260               	.LM53:
 261 012a 2197      		sbiw r28,1
 262 012c 01F4      		brne .L29
 263               	.LVL3:
 264               	.L28:
 265               	/* epilogue start */
 266               	.LM54:
 267 012e DF91      		pop r29
 268 0130 CF91      		pop r28
 269               	.LVL4:
 270 0132 0895      		ret
 271               	.LFE8:
 273               	.global	USART_Init
 275               	USART_Init:
 276               	.LFB10:
 277               	.LM55:
 278               	.LVL5:
 279               	/* prologue: function */
 280               	/* frame size = 0 */
 281               	.LM56:
 282 0134 9093 C500 		sts 197,r25
 283               	.LVL6:
 284               	.LM57:
 285 0138 8093 C400 		sts 196,r24
 286               	.LM58:
 287 013c 82E0      		ldi r24,lo8(2)
 288               	.LVL7:
 289 013e 8093 C000 		sts 192,r24
 290               	.LM59:
 291 0142 88E9      		ldi r24,lo8(-104)
 292 0144 8093 C100 		sts 193,r24
 293               	.LM60:
 294 0148 86E0      		ldi r24,lo8(6)
 295 014a 8093 C200 		sts 194,r24
 296               	.LM61:
 297               	/* #APP */
 298               	 ;  1124 "main.c" 1
 299 014e 7894      		sei
 300               	 ;  0 "" 2
 301               	/* epilogue start */
 302               	.LM62:
 303               	/* #NOAPP */
 304 0150 0895      		ret
 305               	.LFE10:
 307               	.global	RX_get_byte
 309               	RX_get_byte:
 310               	.LFB11:
 311               	.LM63:
 312               	/* prologue: function */
 313               	/* frame size = 0 */
 314               	.L34:
 315               	.LM64:
 316 0152 8091 0000 		lds r24,RX_bytes
 317 0156 8823      		tst r24
 318 0158 01F0      		breq .L34
 319               	.LM65:
 320 015a 8091 0000 		lds r24,RX_read
 321 015e 9091 0000 		lds r25,(RX_read)+1
 322 0162 FC01      		movw r30,r24
 323 0164 E050      		subi r30,lo8(-(RX_array))
 324 0166 F040      		sbci r31,hi8(-(RX_array))
 325 0168 E081      		ld r30,Z
 326               	.LVL8:
 327 016a 0196      		adiw r24,1
 328 016c 9093 0000 		sts (RX_read)+1,r25
 329 0170 8093 0000 		sts RX_read,r24
 330               	.LM66:
 331 0174 4497      		sbiw r24,20
 332 0176 00F0      		brlo .L35
 333 0178 1092 0000 		sts (RX_read)+1,__zero_reg__
 334 017c 1092 0000 		sts RX_read,__zero_reg__
 335               	.L35:
 336               	.LM67:
 337               	/* #APP */
 338               	 ;  1134 "main.c" 1
 339 0180 F894      		cli
 340               	 ;  0 "" 2
 341               	.LM68:
 342               	/* #NOAPP */
 343 0182 8091 0000 		lds r24,RX_bytes
 344 0186 8150      		subi r24,lo8(-(-1))
 345 0188 8093 0000 		sts RX_bytes,r24
 346               	.LM69:
 347               	/* #APP */
 348               	 ;  1136 "main.c" 1
 349 018c 7894      		sei
 350               	 ;  0 "" 2
 351               	.LM70:
 352               	/* #NOAPP */
 353 018e 8091 0000 		lds r24,RX_pause
 354 0192 8130      		cpi r24,lo8(1)
 355 0194 01F0      		breq .L42
 356               	.L36:
 357               	.LM71:
 358 0196 8E2F      		mov r24,r30
 359               	/* epilogue start */
 360 0198 0895      		ret
 361               	.L42:
 362               	.LM72:
 363 019a 8091 0000 		lds r24,RX_bytes
 364 019e 8530      		cpi r24,lo8(5)
 365 01a0 00F4      		brsh .L36
 366               	.L39:
 367               	.LBB111:
 368               	.LBB112:
 369               	.LM73:
 370 01a2 8091 C000 		lds r24,192
 371 01a6 85FF      		sbrs r24,5
 372 01a8 00C0      		rjmp .L39
 373               	.LM74:
 374 01aa 81E1      		ldi r24,lo8(17)
 375 01ac 8093 C600 		sts 198,r24
 376               	.LBE112:
 377               	.LBE111:
 378               	.LM75:
 379 01b0 1092 0000 		sts RX_pause,__zero_reg__
 380 01b4 00C0      		rjmp .L36
 381               	.LFE11:
 383               	.global	put_char
 385               	put_char:
 386               	.LFB12:
 387               	.LM76:
 388               	.LVL9:
 389               	/* prologue: function */
 390               	/* frame size = 0 */
 391 01b6 982F      		mov r25,r24
 392               	.LVL10:
 393               	.L44:
 394               	.LM77:
 395 01b8 8091 C000 		lds r24,192
 396 01bc 85FF      		sbrs r24,5
 397 01be 00C0      		rjmp .L44
 398               	.LM78:
 399 01c0 9093 C600 		sts 198,r25
 400               	/* epilogue start */
 401               	.LM79:
 402 01c4 0895      		ret
 403               	.LFE12:
 405               	.global	delay
 407               	delay:
 408               	.LFB13:
 409               	.LM80:
 410               	/* prologue: function */
 411               	/* frame size = 0 */
 412               	.LM81:
 413 01c6 80E0      		ldi r24,lo8(0)
 414               	.LVL11:
 415               	.L48:
 416               	.LM82:
 417               	/* #APP */
 418               	 ;  1164 "main.c" 1
 419 01c8 0000      		nop
 420               	 ;  0 "" 2
 421               	.LM83:
 422               	/* #NOAPP */
 423 01ca 8F5F      		subi r24,lo8(-(1))
 424 01cc 8632      		cpi r24,lo8(38)
 425 01ce 01F4      		brne .L48
 426               	/* epilogue start */
 427               	.LM84:
 428 01d0 0895      		ret
 429               	.LFE13:
 431               	.global	write_command_LCD
 433               	write_command_LCD:
 434               	.LFB16:
 435               	.LM85:
 436               	.LVL12:
 437               	/* prologue: function */
 438               	/* frame size = 0 */
 439 01d2 982F      		mov r25,r24
 440               	.LM86:
 441 01d4 8FEF      		ldi r24,lo8(-1)
 442               	.LVL13:
 443 01d6 87B9      		out 39-32,r24
 444               	.LM87:
 445 01d8 6130      		cpi r22,lo8(1)
 446 01da 01F0      		breq .L64
 447               	.LM88:
 448 01dc 6230      		cpi r22,lo8(2)
 449 01de 01F0      		breq .L65
 450               	.LM89:
 451 01e0 80EE      		ldi r24,lo8(-32)
 452 01e2 8BB9      		out 43-32,r24
 453               	.L53:
 454               	.LM90:
 455 01e4 98B9      		out 40-32,r25
 456 01e6 80E0      		ldi r24,lo8(0)
 457               	.LVL14:
 458               	.L55:
 459               	.LBB113:
 460               	.LBB114:
 461               	.LM91:
 462               	/* #APP */
 463               	 ;  1164 "main.c" 1
 464 01e8 0000      		nop
 465               	 ;  0 "" 2
 466               	.LM92:
 467               	/* #NOAPP */
 468 01ea 8F5F      		subi r24,lo8(-(1))
 469 01ec 8632      		cpi r24,lo8(38)
 470 01ee 01F4      		brne .L55
 471               	.LBE114:
 472               	.LBE113:
 473               	.LM93:
 474 01f0 5A9A      		sbi 43-32,2
 475 01f2 80E0      		ldi r24,lo8(0)
 476               	.LVL15:
 477               	.L56:
 478               	.LBB115:
 479               	.LBB116:
 480               	.LM94:
 481               	/* #APP */
 482               	 ;  1164 "main.c" 1
 483 01f4 0000      		nop
 484               	 ;  0 "" 2
 485               	.LM95:
 486               	/* #NOAPP */
 487 01f6 8F5F      		subi r24,lo8(-(1))
 488 01f8 8632      		cpi r24,lo8(38)
 489 01fa 01F4      		brne .L56
 490               	.LBE116:
 491               	.LBE115:
 492               	.LM96:
 493 01fc 5A98      		cbi 43-32,2
 494 01fe 80E0      		ldi r24,lo8(0)
 495               	.LVL16:
 496               	.L57:
 497               	.LBB117:
 498               	.LBB118:
 499               	.LM97:
 500               	/* #APP */
 501               	 ;  1164 "main.c" 1
 502 0200 0000      		nop
 503               	 ;  0 "" 2
 504               	.LM98:
 505               	/* #NOAPP */
 506 0202 8F5F      		subi r24,lo8(-(1))
 507 0204 8632      		cpi r24,lo8(38)
 508 0206 01F4      		brne .L57
 509               	.LBE118:
 510               	.LBE117:
 511               	.LM99:
 512 0208 80E2      		ldi r24,lo8(32)
 513               	.LVL17:
 514 020a 8BB9      		out 43-32,r24
 515 020c 80E0      		ldi r24,lo8(0)
 516               	.LVL18:
 517               	.L58:
 518               	.LBB119:
 519               	.LBB120:
 520               	.LM100:
 521               	/* #APP */
 522               	 ;  1164 "main.c" 1
 523 020e 0000      		nop
 524               	 ;  0 "" 2
 525               	.LM101:
 526               	/* #NOAPP */
 527 0210 8F5F      		subi r24,lo8(-(1))
 528 0212 8632      		cpi r24,lo8(38)
 529 0214 01F4      		brne .L58
 530               	.LBE120:
 531               	.LBE119:
 532               	.LM102:
 533 0216 17B8      		out 39-32,__zero_reg__
 534               	/* epilogue start */
 535               	.LM103:
 536 0218 0895      		ret
 537               	.LVL19:
 538               	.L65:
 539               	.LM104:
 540 021a 80E6      		ldi r24,lo8(96)
 541 021c 8BB9      		out 43-32,r24
 542 021e 00C0      		rjmp .L53
 543               	.L64:
 544               	.LM105:
 545 0220 80EA      		ldi r24,lo8(-96)
 546 0222 8BB9      		out 43-32,r24
 547 0224 00C0      		rjmp .L53
 548               	.LFE16:
 550               	.global	write_data_LCD
 552               	write_data_LCD:
 553               	.LFB17:
 554               	.LM106:
 555               	.LVL20:
 556               	/* prologue: function */
 557               	/* frame size = 0 */
 558 0226 982F      		mov r25,r24
 559               	.LM107:
 560 0228 8FEF      		ldi r24,lo8(-1)
 561               	.LVL21:
 562 022a 87B9      		out 39-32,r24
 563               	.LM108:
 564 022c 6130      		cpi r22,lo8(1)
 565 022e 01F0      		breq .L79
 566               	.LM109:
 567 0230 6230      		cpi r22,lo8(2)
 568 0232 01F0      		breq .L80
 569               	.LM110:
 570 0234 88EE      		ldi r24,lo8(-24)
 571 0236 8BB9      		out 43-32,r24
 572               	.L68:
 573               	.LM111:
 574 0238 98B9      		out 40-32,r25
 575 023a 80E0      		ldi r24,lo8(0)
 576               	.LVL22:
 577               	.L70:
 578               	.LBB121:
 579               	.LBB122:
 580               	.LM112:
 581               	/* #APP */
 582               	 ;  1164 "main.c" 1
 583 023c 0000      		nop
 584               	 ;  0 "" 2
 585               	.LM113:
 586               	/* #NOAPP */
 587 023e 8F5F      		subi r24,lo8(-(1))
 588 0240 8632      		cpi r24,lo8(38)
 589 0242 01F4      		brne .L70
 590               	.LBE122:
 591               	.LBE121:
 592               	.LM114:
 593 0244 5A9A      		sbi 43-32,2
 594 0246 80E0      		ldi r24,lo8(0)
 595               	.LVL23:
 596               	.L71:
 597               	.LBB123:
 598               	.LBB124:
 599               	.LM115:
 600               	/* #APP */
 601               	 ;  1164 "main.c" 1
 602 0248 0000      		nop
 603               	 ;  0 "" 2
 604               	.LM116:
 605               	/* #NOAPP */
 606 024a 8F5F      		subi r24,lo8(-(1))
 607 024c 8632      		cpi r24,lo8(38)
 608 024e 01F4      		brne .L71
 609               	.LBE124:
 610               	.LBE123:
 611               	.LM117:
 612 0250 5A98      		cbi 43-32,2
 613 0252 80E0      		ldi r24,lo8(0)
 614               	.LVL24:
 615               	.L72:
 616               	.LBB125:
 617               	.LBB126:
 618               	.LM118:
 619               	/* #APP */
 620               	 ;  1164 "main.c" 1
 621 0254 0000      		nop
 622               	 ;  0 "" 2
 623               	.LM119:
 624               	/* #NOAPP */
 625 0256 8F5F      		subi r24,lo8(-(1))
 626 0258 8632      		cpi r24,lo8(38)
 627 025a 01F4      		brne .L72
 628               	.LBE126:
 629               	.LBE125:
 630               	.LM120:
 631 025c 80E2      		ldi r24,lo8(32)
 632               	.LVL25:
 633 025e 8BB9      		out 43-32,r24
 634 0260 80E0      		ldi r24,lo8(0)
 635               	.LVL26:
 636               	.L73:
 637               	.LBB127:
 638               	.LBB128:
 639               	.LM121:
 640               	/* #APP */
 641               	 ;  1164 "main.c" 1
 642 0262 0000      		nop
 643               	 ;  0 "" 2
 644               	.LM122:
 645               	/* #NOAPP */
 646 0264 8F5F      		subi r24,lo8(-(1))
 647 0266 8632      		cpi r24,lo8(38)
 648 0268 01F4      		brne .L73
 649               	.LBE128:
 650               	.LBE127:
 651               	.LM123:
 652 026a 17B8      		out 39-32,__zero_reg__
 653               	/* epilogue start */
 654               	.LM124:
 655 026c 0895      		ret
 656               	.LVL27:
 657               	.L80:
 658               	.LM125:
 659 026e 88E6      		ldi r24,lo8(104)
 660 0270 8BB9      		out 43-32,r24
 661 0272 00C0      		rjmp .L68
 662               	.L79:
 663               	.LM126:
 664 0274 88EA      		ldi r24,lo8(-88)
 665 0276 8BB9      		out 43-32,r24
 666 0278 00C0      		rjmp .L68
 667               	.LFE17:
 669               	.global	write_block
 671               	write_block:
 672               	.LFB18:
 673               	.LM127:
 674               	.LVL28:
 675 027a CF92      		push r12
 676 027c DF92      		push r13
 677 027e FF92      		push r15
 678 0280 0F93      		push r16
 679 0282 1F93      		push r17
 680 0284 DF93      		push r29
 681 0286 CF93      		push r28
 682 0288 0F92      		push __tmp_reg__
 683 028a CDB7      		in r28,__SP_L__
 684 028c DEB7      		in r29,__SP_H__
 685               	/* prologue: function */
 686               	/* frame size = 1 */
 687 028e 082F      		mov r16,r24
 688 0290 862F      		mov r24,r22
 689               	.LVL29:
 690 0292 142F      		mov r17,r20
 691 0294 6901      		movw r12,r18
 692               	.LM128:
 693 0296 886B      		ori r24,lo8(-72)
 694 0298 60E0      		ldi r22,lo8(0)
 695               	.LVL30:
 696 029a 0E94 0000 		call write_command_LCD
 697               	.LVL31:
 698               	.LM129:
 699 029e 0034      		cpi r16,lo8(64)
 700 02a0 00F0      		brlo .+2
 701 02a2 00C0      		rjmp .L82
 702 02a4 81E0      		ldi r24,lo8(1)
 703 02a6 8983      		std Y+1,r24
 704               	.LVL32:
 705               	.L83:
 706               	.LM130:
 707 02a8 40E4      		ldi r20,lo8(64)
 708               	.LVL33:
 709 02aa 401B      		sub r20,r16
 710               	.LM131:
 711 02ac 4117      		cp r20,r17
 712 02ae 00F4      		brsh .+2
 713 02b0 00C0      		rjmp .L84
 714 02b2 FF24      		clr r15
 715               	.LVL34:
 716               	.L85:
 717               	.LM132:
 718 02b4 802F      		mov r24,r16
 719 02b6 8064      		ori r24,lo8(64)
 720 02b8 60E0      		ldi r22,lo8(0)
 721 02ba 0E94 0000 		call write_command_LCD
 722               	.LVL35:
 723               	.LM133:
 724 02be 8FEF      		ldi r24,lo8(-1)
 725 02c0 87B9      		out 39-32,r24
 726               	.LM134:
 727 02c2 F981      		ldd r31,Y+1
 728 02c4 F130      		cpi r31,lo8(1)
 729 02c6 01F4      		brne .+2
 730 02c8 00C0      		rjmp .L114
 731               	.LM135:
 732 02ca 88E6      		ldi r24,lo8(104)
 733 02cc 8BB9      		out 43-32,r24
 734               	.L89:
 735               	.LM136:
 736 02ce 1123      		tst r17
 737 02d0 01F0      		breq .L88
 738               	.LM137:
 739 02d2 4C2D      		mov r20,r12
 740 02d4 C601      		movw r24,r12
 741               	.LVL36:
 742 02d6 FC01      		movw r30,r24
 743               	.L93:
 744               	.LM138:
 745 02d8 8081      		ld r24,Z
 746 02da 88B9      		out 40-32,r24
 747 02dc 80E0      		ldi r24,lo8(0)
 748               	.LVL37:
 749               	.L90:
 750               	.LBB129:
 751               	.LBB130:
 752               	.LM139:
 753               	/* #APP */
 754               	 ;  1164 "main.c" 1
 755 02de 0000      		nop
 756               	 ;  0 "" 2
 757               	.LM140:
 758               	/* #NOAPP */
 759 02e0 8F5F      		subi r24,lo8(-(1))
 760 02e2 8632      		cpi r24,lo8(38)
 761 02e4 01F4      		brne .L90
 762               	.LBE130:
 763               	.LBE129:
 764               	.LM141:
 765 02e6 5A9A      		sbi 43-32,2
 766 02e8 80E0      		ldi r24,lo8(0)
 767               	.LVL38:
 768               	.L91:
 769               	.LBB131:
 770               	.LBB132:
 771               	.LM142:
 772               	/* #APP */
 773               	 ;  1164 "main.c" 1
 774 02ea 0000      		nop
 775               	 ;  0 "" 2
 776               	.LM143:
 777               	/* #NOAPP */
 778 02ec 8F5F      		subi r24,lo8(-(1))
 779 02ee 8632      		cpi r24,lo8(38)
 780 02f0 01F4      		brne .L91
 781               	.LBE132:
 782               	.LBE131:
 783               	.LM144:
 784 02f2 5A98      		cbi 43-32,2
 785 02f4 80E0      		ldi r24,lo8(0)
 786               	.LVL39:
 787               	.L92:
 788               	.LBB133:
 789               	.LBB134:
 790               	.LM145:
 791               	/* #APP */
 792               	 ;  1164 "main.c" 1
 793 02f6 0000      		nop
 794               	 ;  0 "" 2
 795               	.LM146:
 796               	/* #NOAPP */
 797 02f8 8F5F      		subi r24,lo8(-(1))
 798 02fa 8632      		cpi r24,lo8(38)
 799 02fc 01F4      		brne .L92
 800 02fe 3196      		adiw r30,1
 801               	.LBE134:
 802               	.LBE133:
 803               	.LM147:
 804 0300 8E2F      		mov r24,r30
 805               	.LVL40:
 806 0302 841B      		sub r24,r20
 807 0304 8117      		cp r24,r17
 808 0306 00F0      		brlo .L93
 809               	.LVL41:
 810               	.L88:
 811               	.LM148:
 812 0308 80E2      		ldi r24,lo8(32)
 813 030a 8BB9      		out 43-32,r24
 814 030c 80E0      		ldi r24,lo8(0)
 815               	.LVL42:
 816               	.L94:
 817               	.LBB135:
 818               	.LBB136:
 819               	.LM149:
 820               	/* #APP */
 821               	 ;  1164 "main.c" 1
 822 030e 0000      		nop
 823               	 ;  0 "" 2
 824               	.LM150:
 825               	/* #NOAPP */
 826 0310 8F5F      		subi r24,lo8(-(1))
 827 0312 8632      		cpi r24,lo8(38)
 828 0314 01F4      		brne .L94
 829               	.LBE136:
 830               	.LBE135:
 831               	.LM151:
 832 0316 FF20      		tst r15
 833 0318 01F4      		brne .L115
 834               	.LVL43:
 835               	.L95:
 836               	.LM152:
 837 031a 17B8      		out 39-32,__zero_reg__
 838               	/* epilogue start */
 839               	.LM153:
 840 031c 0F90      		pop __tmp_reg__
 841 031e CF91      		pop r28
 842 0320 DF91      		pop r29
 843 0322 1F91      		pop r17
 844               	.LVL44:
 845 0324 0F91      		pop r16
 846               	.LVL45:
 847 0326 FF90      		pop r15
 848               	.LVL46:
 849 0328 DF90      		pop r13
 850 032a CF90      		pop r12
 851               	.LVL47:
 852 032c 0895      		ret
 853               	.LVL48:
 854               	.L84:
 855               	.LM154:
 856 032e F12E      		mov r15,r17
 857               	.LVL49:
 858 0330 F41A      		sub r15,r20
 859 0332 142F      		mov r17,r20
 860               	.LVL50:
 861 0334 00C0      		rjmp .L85
 862               	.LVL51:
 863               	.L82:
 864               	.LM155:
 865 0336 0054      		subi r16,lo8(-(-64))
 866 0338 E2E0      		ldi r30,lo8(2)
 867 033a E983      		std Y+1,r30
 868               	.LVL52:
 869 033c 00C0      		rjmp .L83
 870               	.LVL53:
 871               	.L115:
 872               	.LM156:
 873 033e 80E4      		ldi r24,lo8(64)
 874               	.LVL54:
 875 0340 60E0      		ldi r22,lo8(0)
 876 0342 0E94 0000 		call write_command_LCD
 877               	.LM157:
 878 0346 8FEF      		ldi r24,lo8(-1)
 879 0348 87B9      		out 39-32,r24
 880               	.LM158:
 881 034a 8981      		ldd r24,Y+1
 882 034c 8130      		cpi r24,lo8(1)
 883 034e 01F0      		breq .L116
 884               	.LM159:
 885 0350 88EA      		ldi r24,lo8(-88)
 886 0352 8BB9      		out 43-32,r24
 887 0354 90E0      		ldi r25,lo8(0)
 888               	.LVL55:
 889               	.L103:
 890               	.LM160:
 891 0356 F601      		movw r30,r12
 892 0358 E10F      		add r30,r17
 893 035a F11D      		adc r31,__zero_reg__
 894 035c 8081      		ld r24,Z
 895               	.LVL56:
 896 035e 88B9      		out 40-32,r24
 897 0360 1F5F      		subi r17,lo8(-(1))
 898               	.LVL57:
 899 0362 80E0      		ldi r24,lo8(0)
 900               	.LVL58:
 901               	.L98:
 902               	.LBB137:
 903               	.LBB138:
 904               	.LM161:
 905               	/* #APP */
 906               	 ;  1164 "main.c" 1
 907 0364 0000      		nop
 908               	 ;  0 "" 2
 909               	.LM162:
 910               	/* #NOAPP */
 911 0366 8F5F      		subi r24,lo8(-(1))
 912 0368 8632      		cpi r24,lo8(38)
 913 036a 01F4      		brne .L98
 914               	.LBE138:
 915               	.LBE137:
 916               	.LM163:
 917 036c 5A9A      		sbi 43-32,2
 918 036e 80E0      		ldi r24,lo8(0)
 919               	.LVL59:
 920               	.L99:
 921               	.LBB139:
 922               	.LBB140:
 923               	.LM164:
 924               	/* #APP */
 925               	 ;  1164 "main.c" 1
 926 0370 0000      		nop
 927               	 ;  0 "" 2
 928               	.LM165:
 929               	/* #NOAPP */
 930 0372 8F5F      		subi r24,lo8(-(1))
 931 0374 8632      		cpi r24,lo8(38)
 932 0376 01F4      		brne .L99
 933               	.LBE140:
 934               	.LBE139:
 935               	.LM166:
 936 0378 5A98      		cbi 43-32,2
 937 037a 80E0      		ldi r24,lo8(0)
 938               	.LVL60:
 939               	.L100:
 940               	.LBB141:
 941               	.LBB142:
 942               	.LM167:
 943               	/* #APP */
 944               	 ;  1164 "main.c" 1
 945 037c 0000      		nop
 946               	 ;  0 "" 2
 947               	.LM168:
 948               	/* #NOAPP */
 949 037e 8F5F      		subi r24,lo8(-(1))
 950 0380 8632      		cpi r24,lo8(38)
 951 0382 01F4      		brne .L100
 952               	.LBE142:
 953               	.LBE141:
 954               	.LM169:
 955 0384 9F5F      		subi r25,lo8(-(1))
 956 0386 9F15      		cp r25,r15
 957 0388 00F0      		brlo .L103
 958               	.LM170:
 959 038a 80E2      		ldi r24,lo8(32)
 960               	.LVL61:
 961 038c 8BB9      		out 43-32,r24
 962 038e 80E0      		ldi r24,lo8(0)
 963               	.LVL62:
 964               	.L101:
 965               	.LBB143:
 966               	.LBB144:
 967               	.LM171:
 968               	/* #APP */
 969               	 ;  1164 "main.c" 1
 970 0390 0000      		nop
 971               	 ;  0 "" 2
 972               	.LM172:
 973               	/* #NOAPP */
 974 0392 8F5F      		subi r24,lo8(-(1))
 975 0394 8632      		cpi r24,lo8(38)
 976 0396 01F4      		brne .L101
 977 0398 00C0      		rjmp .L95
 978               	.LVL63:
 979               	.L114:
 980               	.LBE144:
 981               	.LBE143:
 982               	.LM173:
 983 039a 88EA      		ldi r24,lo8(-88)
 984 039c 8BB9      		out 43-32,r24
 985 039e 00C0      		rjmp .L89
 986               	.L116:
 987               	.LM174:
 988 03a0 88E6      		ldi r24,lo8(104)
 989 03a2 8BB9      		out 43-32,r24
 990 03a4 90E0      		ldi r25,lo8(0)
 991               	.LVL64:
 992 03a6 00C0      		rjmp .L103
 993               	.LFE18:
 995               	.global	read_data_LCD
 997               	read_data_LCD:
 998               	.LFB19:
 999               	.LM175:
 1000               	.LVL65:
 1001               	/* prologue: function */
 1002               	/* frame size = 0 */
 1003               	.LM176:
 1004 03a8 8130      		cpi r24,lo8(1)
 1005 03aa 01F0      		breq .L131
 1006               	.LM177:
 1007 03ac 88E7      		ldi r24,lo8(120)
 1008               	.LVL66:
 1009 03ae 8BB9      		out 43-32,r24
 1010               	.L119:
 1011               	.LM178:
 1012 03b0 5A9A      		sbi 43-32,2
 1013 03b2 80E0      		ldi r24,lo8(0)
 1014               	.LVL67:
 1015               	.L120:
 1016               	.LBB145:
 1017               	.LBB146:
 1018               	.LM179:
 1019               	/* #APP */
 1020               	 ;  1164 "main.c" 1
 1021 03b4 0000      		nop
 1022               	 ;  0 "" 2
 1023               	.LM180:
 1024               	/* #NOAPP */
 1025 03b6 8F5F      		subi r24,lo8(-(1))
 1026 03b8 8632      		cpi r24,lo8(38)
 1027 03ba 01F4      		brne .L120
 1028               	.LBE146:
 1029               	.LBE145:
 1030               	.LM181:
 1031 03bc 5A98      		cbi 43-32,2
 1032 03be 80E0      		ldi r24,lo8(0)
 1033               	.LVL68:
 1034               	.L121:
 1035               	.LBB147:
 1036               	.LBB148:
 1037               	.LM182:
 1038               	/* #APP */
 1039               	 ;  1164 "main.c" 1
 1040 03c0 0000      		nop
 1041               	 ;  0 "" 2
 1042               	.LM183:
 1043               	/* #NOAPP */
 1044 03c2 8F5F      		subi r24,lo8(-(1))
 1045 03c4 8632      		cpi r24,lo8(38)
 1046 03c6 01F4      		brne .L121
 1047               	.LBE148:
 1048               	.LBE147:
 1049               	.LM184:
 1050 03c8 5A9A      		sbi 43-32,2
 1051 03ca 80E0      		ldi r24,lo8(0)
 1052               	.LVL69:
 1053               	.L122:
 1054               	.LBB149:
 1055               	.LBB150:
 1056               	.LM185:
 1057               	/* #APP */
 1058               	 ;  1164 "main.c" 1
 1059 03cc 0000      		nop
 1060               	 ;  0 "" 2
 1061               	.LM186:
 1062               	/* #NOAPP */
 1063 03ce 8F5F      		subi r24,lo8(-(1))
 1064 03d0 8632      		cpi r24,lo8(38)
 1065 03d2 01F4      		brne .L122
 1066               	.LBE150:
 1067               	.LBE149:
 1068               	.LM187:
 1069 03d4 96B1      		in r25,38-32
 1070               	.LVL70:
 1071               	.LM188:
 1072 03d6 5A98      		cbi 43-32,2
 1073 03d8 80E0      		ldi r24,lo8(0)
 1074               	.LVL71:
 1075               	.L123:
 1076               	.LBB151:
 1077               	.LBB152:
 1078               	.LM189:
 1079               	/* #APP */
 1080               	 ;  1164 "main.c" 1
 1081 03da 0000      		nop
 1082               	 ;  0 "" 2
 1083               	.LM190:
 1084               	/* #NOAPP */
 1085 03dc 8F5F      		subi r24,lo8(-(1))
 1086 03de 8632      		cpi r24,lo8(38)
 1087 03e0 01F4      		brne .L123
 1088               	.LBE152:
 1089               	.LBE151:
 1090               	.LM191:
 1091 03e2 80E2      		ldi r24,lo8(32)
 1092               	.LVL72:
 1093 03e4 8BB9      		out 43-32,r24
 1094 03e6 80E0      		ldi r24,lo8(0)
 1095               	.LVL73:
 1096               	.L124:
 1097               	.LBB153:
 1098               	.LBB154:
 1099               	.LM192:
 1100               	/* #APP */
 1101               	 ;  1164 "main.c" 1
 1102 03e8 0000      		nop
 1103               	 ;  0 "" 2
 1104               	.LM193:
 1105               	/* #NOAPP */
 1106 03ea 8F5F      		subi r24,lo8(-(1))
 1107 03ec 8632      		cpi r24,lo8(38)
 1108 03ee 01F4      		brne .L124
 1109               	.LBE154:
 1110               	.LBE153:
 1111               	.LM194:
 1112 03f0 892F      		mov r24,r25
 1113               	.LVL74:
 1114               	/* epilogue start */
 1115 03f2 0895      		ret
 1116               	.LVL75:
 1117               	.L131:
 1118               	.LM195:
 1119 03f4 88EB      		ldi r24,lo8(-72)
 1120               	.LVL76:
 1121 03f6 8BB9      		out 43-32,r24
 1122 03f8 00C0      		rjmp .L119
 1123               	.LFE19:
 1125               	.global	read_block
 1127               	read_block:
 1128               	.LFB20:
 1129               	.LM196:
 1130               	.LVL77:
 1131 03fa CF92      		push r12
 1132 03fc DF92      		push r13
 1133 03fe FF92      		push r15
 1134 0400 0F93      		push r16
 1135 0402 1F93      		push r17
 1136 0404 DF93      		push r29
 1137 0406 CF93      		push r28
 1138 0408 0F92      		push __tmp_reg__
 1139 040a CDB7      		in r28,__SP_L__
 1140 040c DEB7      		in r29,__SP_H__
 1141               	/* prologue: function */
 1142               	/* frame size = 1 */
 1143 040e 082F      		mov r16,r24
 1144 0410 862F      		mov r24,r22
 1145               	.LVL78:
 1146 0412 142F      		mov r17,r20
 1147 0414 6901      		movw r12,r18
 1148               	.LM197:
 1149 0416 886B      		ori r24,lo8(-72)
 1150 0418 60E0      		ldi r22,lo8(0)
 1151               	.LVL79:
 1152 041a 0E94 0000 		call write_command_LCD
 1153               	.LVL80:
 1154               	.LM198:
 1155 041e 0034      		cpi r16,lo8(64)
 1156 0420 00F0      		brlo .+2
 1157 0422 00C0      		rjmp .L133
 1158 0424 81E0      		ldi r24,lo8(1)
 1159 0426 8983      		std Y+1,r24
 1160               	.LVL81:
 1161               	.L134:
 1162               	.LM199:
 1163 0428 40E4      		ldi r20,lo8(64)
 1164               	.LVL82:
 1165 042a 401B      		sub r20,r16
 1166               	.LM200:
 1167 042c 4117      		cp r20,r17
 1168 042e 00F4      		brsh .+2
 1169 0430 00C0      		rjmp .L135
 1170 0432 FF24      		clr r15
 1171               	.LVL83:
 1172               	.LM201:
 1173 0434 802F      		mov r24,r16
 1174 0436 8064      		ori r24,lo8(64)
 1175 0438 60E0      		ldi r22,lo8(0)
 1176 043a 0E94 0000 		call write_command_LCD
 1177               	.LVL84:
 1178               	.LM202:
 1179 043e F981      		ldd r31,Y+1
 1180 0440 F130      		cpi r31,lo8(1)
 1181 0442 01F4      		brne .+2
 1182 0444 00C0      		rjmp .L169
 1183               	.LVL85:
 1184               	.L137:
 1185               	.LM203:
 1186 0446 88E7      		ldi r24,lo8(120)
 1187 0448 8BB9      		out 43-32,r24
 1188               	.L138:
 1189               	.LM204:
 1190 044a 5A9A      		sbi 43-32,2
 1191 044c 80E0      		ldi r24,lo8(0)
 1192               	.LVL86:
 1193               	.L139:
 1194               	.LBB155:
 1195               	.LBB156:
 1196               	.LM205:
 1197               	/* #APP */
 1198               	 ;  1164 "main.c" 1
 1199 044e 0000      		nop
 1200               	 ;  0 "" 2
 1201               	.LM206:
 1202               	/* #NOAPP */
 1203 0450 8F5F      		subi r24,lo8(-(1))
 1204 0452 8632      		cpi r24,lo8(38)
 1205 0454 01F4      		brne .L139
 1206               	.LBE156:
 1207               	.LBE155:
 1208               	.LM207:
 1209 0456 5A98      		cbi 43-32,2
 1210 0458 80E0      		ldi r24,lo8(0)
 1211               	.LVL87:
 1212               	.L140:
 1213               	.LBB157:
 1214               	.LBB158:
 1215               	.LM208:
 1216               	/* #APP */
 1217               	 ;  1164 "main.c" 1
 1218 045a 0000      		nop
 1219               	 ;  0 "" 2
 1220               	.LM209:
 1221               	/* #NOAPP */
 1222 045c 8F5F      		subi r24,lo8(-(1))
 1223 045e 8632      		cpi r24,lo8(38)
 1224 0460 01F4      		brne .L140
 1225               	.LBE158:
 1226               	.LBE157:
 1227               	.LM210:
 1228 0462 1123      		tst r17
 1229 0464 01F0      		breq .L142
 1230 0466 4C2D      		mov r20,r12
 1231 0468 C601      		movw r24,r12
 1232               	.LVL88:
 1233 046a FC01      		movw r30,r24
 1234               	.L145:
 1235               	.LM211:
 1236 046c 5A9A      		sbi 43-32,2
 1237 046e 80E0      		ldi r24,lo8(0)
 1238               	.LVL89:
 1239               	.L143:
 1240               	.LBB159:
 1241               	.LBB160:
 1242               	.LM212:
 1243               	/* #APP */
 1244               	 ;  1164 "main.c" 1
 1245 0470 0000      		nop
 1246               	 ;  0 "" 2
 1247               	.LM213:
 1248               	/* #NOAPP */
 1249 0472 8F5F      		subi r24,lo8(-(1))
 1250 0474 8632      		cpi r24,lo8(38)
 1251 0476 01F4      		brne .L143
 1252               	.LBE160:
 1253               	.LBE159:
 1254               	.LM214:
 1255 0478 86B1      		in r24,38-32
 1256               	.LVL90:
 1257 047a 8083      		st Z,r24
 1258               	.LM215:
 1259 047c 5A98      		cbi 43-32,2
 1260 047e 80E0      		ldi r24,lo8(0)
 1261               	.LVL91:
 1262               	.L144:
 1263               	.LBB161:
 1264               	.LBB162:
 1265               	.LM216:
 1266               	/* #APP */
 1267               	 ;  1164 "main.c" 1
 1268 0480 0000      		nop
 1269               	 ;  0 "" 2
 1270               	.LM217:
 1271               	/* #NOAPP */
 1272 0482 8F5F      		subi r24,lo8(-(1))
 1273 0484 8632      		cpi r24,lo8(38)
 1274 0486 01F4      		brne .L144
 1275 0488 3196      		adiw r30,1
 1276               	.LBE162:
 1277               	.LBE161:
 1278               	.LM218:
 1279 048a 8E2F      		mov r24,r30
 1280               	.LVL92:
 1281 048c 841B      		sub r24,r20
 1282 048e 8117      		cp r24,r17
 1283 0490 00F0      		brlo .L145
 1284               	.LVL93:
 1285               	.L142:
 1286               	.LM219:
 1287 0492 80E2      		ldi r24,lo8(32)
 1288               	.LVL94:
 1289 0494 8BB9      		out 43-32,r24
 1290 0496 80E0      		ldi r24,lo8(0)
 1291               	.LVL95:
 1292               	.L146:
 1293               	.LBB163:
 1294               	.LBB164:
 1295               	.LM220:
 1296               	/* #APP */
 1297               	 ;  1164 "main.c" 1
 1298 0498 0000      		nop
 1299               	 ;  0 "" 2
 1300               	.LM221:
 1301               	/* #NOAPP */
 1302 049a 8F5F      		subi r24,lo8(-(1))
 1303 049c 8632      		cpi r24,lo8(38)
 1304 049e 01F4      		brne .L146
 1305               	.LBE164:
 1306               	.LBE163:
 1307               	.LM222:
 1308 04a0 FF20      		tst r15
 1309 04a2 01F4      		brne .L170
 1310               	.LVL96:
 1311               	.L156:
 1312               	/* epilogue start */
 1313               	.LM223:
 1314 04a4 0F90      		pop __tmp_reg__
 1315 04a6 CF91      		pop r28
 1316 04a8 DF91      		pop r29
 1317 04aa 1F91      		pop r17
 1318               	.LVL97:
 1319 04ac 0F91      		pop r16
 1320               	.LVL98:
 1321 04ae FF90      		pop r15
 1322               	.LVL99:
 1323 04b0 DF90      		pop r13
 1324 04b2 CF90      		pop r12
 1325               	.LVL100:
 1326 04b4 0895      		ret
 1327               	.LVL101:
 1328               	.L135:
 1329               	.LM224:
 1330 04b6 F12E      		mov r15,r17
 1331               	.LVL102:
 1332 04b8 F41A      		sub r15,r20
 1333 04ba 142F      		mov r17,r20
 1334               	.LVL103:
 1335               	.LM225:
 1336 04bc 802F      		mov r24,r16
 1337 04be 8064      		ori r24,lo8(64)
 1338 04c0 60E0      		ldi r22,lo8(0)
 1339 04c2 0E94 0000 		call write_command_LCD
 1340               	.LVL104:
 1341               	.LM226:
 1342 04c6 F981      		ldd r31,Y+1
 1343 04c8 F130      		cpi r31,lo8(1)
 1344 04ca 01F0      		breq .+2
 1345 04cc 00C0      		rjmp .L137
 1346               	.LVL105:
 1347               	.L169:
 1348               	.LM227:
 1349 04ce 88EB      		ldi r24,lo8(-72)
 1350 04d0 8BB9      		out 43-32,r24
 1351 04d2 00C0      		rjmp .L138
 1352               	.LVL106:
 1353               	.L133:
 1354               	.LM228:
 1355 04d4 0054      		subi r16,lo8(-(-64))
 1356 04d6 E2E0      		ldi r30,lo8(2)
 1357 04d8 E983      		std Y+1,r30
 1358               	.LVL107:
 1359 04da 00C0      		rjmp .L134
 1360               	.LVL108:
 1361               	.L170:
 1362               	.LM229:
 1363 04dc 80E4      		ldi r24,lo8(64)
 1364               	.LVL109:
 1365 04de 60E0      		ldi r22,lo8(0)
 1366 04e0 0E94 0000 		call write_command_LCD
 1367               	.LM230:
 1368 04e4 8981      		ldd r24,Y+1
 1369 04e6 8130      		cpi r24,lo8(1)
 1370 04e8 01F0      		breq .L171
 1371               	.LM231:
 1372 04ea 88EB      		ldi r24,lo8(-72)
 1373 04ec 8BB9      		out 43-32,r24
 1374               	.L149:
 1375               	.LM232:
 1376 04ee 5A9A      		sbi 43-32,2
 1377 04f0 80E0      		ldi r24,lo8(0)
 1378               	.LVL110:
 1379               	.L150:
 1380               	.LBB165:
 1381               	.LBB166:
 1382               	.LM233:
 1383               	/* #APP */
 1384               	 ;  1164 "main.c" 1
 1385 04f2 0000      		nop
 1386               	 ;  0 "" 2
 1387               	.LM234:
 1388               	/* #NOAPP */
 1389 04f4 8F5F      		subi r24,lo8(-(1))
 1390 04f6 8632      		cpi r24,lo8(38)
 1391 04f8 01F4      		brne .L150
 1392               	.LBE166:
 1393               	.LBE165:
 1394               	.LM235:
 1395 04fa 5A98      		cbi 43-32,2
 1396 04fc 80E0      		ldi r24,lo8(0)
 1397               	.LVL111:
 1398               	.L151:
 1399               	.LBB167:
 1400               	.LBB168:
 1401               	.LM236:
 1402               	/* #APP */
 1403               	 ;  1164 "main.c" 1
 1404 04fe 0000      		nop
 1405               	 ;  0 "" 2
 1406               	.LM237:
 1407               	/* #NOAPP */
 1408 0500 8F5F      		subi r24,lo8(-(1))
 1409 0502 8632      		cpi r24,lo8(38)
 1410 0504 01F4      		brne .L151
 1411 0506 90E0      		ldi r25,lo8(0)
 1412               	.LVL112:
 1413               	.L154:
 1414 0508 292F      		mov r18,r25
 1415 050a 210F      		add r18,r17
 1416               	.LBE168:
 1417               	.LBE167:
 1418               	.LM238:
 1419 050c 5A9A      		sbi 43-32,2
 1420 050e 80E0      		ldi r24,lo8(0)
 1421               	.LVL113:
 1422               	.L152:
 1423               	.LBB169:
 1424               	.LBB170:
 1425               	.LM239:
 1426               	/* #APP */
 1427               	 ;  1164 "main.c" 1
 1428 0510 0000      		nop
 1429               	 ;  0 "" 2
 1430               	.LM240:
 1431               	/* #NOAPP */
 1432 0512 8F5F      		subi r24,lo8(-(1))
 1433 0514 8632      		cpi r24,lo8(38)
 1434 0516 01F4      		brne .L152
 1435               	.LBE170:
 1436               	.LBE169:
 1437               	.LM241:
 1438 0518 86B1      		in r24,38-32
 1439               	.LVL114:
 1440 051a F601      		movw r30,r12
 1441 051c E20F      		add r30,r18
 1442 051e F11D      		adc r31,__zero_reg__
 1443 0520 8083      		st Z,r24
 1444               	.LM242:
 1445 0522 5A98      		cbi 43-32,2
 1446 0524 80E0      		ldi r24,lo8(0)
 1447               	.LVL115:
 1448               	.L153:
 1449               	.LBB171:
 1450               	.LBB172:
 1451               	.LM243:
 1452               	/* #APP */
 1453               	 ;  1164 "main.c" 1
 1454 0526 0000      		nop
 1455               	 ;  0 "" 2
 1456               	.LM244:
 1457               	/* #NOAPP */
 1458 0528 8F5F      		subi r24,lo8(-(1))
 1459 052a 8632      		cpi r24,lo8(38)
 1460 052c 01F4      		brne .L153
 1461               	.LBE172:
 1462               	.LBE171:
 1463               	.LM245:
 1464 052e 9F5F      		subi r25,lo8(-(1))
 1465 0530 9F15      		cp r25,r15
 1466 0532 00F0      		brlo .L154
 1467               	.LM246:
 1468 0534 80E2      		ldi r24,lo8(32)
 1469               	.LVL116:
 1470 0536 8BB9      		out 43-32,r24
 1471 0538 80E0      		ldi r24,lo8(0)
 1472               	.LVL117:
 1473               	.L155:
 1474               	.LBB173:
 1475               	.LBB174:
 1476               	.LM247:
 1477               	/* #APP */
 1478               	 ;  1164 "main.c" 1
 1479 053a 0000      		nop
 1480               	 ;  0 "" 2
 1481               	.LM248:
 1482               	/* #NOAPP */
 1483 053c 8F5F      		subi r24,lo8(-(1))
 1484 053e 8632      		cpi r24,lo8(38)
 1485 0540 01F4      		brne .L155
 1486 0542 00C0      		rjmp .L156
 1487               	.LVL118:
 1488               	.L171:
 1489               	.LBE174:
 1490               	.LBE173:
 1491               	.LM249:
 1492 0544 88E7      		ldi r24,lo8(120)
 1493 0546 8BB9      		out 43-32,r24
 1494 0548 00C0      		rjmp .L149
 1495               	.LFE20:
 1497               	.global	clear_screen
 1499               	clear_screen:
 1500               	.LFB14:
 1501               	.LM250:
 1502               	.LVL119:
 1503 054a EF92      		push r14
 1504 054c FF92      		push r15
 1505 054e 0F93      		push r16
 1506 0550 1F93      		push r17
 1507               	/* prologue: function */
 1508               	/* frame size = 0 */
 1509               	.LM251:
 1510 0552 8823      		tst r24
 1511 0554 01F4      		brne .L173
 1512 0556 10E0      		ldi r17,lo8(0)
 1513               	.LVL120:
 1514               	.LM252:
 1515 0558 0FEF      		ldi r16,lo8(-1)
 1516               	.LM253:
 1517 055a 98EE      		ldi r25,lo8(-24)
 1518 055c F92E      		mov r15,r25
 1519               	.LM254:
 1520 055e 80E2      		ldi r24,lo8(32)
 1521 0560 E82E      		mov r14,r24
 1522               	.LVL121:
 1523               	.L181:
 1524               	.LM255:
 1525 0562 812F      		mov r24,r17
 1526               	.LVL122:
 1527 0564 886B      		ori r24,lo8(-72)
 1528 0566 60E0      		ldi r22,lo8(0)
 1529 0568 0E94 0000 		call write_command_LCD
 1530               	.LVL123:
 1531               	.LM256:
 1532 056c 80E4      		ldi r24,lo8(64)
 1533 056e 60E0      		ldi r22,lo8(0)
 1534 0570 0E94 0000 		call write_command_LCD
 1535               	.LM257:
 1536 0574 07B9      		out 39-32,r16
 1537               	.LM258:
 1538 0576 8091 0000 		lds r24,reverse
 1539 057a 8130      		cpi r24,lo8(1)
 1540 057c 01F0      		breq .L192
 1541               	.LM259:
 1542 057e 18B8      		out 40-32,__zero_reg__
 1543               	.L175:
 1544               	.LM260:
 1545 0580 FBB8      		out 43-32,r15
 1546 0582 90E0      		ldi r25,lo8(0)
 1547               	.LVL124:
 1548               	.L176:
 1549               	.LM261:
 1550 0584 80E0      		ldi r24,lo8(0)
 1551               	.LVL125:
 1552               	.L177:
 1553               	.LBB175:
 1554               	.LBB176:
 1555               	.LM262:
 1556               	/* #APP */
 1557               	 ;  1164 "main.c" 1
 1558 0586 0000      		nop
 1559               	 ;  0 "" 2
 1560               	.LM263:
 1561               	/* #NOAPP */
 1562 0588 8F5F      		subi r24,lo8(-(1))
 1563 058a 8632      		cpi r24,lo8(38)
 1564 058c 01F4      		brne .L177
 1565               	.LBE176:
 1566               	.LBE175:
 1567               	.LM264:
 1568 058e 5A9A      		sbi 43-32,2
 1569 0590 80E0      		ldi r24,lo8(0)
 1570               	.LVL126:
 1571               	.L178:
 1572               	.LBB177:
 1573               	.LBB178:
 1574               	.LM265:
 1575               	/* #APP */
 1576               	 ;  1164 "main.c" 1
 1577 0592 0000      		nop
 1578               	 ;  0 "" 2
 1579               	.LM266:
 1580               	/* #NOAPP */
 1581 0594 8F5F      		subi r24,lo8(-(1))
 1582 0596 8632      		cpi r24,lo8(38)
 1583 0598 01F4      		brne .L178
 1584               	.LBE178:
 1585               	.LBE177:
 1586               	.LM267:
 1587 059a 5A98      		cbi 43-32,2
 1588 059c 80E0      		ldi r24,lo8(0)
 1589               	.LVL127:
 1590               	.L179:
 1591               	.LBB179:
 1592               	.LBB180:
 1593               	.LM268:
 1594               	/* #APP */
 1595               	 ;  1164 "main.c" 1
 1596 059e 0000      		nop
 1597               	 ;  0 "" 2
 1598               	.LM269:
 1599               	/* #NOAPP */
 1600 05a0 8F5F      		subi r24,lo8(-(1))
 1601 05a2 8632      		cpi r24,lo8(38)
 1602 05a4 01F4      		brne .L179
 1603               	.LBE180:
 1604               	.LBE179:
 1605               	.LM270:
 1606 05a6 9F5F      		subi r25,lo8(-(1))
 1607 05a8 9034      		cpi r25,lo8(64)
 1608 05aa 01F4      		brne .L176
 1609               	.LM271:
 1610 05ac EBB8      		out 43-32,r14
 1611               	.LM272:
 1612 05ae 17B8      		out 39-32,__zero_reg__
 1613               	.LM273:
 1614 05b0 1092 0000 		sts x_offset,__zero_reg__
 1615               	.LM274:
 1616 05b4 1092 0000 		sts y_offset,__zero_reg__
 1617               	.LM275:
 1618 05b8 1F5F      		subi r17,lo8(-(1))
 1619 05ba 1830      		cpi r17,lo8(8)
 1620 05bc 01F4      		brne .L181
 1621               	.LVL128:
 1622               	.L185:
 1623               	/* epilogue start */
 1624               	.LM276:
 1625 05be 1F91      		pop r17
 1626               	.LVL129:
 1627 05c0 0F91      		pop r16
 1628 05c2 FF90      		pop r15
 1629 05c4 EF90      		pop r14
 1630 05c6 0895      		ret
 1631               	.LVL130:
 1632               	.L192:
 1633               	.LM277:
 1634 05c8 08B9      		out 40-32,r16
 1635 05ca 00C0      		rjmp .L175
 1636               	.LVL131:
 1637               	.L173:
 1638               	.LM278:
 1639 05cc 10E0      		ldi r17,lo8(0)
 1640               	.LVL132:
 1641               	.L184:
 1642               	.LM279:
 1643 05ce 80E0      		ldi r24,lo8(0)
 1644               	.LVL133:
 1645 05d0 612F      		mov r22,r17
 1646 05d2 40E8      		ldi r20,lo8(-128)
 1647 05d4 20E0      		ldi r18,lo8(buffer)
 1648 05d6 30E0      		ldi r19,hi8(buffer)
 1649 05d8 0E94 0000 		call read_block
 1650 05dc 90E0      		ldi r25,lo8(0)
 1651               	.LVL134:
 1652               	.L183:
 1653               	.LM280:
 1654 05de E92F      		mov r30,r25
 1655 05e0 F0E0      		ldi r31,lo8(0)
 1656 05e2 E050      		subi r30,lo8(-(buffer))
 1657 05e4 F040      		sbci r31,hi8(-(buffer))
 1658 05e6 8081      		ld r24,Z
 1659 05e8 8095      		com r24
 1660 05ea 8083      		st Z,r24
 1661               	.LM281:
 1662 05ec 9F5F      		subi r25,lo8(-(1))
 1663 05ee 9038      		cpi r25,lo8(-128)
 1664 05f0 01F4      		brne .L183
 1665               	.LM282:
 1666 05f2 80E0      		ldi r24,lo8(0)
 1667 05f4 612F      		mov r22,r17
 1668 05f6 40E8      		ldi r20,lo8(-128)
 1669 05f8 20E0      		ldi r18,lo8(buffer)
 1670 05fa 30E0      		ldi r19,hi8(buffer)
 1671 05fc 0E94 0000 		call write_block
 1672               	.LVL135:
 1673               	.LM283:
 1674 0600 1F5F      		subi r17,lo8(-(1))
 1675 0602 1830      		cpi r17,lo8(8)
 1676 0604 01F4      		brne .L184
 1677 0606 00C0      		rjmp .L185
 1678               	.LFE14:
 1680               	.global	bitblt
 1682               	bitblt:
 1683               	.LFB21:
 1684               	.LM284:
 1685               	.LVL136:
 1686 0608 2F92      		push r2
 1687 060a 3F92      		push r3
 1688 060c 4F92      		push r4
 1689 060e 5F92      		push r5
 1690 0610 6F92      		push r6
 1691 0612 7F92      		push r7
 1692 0614 8F92      		push r8
 1693 0616 9F92      		push r9
 1694 0618 AF92      		push r10
 1695 061a BF92      		push r11
 1696 061c CF92      		push r12
 1697 061e DF92      		push r13
 1698 0620 EF92      		push r14
 1699               	.LVL137:
 1700 0622 FF92      		push r15
 1701 0624 0F93      		push r16
 1702               	.LVL138:
 1703 0626 1F93      		push r17
 1704 0628 DF93      		push r29
 1705 062a CF93      		push r28
 1706 062c CDB7      		in r28,__SP_L__
 1707 062e DEB7      		in r29,__SP_H__
 1708 0630 2E97      		sbiw r28,14
 1709 0632 0FB6      		in __tmp_reg__,__SREG__
 1710 0634 F894      		cli
 1711 0636 DEBF      		out __SP_H__,r29
 1712 0638 0FBE      		out __SREG__,__tmp_reg__
 1713 063a CDBF      		out __SP_L__,r28
 1714               	/* prologue: function */
 1715               	/* frame size = 14 */
 1716 063c 8887      		std Y+8,r24
 1717 063e 342E      		mov r3,r20
 1718 0640 A22E      		mov r10,r18
 1719 0642 B02E      		mov r11,r16
 1720               	.LVL139:
 1721 0644 8701      		movw r16,r14
 1722               	.LVL140:
 1723               	.LM285:
 1724 0646 822F      		mov r24,r18
 1725               	.LVL141:
 1726 0648 8150      		subi r24,lo8(-(-1))
 1727 064a 8034      		cpi r24,lo8(64)
 1728 064c 00F0      		brlo .L194
 1729               	.LVL142:
 1730               	.LM286:
 1731 064e 2223      		tst r18
 1732 0650 01F0      		breq .L231
 1733 0652 10E0      		ldi r17,lo8(0)
 1734               	.LVL143:
 1735               	.L196:
 1736               	.LM287:
 1737 0654 3320      		tst r3
 1738 0656 01F0      		breq .L199
 1739               	.LM288:
 1740 0658 00E0      		ldi r16,lo8(0)
 1741               	.LVL144:
 1742               	.L197:
 1743               	.LM289:
 1744 065a 0E94 0000 		call RX_get_byte
 1745               	.LVL145:
 1746               	.LM290:
 1747 065e 0F5F      		subi r16,lo8(-(1))
 1748 0660 0315      		cp r16,r3
 1749 0662 00F0      		brlo .L197
 1750               	.LVL146:
 1751               	.L199:
 1752               	.LM291:
 1753 0664 1F5F      		subi r17,lo8(-(1))
 1754 0666 1A15      		cp r17,r10
 1755 0668 00F0      		brlo .L196
 1756               	.LVL147:
 1757               	.L231:
 1758               	/* epilogue start */
 1759               	.LM292:
 1760 066a 2E96      		adiw r28,14
 1761 066c 0FB6      		in __tmp_reg__,__SREG__
 1762 066e F894      		cli
 1763 0670 DEBF      		out __SP_H__,r29
 1764 0672 0FBE      		out __SREG__,__tmp_reg__
 1765 0674 CDBF      		out __SP_L__,r28
 1766 0676 CF91      		pop r28
 1767 0678 DF91      		pop r29
 1768 067a 1F91      		pop r17
 1769               	.LVL148:
 1770 067c 0F91      		pop r16
 1771               	.LVL149:
 1772 067e FF90      		pop r15
 1773 0680 EF90      		pop r14
 1774               	.LVL150:
 1775 0682 DF90      		pop r13
 1776 0684 CF90      		pop r12
 1777 0686 BF90      		pop r11
 1778               	.LVL151:
 1779 0688 AF90      		pop r10
 1780 068a 9F90      		pop r9
 1781 068c 8F90      		pop r8
 1782 068e 7F90      		pop r7
 1783 0690 6F90      		pop r6
 1784 0692 5F90      		pop r5
 1785 0694 4F90      		pop r4
 1786 0696 3F90      		pop r3
 1787               	.LVL152:
 1788 0698 2F90      		pop r2
 1789               	.LVL153:
 1790 069a 0895      		ret
 1791               	.LVL154:
 1792               	.L194:
 1793               	.LM293:
 1794 069c 842F      		mov r24,r20
 1795 069e 8150      		subi r24,lo8(-(-1))
 1796 06a0 87FD      		sbrc r24,7
 1797 06a2 00C0      		rjmp .L242
 1798               	.LVL155:
 1799               	.LM294:
 1800 06a4 862F      		mov r24,r22
 1801               	.LVL156:
 1802 06a6 8770      		andi r24,lo8(7)
 1803               	.LM295:
 1804 06a8 58E0      		ldi r21,lo8(8)
 1805 06aa 252E      		mov r2,r21
 1806               	.LVL157:
 1807 06ac 281A      		sub r2,r24
 1808               	.LM296:
 1809 06ae 30E0      		ldi r19,lo8(0)
 1810 06b0 C82E      		mov r12,r24
 1811 06b2 DD24      		clr r13
 1812 06b4 0894      		sec
 1813 06b6 C108      		sbc r12,__zero_reg__
 1814 06b8 D108      		sbc r13,__zero_reg__
 1815 06ba C601      		movw r24,r12
 1816               	.LVL158:
 1817 06bc 820F      		add r24,r18
 1818 06be 931F      		adc r25,r19
 1819               	.LVL159:
 1820 06c0 0894      		sec
 1821 06c2 C11C      		adc r12,__zero_reg__
 1822 06c4 D11C      		adc r13,__zero_reg__
 1823 06c6 97FD      		sbrc r25,7
 1824 06c8 00C0      		rjmp .L243
 1825               	.L205:
 1826 06ca 9595      		asr r25
 1827 06cc 8795      		ror r24
 1828 06ce 9595      		asr r25
 1829 06d0 8795      		ror r24
 1830 06d2 9595      		asr r25
 1831 06d4 8795      		ror r24
 1832               	.LVL160:
 1833 06d6 482F      		mov r20,r24
 1834 06d8 4F5F      		subi r20,lo8(-(1))
 1835 06da 4C83      		std Y+4,r20
 1836               	.LVL161:
 1837               	.LM297:
 1838 06dc A694      		lsr r10
 1839 06de A694      		lsr r10
 1840 06e0 A694      		lsr r10
 1841 06e2 AB82      		std Y+3,r10
 1842               	.LVL162:
 1843               	.LM298:
 1844 06e4 C901      		movw r24,r18
 1845 06e6 8770      		andi r24,lo8(7)
 1846 06e8 9070      		andi r25,hi8(7)
 1847 06ea 892B      		or r24,r25
 1848 06ec 01F0      		breq .L206
 1849               	.LM299:
 1850 06ee 8A2D      		mov r24,r10
 1851 06f0 8F5F      		subi r24,lo8(-(1))
 1852 06f2 8B83      		std Y+3,r24
 1853               	.LVL163:
 1854               	.L206:
 1855               	.LM300:
 1856 06f4 4FEF      		ldi r20,lo8(255)
 1857 06f6 50E0      		ldi r21,hi8(255)
 1858 06f8 CA01      		movw r24,r20
 1859 06fa 0C2C      		mov r0,r12
 1860 06fc 00C0      		rjmp 2f
 1861 06fe 880F      	1:	lsl r24
 1862 0700 991F      		rol r25
 1863 0702 0A94      	2:	dec r0
 1864 0704 02F4      		brpl 1b
 1865 0706 8E83      		std Y+6,r24
 1866               	.LVL164:
 1867               	.LM301:
 1868 0708 260F      		add r18,r22
 1869 070a 311D      		adc r19,__zero_reg__
 1870 070c 2770      		andi r18,lo8(7)
 1871 070e 3070      		andi r19,hi8(7)
 1872               	.LM302:
 1873 0710 2115      		cp r18,__zero_reg__
 1874 0712 3105      		cpc r19,__zero_reg__
 1875 0714 01F0      		breq .+2
 1876 0716 00C0      		rjmp .L207
 1877 0718 9FEF      		ldi r25,lo8(-1)
 1878 071a 9D83      		std Y+5,r25
 1879               	.LVL165:
 1880               	.L208:
 1881               	.LM303:
 1882 071c 832D      		mov r24,r3
 1883 071e 90E0      		ldi r25,lo8(0)
 1884               	.LVL166:
 1885 0720 EE24      		clr r14
 1886 0722 FF24      		clr r15
 1887 0724 E81A      		sub r14,r24
 1888 0726 F90A      		sbc r15,r25
 1889               	.LVL167:
 1890 0728 6695      		lsr r22
 1891 072a 6695      		lsr r22
 1892 072c 6695      		lsr r22
 1893               	.LVL168:
 1894 072e 6983      		std Y+1,r22
 1895 0730 1C86      		std Y+12,__zero_reg__
 1896 0732 1B86      		std Y+11,__zero_reg__
 1897               	.LVL169:
 1898 0734 6624      		clr r6
 1899 0736 7724      		clr r7
 1900               	.LM304:
 1901 0738 8B2C      		mov r8,r11
 1902 073a 9924      		clr r9
 1903 073c A1E0      		ldi r26,lo8(1)
 1904 073e 8A22      		and r8,r26
 1905 0740 9924      		clr r9
 1906               	.LM305:
 1907 0742 BC81      		ldd r27,Y+4
 1908 0744 4B2E      		mov r4,r27
 1909 0746 5524      		clr r5
 1910 0748 0894      		sec
 1911 074a 4108      		sbc r4,__zero_reg__
 1912 074c 5108      		sbc r5,__zero_reg__
 1913               	.LM306:
 1914 074e ED81      		ldd r30,Y+5
 1915 0750 E095      		com r30
 1916 0752 E987      		std Y+9,r30
 1917               	.LM307:
 1918 0754 FE81      		ldd r31,Y+6
 1919 0756 F095      		com r31
 1920 0758 FA87      		std Y+10,r31
 1921               	.L230:
 1922               	.LM308:
 1923 075a A62C      		mov r10,r6
 1924               	.LVL170:
 1925 075c 2981      		ldd r18,Y+1
 1926 075e 260D      		add r18,r6
 1927 0760 2F83      		std Y+7,r18
 1928               	.LM309:
 1929 0762 8885      		ldd r24,Y+8
 1930 0764 622F      		mov r22,r18
 1931               	.LVL171:
 1932 0766 432D      		mov r20,r3
 1933 0768 20E0      		ldi r18,lo8(buffer)
 1934 076a 30E0      		ldi r19,hi8(buffer)
 1935 076c 0E94 0000 		call read_block
 1936               	.LVL172:
 1937               	.LM310:
 1938 0770 3320      		tst r3
 1939 0772 01F4      		brne .+2
 1940 0774 00C0      		rjmp .L209
 1941 0776 60E0      		ldi r22,lo8(buffer+128)
 1942 0778 70E0      		ldi r23,hi8(buffer+128)
 1943 077a 40E0      		ldi r20,lo8(0)
 1944 077c 50E0      		ldi r21,hi8(0)
 1945 077e 00C0      		rjmp .L229
 1946               	.LVL173:
 1947               	.L246:
 1948               	.LM311:
 1949 0780 BE81      		ldd r27,Y+6
 1950 0782 2B23      		and r18,r27
 1951               	.L218:
 1952               	.LM312:
 1953 0784 F3E0      		ldi r31,lo8(3)
 1954 0786 FB15      		cp r31,r11
 1955 0788 00F4      		brsh .+2
 1956 078a 00C0      		rjmp .L223
 1957               	.L247:
 1958 078c 32E0      		ldi r19,lo8(2)
 1959               	.LVL174:
 1960 078e B316      		cp r11,r19
 1961 0790 00F4      		brsh .+2
 1962 0792 00C0      		rjmp .L244
 1963               	.LM313:
 1964 0794 FA01      		movw r30,r20
 1965 0796 E050      		subi r30,lo8(-(buffer))
 1966 0798 F040      		sbci r31,hi8(-(buffer))
 1967 079a 8081      		ld r24,Z
 1968 079c 282B      		or r18,r24
 1969 079e 2083      		st Z,r18
 1970               	.LVL175:
 1971               	.L224:
 1972               	.LM314:
 1973 07a0 8114      		cp r8,__zero_reg__
 1974 07a2 9104      		cpc r9,__zero_reg__
 1975 07a4 01F0      		breq .L228
 1976 07a6 B5E0      		ldi r27,lo8(5)
 1977 07a8 BB15      		cp r27,r11
 1978 07aa 00F0      		brlo .L228
 1979               	.LM315:
 1980 07ac 8081      		ld r24,Z
 1981 07ae 8095      		com r24
 1982 07b0 8083      		st Z,r24
 1983               	.L228:
 1984 07b2 4F5F      		subi r20,lo8(-(1))
 1985 07b4 5F4F      		sbci r21,hi8(-(1))
 1986 07b6 6F5F      		subi r22,lo8(-(1))
 1987 07b8 7F4F      		sbci r23,hi8(-(1))
 1988               	.LM316:
 1989 07ba 4315      		cp r20,r3
 1990 07bc 00F0      		brlo .+2
 1991 07be 00C0      		rjmp .L209
 1992               	.L229:
 1993               	.LM317:
 1994 07c0 0115      		cp r16,__zero_reg__
 1995 07c2 1105      		cpc r17,__zero_reg__
 1996 07c4 01F4      		brne .+2
 1997 07c6 00C0      		rjmp .L210
 1998               	.LM318:
 1999 07c8 F801      		movw r30,r16
 2000 07ca EE0D      		add r30,r14
 2001 07cc FF1D      		adc r31,r15
 2002 07ce 2081      		ld r18,Z
 2003               	.LVL176:
 2004 07d0 30E0      		ldi r19,lo8(0)
 2005               	.LVL177:
 2006 07d2 022C      		mov r0,r2
 2007 07d4 00C0      		rjmp 2f
 2008 07d6 3595      	1:	asr r19
 2009 07d8 2795      		ror r18
 2010 07da 0A94      	2:	dec r0
 2011 07dc 02F4      		brpl 1b
 2012 07de EB85      		ldd r30,Y+11
 2013 07e0 FC85      		ldd r31,Y+12
 2014 07e2 E00F      		add r30,r16
 2015 07e4 F11F      		adc r31,r17
 2016 07e6 8081      		ld r24,Z
 2017 07e8 90E0      		ldi r25,lo8(0)
 2018 07ea 0C2C      		mov r0,r12
 2019 07ec 00C0      		rjmp 2f
 2020 07ee 880F      	1:	lsl r24
 2021 07f0 991F      		rol r25
 2022 07f2 0A94      	2:	dec r0
 2023 07f4 02F4      		brpl 1b
 2024 07f6 282B      		or r18,r24
 2025               	.LVL178:
 2026 07f8 8B85      		ldd r24,Y+11
 2027 07fa 9C85      		ldd r25,Y+12
 2028 07fc 0196      		adiw r24,1
 2029 07fe 9C87      		std Y+12,r25
 2030 0800 8B87      		std Y+11,r24
 2031               	.LVL179:
 2032 0802 0894      		sec
 2033 0804 E11C      		adc r14,__zero_reg__
 2034 0806 F11C      		adc r15,__zero_reg__
 2035               	.LVL180:
 2036               	.L211:
 2037               	.LM319:
 2038 0808 F6E0      		ldi r31,lo8(6)
 2039 080a BF16      		cp r11,r31
 2040 080c 01F0      		breq .L245
 2041               	.L216:
 2042               	.LM320:
 2043 080e AA20      		tst r10
 2044 0810 01F4      		brne .+2
 2045 0812 00C0      		rjmp .L246
 2046               	.LM321:
 2047 0814 6414      		cp r6,r4
 2048 0816 7504      		cpc r7,r5
 2049 0818 01F0      		breq .+2
 2050 081a 00C0      		rjmp .L218
 2051               	.LM322:
 2052 081c ED81      		ldd r30,Y+5
 2053 081e 2E23      		and r18,r30
 2054               	.LM323:
 2055 0820 F3E0      		ldi r31,lo8(3)
 2056 0822 FB15      		cp r31,r11
 2057 0824 00F0      		brlo .+2
 2058 0826 00C0      		rjmp .L247
 2059               	.L223:
 2060 0828 85E0      		ldi r24,lo8(5)
 2061 082a 8B15      		cp r24,r11
 2062 082c 00F4      		brsh .L248
 2063               	.LM324:
 2064 082e AA20      		tst r10
 2065 0830 01F0      		breq .+2
 2066 0832 00C0      		rjmp .L225
 2067               	.LM325:
 2068 0834 FA01      		movw r30,r20
 2069 0836 E050      		subi r30,lo8(-(buffer))
 2070 0838 F040      		sbci r31,hi8(-(buffer))
 2071 083a 8081      		ld r24,Z
 2072 083c 9A85      		ldd r25,Y+10
 2073 083e 8923      		and r24,r25
 2074 0840 8083      		st Z,r24
 2075               	.L226:
 2076               	.LM326:
 2077 0842 8081      		ld r24,Z
 2078 0844 282B      		or r18,r24
 2079 0846 2083      		st Z,r18
 2080 0848 00C0      		rjmp .L224
 2081               	.L245:
 2082               	.LM327:
 2083 084a D801      		movw r26,r16
 2084 084c 8C91      		ld r24,X
 2085 084e 90E0      		ldi r25,lo8(0)
 2086 0850 9C01      		movw r18,r24
 2087               	.LVL181:
 2088 0852 022C      		mov r0,r2
 2089 0854 00C0      		rjmp 2f
 2090 0856 3595      	1:	asr r19
 2091 0858 2795      		ror r18
 2092 085a 0A94      	2:	dec r0
 2093 085c 02F4      		brpl 1b
 2094 085e 0C2C      		mov r0,r12
 2095 0860 00C0      		rjmp 2f
 2096 0862 880F      	1:	lsl r24
 2097 0864 991F      		rol r25
 2098 0866 0A94      	2:	dec r0
 2099 0868 02F4      		brpl 1b
 2100 086a 282B      		or r18,r24
 2101               	.LVL182:
 2102 086c 00C0      		rjmp .L216
 2103               	.LVL183:
 2104               	.L244:
 2105               	.LM328:
 2106 086e FA01      		movw r30,r20
 2107 0870 E050      		subi r30,lo8(-(buffer))
 2108 0872 F040      		sbci r31,hi8(-(buffer))
 2109 0874 8081      		ld r24,Z
 2110 0876 2823      		and r18,r24
 2111 0878 2083      		st Z,r18
 2112 087a 00C0      		rjmp .L224
 2113               	.LVL184:
 2114               	.L248:
 2115               	.LM329:
 2116 087c FA01      		movw r30,r20
 2117 087e E050      		subi r30,lo8(-(buffer))
 2118 0880 F040      		sbci r31,hi8(-(buffer))
 2119 0882 8081      		ld r24,Z
 2120 0884 2827      		eor r18,r24
 2121 0886 2083      		st Z,r18
 2122 0888 00C0      		rjmp .L224
 2123               	.L210:
 2124               	.LM330:
 2125 088a 9B81      		ldd r25,Y+3
 2126 088c A916      		cp r10,r25
 2127 088e 00F0      		brlo .L233
 2128               	.LVL185:
 2129               	.L212:
 2130               	.LM331:
 2131 0890 FA81      		ldd r31,Y+2
 2132 0892 2F2F      		mov r18,r31
 2133               	.LVL186:
 2134 0894 30E0      		ldi r19,lo8(0)
 2135 0896 0C2C      		mov r0,r12
 2136 0898 00C0      		rjmp 2f
 2137 089a 220F      	1:	lsl r18
 2138 089c 331F      		rol r19
 2139 089e 0A94      	2:	dec r0
 2140 08a0 02F4      		brpl 1b
 2141               	.LVL187:
 2142 08a2 DB01      		movw r26,r22
 2143 08a4 8C91      		ld r24,X
 2144 08a6 90E0      		ldi r25,lo8(0)
 2145 08a8 022C      		mov r0,r2
 2146 08aa 00C0      		rjmp 2f
 2147 08ac 9595      	1:	asr r25
 2148 08ae 8795      		ror r24
 2149 08b0 0A94      	2:	dec r0
 2150 08b2 02F4      		brpl 1b
 2151 08b4 282B      		or r18,r24
 2152               	.LVL188:
 2153               	.LM332:
 2154 08b6 FC93      		st X,r31
 2155 08b8 00C0      		rjmp .L211
 2156               	.L233:
 2157               	.LM333:
 2158 08ba 8091 0000 		lds r24,RX_bytes
 2159 08be 8823      		tst r24
 2160 08c0 01F0      		breq .L233
 2161               	.LM334:
 2162 08c2 8091 0000 		lds r24,RX_read
 2163 08c6 9091 0000 		lds r25,(RX_read)+1
 2164 08ca DC01      		movw r26,r24
 2165 08cc A050      		subi r26,lo8(-(RX_array))
 2166 08ce B040      		sbci r27,hi8(-(RX_array))
 2167 08d0 BC91      		ld r27,X
 2168 08d2 BA83      		std Y+2,r27
 2169               	.LVL189:
 2170 08d4 0196      		adiw r24,1
 2171 08d6 9093 0000 		sts (RX_read)+1,r25
 2172 08da 8093 0000 		sts RX_read,r24
 2173               	.LM335:
 2174 08de 4497      		sbiw r24,20
 2175 08e0 00F0      		brlo .L214
 2176 08e2 1092 0000 		sts (RX_read)+1,__zero_reg__
 2177 08e6 1092 0000 		sts RX_read,__zero_reg__
 2178               	.L214:
 2179               	.LM336:
 2180               	/* #APP */
 2181               	 ;  1583 "main.c" 1
 2182 08ea F894      		cli
 2183               	 ;  0 "" 2
 2184               	.LM337:
 2185               	/* #NOAPP */
 2186 08ec 8091 0000 		lds r24,RX_bytes
 2187 08f0 8150      		subi r24,lo8(-(-1))
 2188 08f2 8093 0000 		sts RX_bytes,r24
 2189               	.LM338:
 2190               	/* #APP */
 2191               	 ;  1585 "main.c" 1
 2192 08f6 7894      		sei
 2193               	 ;  0 "" 2
 2194               	.LM339:
 2195               	/* #NOAPP */
 2196 08f8 8091 0000 		lds r24,RX_pause
 2197 08fc 8130      		cpi r24,lo8(1)
 2198 08fe 01F4      		brne .L212
 2199               	.LM340:
 2200 0900 8091 0000 		lds r24,RX_bytes
 2201 0904 8530      		cpi r24,lo8(5)
 2202 0906 00F4      		brsh .L212
 2203               	.L232:
 2204               	.LBB181:
 2205               	.LBB182:
 2206               	.LM341:
 2207 0908 8091 C000 		lds r24,192
 2208 090c 85FF      		sbrs r24,5
 2209 090e 00C0      		rjmp .L232
 2210               	.LM342:
 2211 0910 E1E1      		ldi r30,lo8(17)
 2212 0912 E093 C600 		sts 198,r30
 2213               	.LBE182:
 2214               	.LBE181:
 2215               	.LM343:
 2216 0916 1092 0000 		sts RX_pause,__zero_reg__
 2217 091a 00C0      		rjmp .L212
 2218               	.LVL190:
 2219               	.L225:
 2220               	.LM344:
 2221 091c 6414      		cp r6,r4
 2222 091e 7504      		cpc r7,r5
 2223 0920 01F0      		breq .L249
 2224               	.LM345:
 2225 0922 FA01      		movw r30,r20
 2226 0924 E050      		subi r30,lo8(-(buffer))
 2227 0926 F040      		sbci r31,hi8(-(buffer))
 2228 0928 1082      		st Z,__zero_reg__
 2229 092a 00C0      		rjmp .L226
 2230               	.L249:
 2231               	.LM346:
 2232 092c FA01      		movw r30,r20
 2233 092e E050      		subi r30,lo8(-(buffer))
 2234 0930 F040      		sbci r31,hi8(-(buffer))
 2235 0932 8081      		ld r24,Z
 2236 0934 A985      		ldd r26,Y+9
 2237 0936 8A23      		and r24,r26
 2238 0938 8083      		st Z,r24
 2239 093a 00C0      		rjmp .L226
 2240               	.L209:
 2241               	.LM347:
 2242 093c 8885      		ldd r24,Y+8
 2243 093e 6F81      		ldd r22,Y+7
 2244 0940 432D      		mov r20,r3
 2245 0942 20E0      		ldi r18,lo8(buffer)
 2246 0944 30E0      		ldi r19,hi8(buffer)
 2247               	.LVL191:
 2248 0946 0E94 0000 		call write_block
 2249               	.LVL192:
 2250 094a 0894      		sec
 2251 094c 611C      		adc r6,__zero_reg__
 2252 094e 711C      		adc r7,__zero_reg__
 2253               	.LM348:
 2254 0950 EC81      		ldd r30,Y+4
 2255 0952 6E16      		cp r6,r30
 2256 0954 00F4      		brsh .+2
 2257 0956 00C0      		rjmp .L230
 2258 0958 00C0      		rjmp .L231
 2259               	.LVL193:
 2260               	.L207:
 2261               	.LM349:
 2262 095a 88E0      		ldi r24,lo8(8)
 2263 095c 90E0      		ldi r25,hi8(8)
 2264 095e 821B      		sub r24,r18
 2265 0960 930B      		sbc r25,r19
 2266 0962 00C0      		rjmp 2f
 2267 0964 5595      	1:	asr r21
 2268 0966 4795      		ror r20
 2269 0968 8A95      	2:	dec r24
 2270 096a 02F4      		brpl 1b
 2271 096c 4D83      		std Y+5,r20
 2272               	.LVL194:
 2273 096e 00C0      		rjmp .L208
 2274               	.LVL195:
 2275               	.L242:
 2276               	.LM350:
 2277 0970 2223      		tst r18
 2278 0972 01F4      		brne .+2
 2279 0974 00C0      		rjmp .L231
 2280 0976 00E0      		ldi r16,lo8(0)
 2281               	.LVL196:
 2282               	.L201:
 2283               	.LM351:
 2284 0978 3320      		tst r3
 2285 097a 01F0      		breq .L204
 2286               	.LM352:
 2287 097c 10E0      		ldi r17,lo8(0)
 2288               	.LVL197:
 2289               	.L202:
 2290               	.LM353:
 2291 097e 0E94 0000 		call RX_get_byte
 2292               	.LVL198:
 2293               	.LM354:
 2294 0982 1F5F      		subi r17,lo8(-(1))
 2295 0984 1315      		cp r17,r3
 2296 0986 00F0      		brlo .L202
 2297               	.LVL199:
 2298               	.L204:
 2299               	.LM355:
 2300 0988 0F5F      		subi r16,lo8(-(1))
 2301 098a 0A15      		cp r16,r10
 2302 098c 00F0      		brlo .L201
 2303 098e 00C0      		rjmp .L231
 2304               	.LVL200:
 2305               	.L243:
 2306               	.LM356:
 2307 0990 0796      		adiw r24,7
 2308 0992 00C0      		rjmp .L205
 2309               	.LFE21:
 2311               	.global	print_char
 2313               	print_char:
 2314               	.LFB15:
 2315               	.LM357:
 2316               	.LVL201:
 2317 0994 EF92      		push r14
 2318 0996 FF92      		push r15
 2319 0998 0F93      		push r16
 2320               	/* prologue: function */
 2321               	/* frame size = 0 */
 2322               	.LM358:
 2323 099a 9091 0000 		lds r25,font_bytes
 2324 099e 492F      		mov r20,r25
 2325 09a0 50E0      		ldi r21,lo8(0)
 2326 09a2 90E0      		ldi r25,lo8(0)
 2327               	.LVL202:
 2328 09a4 8097      		sbiw r24,32
 2329               	.LVL203:
 2330 09a6 849F      		mul r24,r20
 2331 09a8 9001      		movw r18,r0
 2332 09aa 859F      		mul r24,r21
 2333 09ac 300D      		add r19,r0
 2334 09ae 949F      		mul r25,r20
 2335 09b0 300D      		add r19,r0
 2336 09b2 1124      		clr r1
 2337               	.LVL204:
 2338 09b4 2D5F      		subi r18,lo8(-(3))
 2339 09b6 3F4F      		sbci r19,hi8(-(3))
 2340               	.LM359:
 2341 09b8 8091 0000 		lds r24,aux_font
 2342               	.LVL205:
 2343 09bc 8823      		tst r24
 2344 09be 01F0      		breq .+2
 2345 09c0 00C0      		rjmp .L251
 2346               	.LM360:
 2347 09c2 8091 0000 		lds r24,reverse
 2348 09c6 8130      		cpi r24,lo8(1)
 2349 09c8 01F4      		brne .+2
 2350 09ca 00C0      		rjmp .L252
 2351               	.LM361:
 2352 09cc C901      		movw r24,r18
 2353 09ce 840F      		add r24,r20
 2354 09d0 951F      		adc r25,r21
 2355 09d2 2817      		cp r18,r24
 2356 09d4 3907      		cpc r19,r25
 2357 09d6 04F4      		brge .L254
 2358               	.LM362:
 2359 09d8 2050      		subi r18,lo8(-(text_array))
 2360 09da 3040      		sbci r19,hi8(-(text_array))
 2361               	.LVL206:
 2362 09dc 40E8      		ldi r20,lo8(-128)
 2363               	.LVL207:
 2364 09de BC01      		movw r22,r24
 2365 09e0 6050      		subi r22,lo8(-(text_array))
 2366 09e2 7040      		sbci r23,hi8(-(text_array))
 2367               	.L256:
 2368               	.LBB183:
 2369               	.LM363:
 2370 09e4 F901      		movw r30,r18
 2371               	/* #APP */
 2372               	 ;  1245 "main.c" 1
 2373 09e6 8491      		lpm r24, Z
 2374               		
 2375               	 ;  0 "" 2
 2376               	.LVL208:
 2377               	/* #NOAPP */
 2378               	.LBE183:
 2379 09e8 E42F      		mov r30,r20
 2380 09ea F0E0      		ldi r31,lo8(0)
 2381               	.LVL209:
 2382 09ec E050      		subi r30,lo8(-(buffer))
 2383 09ee F040      		sbci r31,hi8(-(buffer))
 2384               	.LVL210:
 2385 09f0 8083      		st Z,r24
 2386 09f2 4F5F      		subi r20,lo8(-(1))
 2387               	.LVL211:
 2388 09f4 2F5F      		subi r18,lo8(-(1))
 2389 09f6 3F4F      		sbci r19,hi8(-(1))
 2390               	.LM364:
 2391 09f8 2617      		cp r18,r22
 2392 09fa 3707      		cpc r19,r23
 2393 09fc 01F4      		brne .L256
 2394               	.LVL212:
 2395               	.L254:
 2396               	.LM365:
 2397 09fe 8091 0000 		lds r24,x_offset
 2398               	.LVL213:
 2399 0a02 6091 0000 		lds r22,y_offset
 2400 0a06 4091 0000 		lds r20,font_w
 2401               	.LVL214:
 2402 0a0a 2091 0000 		lds r18,font_h
 2403               	.LVL215:
 2404 0a0e 0091 0000 		lds r16,font_mode
 2405 0a12 70E0      		ldi r23,lo8(buffer+128)
 2406 0a14 E72E      		mov r14,r23
 2407 0a16 70E0      		ldi r23,hi8(buffer+128)
 2408 0a18 F72E      		mov r15,r23
 2409 0a1a 0E94 0000 		call bitblt
 2410               	.LVL216:
 2411               	.LM366:
 2412 0a1e 2091 0000 		lds r18,font_w
 2413 0a22 3091 0000 		lds r19,font_space
 2414 0a26 832F      		mov r24,r19
 2415 0a28 820F      		add r24,r18
 2416 0a2a 9091 0000 		lds r25,x_offset
 2417 0a2e 890F      		add r24,r25
 2418 0a30 8093 0000 		sts x_offset,r24
 2419               	.LM367:
 2420 0a34 482F      		mov r20,r24
 2421 0a36 50E0      		ldi r21,lo8(0)
 2422 0a38 622F      		mov r22,r18
 2423 0a3a 70E0      		ldi r23,lo8(0)
 2424 0a3c 630F      		add r22,r19
 2425 0a3e 711D      		adc r23,__zero_reg__
 2426 0a40 CA01      		movw r24,r20
 2427 0a42 860F      		add r24,r22
 2428 0a44 971F      		adc r25,r23
 2429 0a46 8038      		cpi r24,128
 2430 0a48 9105      		cpc r25,__zero_reg__
 2431 0a4a 04F0      		brlt .L263
 2432               	.LM368:
 2433 0a4c CA01      		movw r24,r20
 2434 0a4e 0E94 0000 		call __divmodhi4
 2435 0a52 8093 0000 		sts x_offset,r24
 2436               	.LM369:
 2437 0a56 7091 0000 		lds r23,y_offset
 2438 0a5a 6091 0000 		lds r22,font_h
 2439 0a5e 862F      		mov r24,r22
 2440 0a60 90E0      		ldi r25,lo8(0)
 2441 0a62 472F      		mov r20,r23
 2442 0a64 50E0      		ldi r21,lo8(0)
 2443 0a66 2227      		clr r18
 2444 0a68 3327      		clr r19
 2445 0a6a 281B      		sub r18,r24
 2446 0a6c 390B      		sbc r19,r25
 2447 0a6e 281B      		sub r18,r24
 2448 0a70 390B      		sbc r19,r25
 2449 0a72 205C      		subi r18,lo8(-(64))
 2450 0a74 3F4F      		sbci r19,hi8(-(64))
 2451 0a76 2417      		cp r18,r20
 2452 0a78 3507      		cpc r19,r21
 2453 0a7a 04F0      		brlt .L268
 2454               	.LM370:
 2455 0a7c 670F      		add r22,r23
 2456 0a7e 6093 0000 		sts y_offset,r22
 2457               	.L263:
 2458               	/* epilogue start */
 2459               	.LM371:
 2460 0a82 0F91      		pop r16
 2461 0a84 FF90      		pop r15
 2462 0a86 EF90      		pop r14
 2463 0a88 0895      		ret
 2464               	.LVL217:
 2465               	.L251:
 2466               	.LM372:
 2467 0a8a 8091 0000 		lds r24,reverse
 2468 0a8e 8130      		cpi r24,lo8(1)
 2469 0a90 01F0      		breq .L257
 2470               	.LM373:
 2471 0a92 C901      		movw r24,r18
 2472 0a94 840F      		add r24,r20
 2473 0a96 951F      		adc r25,r21
 2474 0a98 2817      		cp r18,r24
 2475 0a9a 3907      		cpc r19,r25
 2476 0a9c 04F0      		brlt .+2
 2477 0a9e 00C0      		rjmp .L254
 2478               	.LM374:
 2479 0aa0 2050      		subi r18,lo8(-(aux_text_array))
 2480 0aa2 3040      		sbci r19,hi8(-(aux_text_array))
 2481               	.LVL218:
 2482 0aa4 40E8      		ldi r20,lo8(-128)
 2483               	.LVL219:
 2484 0aa6 BC01      		movw r22,r24
 2485 0aa8 6050      		subi r22,lo8(-(aux_text_array))
 2486 0aaa 7040      		sbci r23,hi8(-(aux_text_array))
 2487               	.L260:
 2488               	.LBB184:
 2489               	.LM375:
 2490 0aac F901      		movw r30,r18
 2491               	/* #APP */
 2492               	 ;  1259 "main.c" 1
 2493 0aae 8491      		lpm r24, Z
 2494               		
 2495               	 ;  0 "" 2
 2496               	.LVL220:
 2497               	/* #NOAPP */
 2498               	.LBE184:
 2499 0ab0 E42F      		mov r30,r20
 2500 0ab2 F0E0      		ldi r31,lo8(0)
 2501               	.LVL221:
 2502 0ab4 E050      		subi r30,lo8(-(buffer))
 2503 0ab6 F040      		sbci r31,hi8(-(buffer))
 2504               	.LVL222:
 2505 0ab8 8083      		st Z,r24
 2506 0aba 4F5F      		subi r20,lo8(-(1))
 2507               	.LVL223:
 2508 0abc 2F5F      		subi r18,lo8(-(1))
 2509 0abe 3F4F      		sbci r19,hi8(-(1))
 2510               	.LM376:
 2511 0ac0 2617      		cp r18,r22
 2512 0ac2 3707      		cpc r19,r23
 2513 0ac4 01F4      		brne .L260
 2514 0ac6 00C0      		rjmp .L254
 2515               	.LVL224:
 2516               	.L268:
 2517               	.LM377:
 2518 0ac8 872F      		mov r24,r23
 2519 0aca 0E94 0000 		call __udivmodqi4
 2520 0ace 9093 0000 		sts y_offset,r25
 2521               	.LM378:
 2522 0ad2 0F91      		pop r16
 2523 0ad4 FF90      		pop r15
 2524 0ad6 EF90      		pop r14
 2525 0ad8 0895      		ret
 2526               	.LVL225:
 2527               	.L257:
 2528               	.LM379:
 2529 0ada C901      		movw r24,r18
 2530 0adc 840F      		add r24,r20
 2531 0ade 951F      		adc r25,r21
 2532 0ae0 2817      		cp r18,r24
 2533 0ae2 3907      		cpc r19,r25
 2534 0ae4 04F0      		brlt .+2
 2535 0ae6 00C0      		rjmp .L254
 2536 0ae8 2050      		subi r18,lo8(-(aux_text_array))
 2537 0aea 3040      		sbci r19,hi8(-(aux_text_array))
 2538               	.LVL226:
 2539 0aec 40E8      		ldi r20,lo8(-128)
 2540               	.LVL227:
 2541 0aee BC01      		movw r22,r24
 2542 0af0 6050      		subi r22,lo8(-(aux_text_array))
 2543 0af2 7040      		sbci r23,hi8(-(aux_text_array))
 2544               	.L259:
 2545               	.LBB185:
 2546               	.LM380:
 2547 0af4 F901      		movw r30,r18
 2548               	/* #APP */
 2549               	 ;  1254 "main.c" 1
 2550 0af6 8491      		lpm r24, Z
 2551               		
 2552               	 ;  0 "" 2
 2553               	.LVL228:
 2554               	/* #NOAPP */
 2555               	.LBE185:
 2556 0af8 E42F      		mov r30,r20
 2557 0afa F0E0      		ldi r31,lo8(0)
 2558               	.LVL229:
 2559 0afc E050      		subi r30,lo8(-(buffer))
 2560 0afe F040      		sbci r31,hi8(-(buffer))
 2561               	.LVL230:
 2562 0b00 8095      		com r24
 2563 0b02 8083      		st Z,r24
 2564 0b04 4F5F      		subi r20,lo8(-(1))
 2565               	.LVL231:
 2566 0b06 2F5F      		subi r18,lo8(-(1))
 2567 0b08 3F4F      		sbci r19,hi8(-(1))
 2568               	.LM381:
 2569 0b0a 2617      		cp r18,r22
 2570 0b0c 3707      		cpc r19,r23
 2571 0b0e 01F4      		brne .L259
 2572 0b10 00C0      		rjmp .L254
 2573               	.LVL232:
 2574               	.L252:
 2575               	.LM382:
 2576 0b12 C901      		movw r24,r18
 2577 0b14 840F      		add r24,r20
 2578 0b16 951F      		adc r25,r21
 2579 0b18 2817      		cp r18,r24
 2580 0b1a 3907      		cpc r19,r25
 2581 0b1c 04F0      		brlt .+2
 2582 0b1e 00C0      		rjmp .L254
 2583 0b20 2050      		subi r18,lo8(-(text_array))
 2584 0b22 3040      		sbci r19,hi8(-(text_array))
 2585               	.LVL233:
 2586 0b24 40E8      		ldi r20,lo8(-128)
 2587               	.LVL234:
 2588 0b26 BC01      		movw r22,r24
 2589 0b28 6050      		subi r22,lo8(-(text_array))
 2590 0b2a 7040      		sbci r23,hi8(-(text_array))
 2591               	.L255:
 2592               	.LBB186:
 2593               	.LM383:
 2594 0b2c F901      		movw r30,r18
 2595               	/* #APP */
 2596               	 ;  1240 "main.c" 1
 2597 0b2e 8491      		lpm r24, Z
 2598               		
 2599               	 ;  0 "" 2
 2600               	.LVL235:
 2601               	/* #NOAPP */
 2602               	.LBE186:
 2603 0b30 E42F      		mov r30,r20
 2604 0b32 F0E0      		ldi r31,lo8(0)
 2605               	.LVL236:
 2606 0b34 E050      		subi r30,lo8(-(buffer))
 2607 0b36 F040      		sbci r31,hi8(-(buffer))
 2608               	.LVL237:
 2609 0b38 8095      		com r24
 2610 0b3a 8083      		st Z,r24
 2611 0b3c 4F5F      		subi r20,lo8(-(1))
 2612               	.LVL238:
 2613 0b3e 2F5F      		subi r18,lo8(-(1))
 2614 0b40 3F4F      		sbci r19,hi8(-(1))
 2615               	.LM384:
 2616 0b42 2617      		cp r18,r22
 2617 0b44 3707      		cpc r19,r23
 2618 0b46 01F4      		brne .L255
 2619 0b48 00C0      		rjmp .L254
 2620               	.LFE15:
 2622               	.global	read_byte
 2624               	read_byte:
 2625               	.LFB24:
 2626               	.LM385:
 2627               	.LVL239:
 2628 0b4a 1F93      		push r17
 2629               	/* prologue: function */
 2630               	/* frame size = 0 */
 2631 0b4c 162F      		mov r17,r22
 2632               	.LM386:
 2633 0b4e 8064      		ori r24,lo8(64)
 2634               	.LVL240:
 2635 0b50 60E0      		ldi r22,lo8(0)
 2636               	.LVL241:
 2637 0b52 0E94 0000 		call write_command_LCD
 2638               	.LM387:
 2639 0b56 812F      		mov r24,r17
 2640 0b58 0E94 0000 		call read_data_LCD
 2641               	/* epilogue start */
 2642               	.LM388:
 2643 0b5c 1F91      		pop r17
 2644               	.LVL242:
 2645 0b5e 0895      		ret
 2646               	.LFE24:
 2648               	.global	pixel
 2650               	pixel:
 2651               	.LFB22:
 2652               	.LM389:
 2653               	.LVL243:
 2654 0b60 EF92      		push r14
 2655 0b62 FF92      		push r15
 2656 0b64 0F93      		push r16
 2657 0b66 1F93      		push r17
 2658               	/* prologue: function */
 2659               	/* frame size = 0 */
 2660 0b68 F82E      		mov r15,r24
 2661               	.LM390:
 2662 0b6a 67FD      		sbrc r22,7
 2663 0b6c 00C0      		rjmp .L278
 2664               	.LVL244:
 2665               	.LM391:
 2666 0b6e 4034      		cpi r20,lo8(64)
 2667 0b70 00F0      		brlo .+2
 2668 0b72 00C0      		rjmp .L278
 2669               	.LM392:
 2670 0b74 5FE3      		ldi r21,lo8(63)
 2671               	.LVL245:
 2672 0b76 541B      		sub r21,r20
 2673               	.LM393:
 2674 0b78 8091 0000 		lds r24,reverse
 2675 0b7c 8130      		cpi r24,lo8(1)
 2676 0b7e 01F4      		brne .+2
 2677 0b80 00C0      		rjmp .L279
 2678               	.L273:
 2679               	.LM394:
 2680 0b82 6034      		cpi r22,lo8(64)
 2681 0b84 00F0      		brlo .+2
 2682 0b86 00C0      		rjmp .L280
 2683               	.LM395:
 2684 0b88 81E0      		ldi r24,lo8(1)
 2685 0b8a 8093 0000 		sts temp_side.2459,r24
 2686 0b8e 6093 0000 		sts temp_x.2460,r22
 2687               	.L275:
 2688               	.LM396:
 2689 0b92 952F      		mov r25,r21
 2690 0b94 9695      		lsr r25
 2691 0b96 9695      		lsr r25
 2692 0b98 9695      		lsr r25
 2693 0b9a 87E0      		ldi r24,lo8(7)
 2694 0b9c 891B      		sub r24,r25
 2695 0b9e 8093 0000 		sts temp_page.2458,r24
 2696               	.LM397:
 2697 0ba2 27E0      		ldi r18,lo8(7)
 2698 0ba4 30E0      		ldi r19,hi8(7)
 2699 0ba6 B901      		movw r22,r18
 2700               	.LVL246:
 2701 0ba8 651B      		sub r22,r21
 2702 0baa 7109      		sbc r23,__zero_reg__
 2703 0bac AB01      		movw r20,r22
 2704 0bae 281B      		sub r18,r24
 2705 0bb0 3109      		sbc r19,__zero_reg__
 2706 0bb2 220F      		lsl r18
 2707 0bb4 331F      		rol r19
 2708 0bb6 220F      		lsl r18
 2709 0bb8 331F      		rol r19
 2710 0bba 220F      		lsl r18
 2711 0bbc 331F      		rol r19
 2712 0bbe 420F      		add r20,r18
 2713 0bc0 531F      		adc r21,r19
 2714 0bc2 21E0      		ldi r18,lo8(1)
 2715 0bc4 30E0      		ldi r19,hi8(1)
 2716 0bc6 00C0      		rjmp 2f
 2717 0bc8 220F      	1:	lsl r18
 2718 0bca 331F      		rol r19
 2719 0bcc 4A95      	2:	dec r20
 2720 0bce 02F4      		brpl 1b
 2721 0bd0 122F      		mov r17,r18
 2722 0bd2 2093 0000 		sts temp_data1.2461,r18
 2723               	.LM398:
 2724 0bd6 886B      		ori r24,lo8(-72)
 2725 0bd8 60E0      		ldi r22,lo8(0)
 2726 0bda 0E94 0000 		call write_command_LCD
 2727               	.LVL247:
 2728               	.LM399:
 2729 0bde 0091 0000 		lds r16,temp_x.2460
 2730 0be2 E090 0000 		lds r14,temp_side.2459
 2731 0be6 802F      		mov r24,r16
 2732 0be8 6E2D      		mov r22,r14
 2733 0bea 0E94 0000 		call read_byte
 2734 0bee 8093 0000 		sts temp_data2.2462,r24
 2735               	.LM400:
 2736 0bf2 FF20      		tst r15
 2737 0bf4 01F4      		brne .L276
 2738               	.LM401:
 2739 0bf6 1095      		com r17
 2740               	.LM402:
 2741 0bf8 1823      		and r17,r24
 2742 0bfa 1093 0000 		sts temp_data1.2461,r17
 2743               	.L277:
 2744               	.LM403:
 2745 0bfe 802F      		mov r24,r16
 2746 0c00 8064      		ori r24,lo8(64)
 2747 0c02 60E0      		ldi r22,lo8(0)
 2748 0c04 0E94 0000 		call write_command_LCD
 2749               	.LM404:
 2750 0c08 8091 0000 		lds r24,temp_data1.2461
 2751 0c0c 6E2D      		mov r22,r14
 2752 0c0e 0E94 0000 		call write_data_LCD
 2753               	.LVL248:
 2754               	.L278:
 2755               	/* epilogue start */
 2756               	.LM405:
 2757 0c12 1F91      		pop r17
 2758 0c14 0F91      		pop r16
 2759 0c16 FF90      		pop r15
 2760               	.LVL249:
 2761 0c18 EF90      		pop r14
 2762 0c1a 0895      		ret
 2763               	.LVL250:
 2764               	.L280:
 2765               	.LM406:
 2766 0c1c 82E0      		ldi r24,lo8(2)
 2767 0c1e 8093 0000 		sts temp_side.2459,r24
 2768 0c22 6054      		subi r22,lo8(-(-64))
 2769               	.LVL251:
 2770 0c24 6093 0000 		sts temp_x.2460,r22
 2771 0c28 00C0      		rjmp .L275
 2772               	.LVL252:
 2773               	.L276:
 2774               	.LM407:
 2775 0c2a 182B      		or r17,r24
 2776 0c2c 1093 0000 		sts temp_data1.2461,r17
 2777 0c30 00C0      		rjmp .L277
 2778               	.LVL253:
 2779               	.L279:
 2780               	.LM408:
 2781 0c32 F826      		eor r15,r24
 2782 0c34 00C0      		rjmp .L273
 2783               	.LFE22:
 2785               	.global	line
 2787               	line:
 2788               	.LFB23:
 2789               	.LM409:
 2790               	.LVL254:
 2791 0c36 4F92      		push r4
 2792 0c38 5F92      		push r5
 2793 0c3a 6F92      		push r6
 2794 0c3c 7F92      		push r7
 2795 0c3e 8F92      		push r8
 2796 0c40 9F92      		push r9
 2797 0c42 AF92      		push r10
 2798 0c44 BF92      		push r11
 2799 0c46 CF92      		push r12
 2800 0c48 DF92      		push r13
 2801 0c4a EF92      		push r14
 2802 0c4c FF92      		push r15
 2803 0c4e 0F93      		push r16
 2804               	.LVL255:
 2805 0c50 1F93      		push r17
 2806 0c52 CF93      		push r28
 2807 0c54 DF93      		push r29
 2808               	/* prologue: function */
 2809               	/* frame size = 0 */
 2810 0c56 482E      		mov r4,r24
 2811 0c58 A42F      		mov r26,r20
 2812 0c5a 722F      		mov r23,r18
 2813               	.LM410:
 2814 0c5c 402F      		mov r20,r16
 2815               	.LVL256:
 2816 0c5e 50E0      		ldi r21,lo8(0)
 2817               	.LVL257:
 2818 0c60 EA2F      		mov r30,r26
 2819               	.LVL258:
 2820 0c62 F0E0      		ldi r31,lo8(0)
 2821               	.LVL259:
 2822 0c64 E22E      		mov r14,r18
 2823               	.LVL260:
 2824 0c66 FF24      		clr r15
 2825               	.LVL261:
 2826 0c68 A62E      		mov r10,r22
 2827               	.LVL262:
 2828 0c6a BB24      		clr r11
 2829               	.LVL263:
 2830 0c6c 5524      		clr r5
 2831               	.LVL264:
 2832 0c6e 9A01      		movw r18,r20
 2833               	.LVL265:
 2834 0c70 2E1B      		sub r18,r30
 2835 0c72 3F0B      		sbc r19,r31
 2836 0c74 37FD      		sbrc r19,7
 2837 0c76 00C0      		rjmp .L299
 2838               	.LVL266:
 2839 0c78 C701      		movw r24,r14
 2840 0c7a 8A19      		sub r24,r10
 2841 0c7c 9B09      		sbc r25,r11
 2842 0c7e 97FD      		sbrc r25,7
 2843 0c80 00C0      		rjmp .L300
 2844               	.LVL267:
 2845               	.L284:
 2846 0c82 8217      		cp r24,r18
 2847 0c84 9307      		cpc r25,r19
 2848 0c86 04F4      		brge .L285
 2849 0c88 5524      		clr r5
 2850 0c8a 5394      		inc r5
 2851               	.LM411:
 2852 0c8c 8A2F      		mov r24,r26
 2853 0c8e A62F      		mov r26,r22
 2854 0c90 682F      		mov r22,r24
 2855               	.LVL268:
 2856 0c92 802F      		mov r24,r16
 2857 0c94 072F      		mov r16,r23
 2858 0c96 782F      		mov r23,r24
 2859 0c98 CF01      		movw r24,r30
 2860 0c9a F501      		movw r30,r10
 2861 0c9c 5C01      		movw r10,r24
 2862 0c9e CA01      		movw r24,r20
 2863 0ca0 A701      		movw r20,r14
 2864 0ca2 7C01      		movw r14,r24
 2865               	.LVL269:
 2866               	.L285:
 2867               	.LM412:
 2868 0ca4 7617      		cp r23,r22
 2869 0ca6 00F4      		brsh .+2
 2870 0ca8 00C0      		rjmp .L286
 2871 0caa C701      		movw r24,r14
 2872               	.LVL270:
 2873 0cac 7501      		movw r14,r10
 2874 0cae 5C01      		movw r10,r24
 2875 0cb0 CA01      		movw r24,r20
 2876 0cb2 AF01      		movw r20,r30
 2877 0cb4 FC01      		movw r30,r24
 2878               	.LM413:
 2879 0cb6 6F01      		movw r12,r30
 2880               	.LVL271:
 2881 0cb8 C41A      		sub r12,r20
 2882 0cba D50A      		sbc r13,r21
 2883 0cbc D7FC      		sbrc r13,7
 2884 0cbe 00C0      		rjmp .L301
 2885               	.LVL272:
 2886               	.L288:
 2887               	.LM414:
 2888 0cc0 A017      		cp r26,r16
 2889 0cc2 00F4      		brsh .+2
 2890 0cc4 00C0      		rjmp .L289
 2891               	.L305:
 2892 0cc6 6624      		clr r6
 2893 0cc8 6A94      		dec r6
 2894 0cca 762C      		mov r7,r6
 2895               	.LVL273:
 2896               	.L290:
 2897               	.LM415:
 2898 0ccc AE14      		cp r10,r14
 2899 0cce BF04      		cpc r11,r15
 2900 0cd0 04F0      		brlt .L297
 2901               	.LVL274:
 2902               	.LM416:
 2903 0cd2 4501      		movw r8,r10
 2904               	.LVL275:
 2905 0cd4 8E18      		sub r8,r14
 2906 0cd6 9F08      		sbc r9,r15
 2907               	.LM417:
 2908 0cd8 C401      		movw r24,r8
 2909 0cda 97FC      		sbrc r9,7
 2910 0cdc 00C0      		rjmp .L302
 2911               	.LVL276:
 2912               	.L292:
 2913 0cde EC01      		movw r28,r24
 2914               	.LVL277:
 2915 0ce0 D595      		asr r29
 2916 0ce2 C795      		ror r28
 2917 0ce4 8A01      		movw r16,r20
 2918               	.LVL278:
 2919 0ce6 00C0      		rjmp .L296
 2920               	.LVL279:
 2921               	.L304:
 2922               	.LM418:
 2923 0ce8 842D      		mov r24,r4
 2924               	.LVL280:
 2925 0cea 602F      		mov r22,r16
 2926               	.LVL281:
 2927 0cec 4E2D      		mov r20,r14
 2928               	.LVL282:
 2929 0cee 0E94 0000 		call pixel
 2930               	.LVL283:
 2931               	.LM419:
 2932 0cf2 CC19      		sub r28,r12
 2933 0cf4 DD09      		sbc r29,r13
 2934               	.LM420:
 2935 0cf6 D7FD      		sbrc r29,7
 2936 0cf8 00C0      		rjmp .L303
 2937               	.L295:
 2938               	.LM421:
 2939 0cfa 0894      		sec
 2940 0cfc E11C      		adc r14,__zero_reg__
 2941 0cfe F11C      		adc r15,__zero_reg__
 2942               	.LVL284:
 2943 0d00 AE14      		cp r10,r14
 2944 0d02 BF04      		cpc r11,r15
 2945 0d04 04F0      		brlt .L297
 2946               	.LVL285:
 2947               	.L296:
 2948               	.LM422:
 2949 0d06 5520      		tst r5
 2950 0d08 01F4      		brne .L304
 2951               	.LVL286:
 2952 0d0a 842D      		mov r24,r4
 2953               	.LVL287:
 2954 0d0c 6E2D      		mov r22,r14
 2955               	.LVL288:
 2956 0d0e 402F      		mov r20,r16
 2957               	.LVL289:
 2958 0d10 0E94 0000 		call pixel
 2959               	.LVL290:
 2960               	.LM423:
 2961 0d14 CC19      		sub r28,r12
 2962 0d16 DD09      		sbc r29,r13
 2963               	.LM424:
 2964 0d18 D7FF      		sbrs r29,7
 2965 0d1a 00C0      		rjmp .L295
 2966               	.L303:
 2967               	.LM425:
 2968 0d1c 060D      		add r16,r6
 2969 0d1e 171D      		adc r17,r7
 2970               	.LM426:
 2971 0d20 C80D      		add r28,r8
 2972 0d22 D91D      		adc r29,r9
 2973               	.LM427:
 2974 0d24 0894      		sec
 2975 0d26 E11C      		adc r14,__zero_reg__
 2976 0d28 F11C      		adc r15,__zero_reg__
 2977               	.LVL291:
 2978 0d2a AE14      		cp r10,r14
 2979 0d2c BF04      		cpc r11,r15
 2980 0d2e 04F4      		brge .L296
 2981               	.LVL292:
 2982               	.L297:
 2983               	/* epilogue start */
 2984               	.LM428:
 2985 0d30 DF91      		pop r29
 2986 0d32 CF91      		pop r28
 2987               	.LVL293:
 2988 0d34 1F91      		pop r17
 2989 0d36 0F91      		pop r16
 2990               	.LVL294:
 2991 0d38 FF90      		pop r15
 2992 0d3a EF90      		pop r14
 2993               	.LVL295:
 2994 0d3c DF90      		pop r13
 2995 0d3e CF90      		pop r12
 2996               	.LVL296:
 2997 0d40 BF90      		pop r11
 2998               	.LVL297:
 2999 0d42 AF90      		pop r10
 3000               	.LVL298:
 3001 0d44 9F90      		pop r9
 3002 0d46 8F90      		pop r8
 3003               	.LVL299:
 3004 0d48 7F90      		pop r7
 3005 0d4a 6F90      		pop r6
 3006               	.LVL300:
 3007 0d4c 5F90      		pop r5
 3008               	.LVL301:
 3009 0d4e 4F90      		pop r4
 3010               	.LVL302:
 3011 0d50 0895      		ret
 3012               	.LVL303:
 3013               	.L286:
 3014               	.LM429:
 3015 0d52 802F      		mov r24,r16
 3016 0d54 0A2F      		mov r16,r26
 3017 0d56 A82F      		mov r26,r24
 3018               	.LM430:
 3019 0d58 6F01      		movw r12,r30
 3020               	.LVL304:
 3021 0d5a C41A      		sub r12,r20
 3022 0d5c D50A      		sbc r13,r21
 3023 0d5e D7FE      		sbrs r13,7
 3024 0d60 00C0      		rjmp .L288
 3025               	.LVL305:
 3026               	.L301:
 3027 0d62 D094      		com r13
 3028 0d64 C194      		neg r12
 3029 0d66 D108      		sbc r13,__zero_reg__
 3030 0d68 D394      		inc r13
 3031               	.LM431:
 3032 0d6a A017      		cp r26,r16
 3033 0d6c 00F0      		brlo .+2
 3034 0d6e 00C0      		rjmp .L305
 3035               	.L289:
 3036 0d70 A1E0      		ldi r26,lo8(1)
 3037 0d72 6A2E      		mov r6,r26
 3038 0d74 712C      		mov r7,__zero_reg__
 3039               	.LVL306:
 3040 0d76 00C0      		rjmp .L290
 3041               	.LVL307:
 3042               	.L299:
 3043               	.LM432:
 3044 0d78 3095      		com r19
 3045 0d7a 2195      		neg r18
 3046 0d7c 3F4F      		sbci r19,lo8(-1)
 3047 0d7e C701      		movw r24,r14
 3048 0d80 8A19      		sub r24,r10
 3049 0d82 9B09      		sbc r25,r11
 3050 0d84 97FF      		sbrs r25,7
 3051 0d86 00C0      		rjmp .L284
 3052               	.LVL308:
 3053               	.L300:
 3054 0d88 9095      		com r25
 3055 0d8a 8195      		neg r24
 3056 0d8c 9F4F      		sbci r25,lo8(-1)
 3057 0d8e 00C0      		rjmp .L284
 3058               	.LVL309:
 3059               	.L302:
 3060               	.LM433:
 3061 0d90 0196      		adiw r24,1
 3062               	.LVL310:
 3063 0d92 00C0      		rjmp .L292
 3064               	.LFE23:
 3066               	.global	circle
 3068               	circle:
 3069               	.LFB25:
 3070               	.LM434:
 3071               	.LVL311:
 3072 0d94 2F92      		push r2
 3073 0d96 3F92      		push r3
 3074 0d98 4F92      		push r4
 3075 0d9a 5F92      		push r5
 3076 0d9c 6F92      		push r6
 3077 0d9e 7F92      		push r7
 3078 0da0 8F92      		push r8
 3079 0da2 9F92      		push r9
 3080 0da4 AF92      		push r10
 3081 0da6 BF92      		push r11
 3082 0da8 CF92      		push r12
 3083 0daa DF92      		push r13
 3084 0dac EF92      		push r14
 3085 0dae FF92      		push r15
 3086 0db0 0F93      		push r16
 3087 0db2 1F93      		push r17
 3088 0db4 CF93      		push r28
 3089 0db6 DF93      		push r29
 3090               	/* prologue: function */
 3091               	/* frame size = 0 */
 3092 0db8 C82E      		mov r12,r24
 3093 0dba 462E      		mov r4,r22
 3094 0dbc 542E      		mov r5,r20
 3095 0dbe 7901      		movw r14,r18
 3096               	.LM435:
 3097 0dc0 422F      		mov r20,r18
 3098               	.LVL312:
 3099 0dc2 450D      		add r20,r5
 3100 0dc4 0E94 0000 		call pixel
 3101               	.LVL313:
 3102               	.LM436:
 3103 0dc8 452D      		mov r20,r5
 3104 0dca 4E19      		sub r20,r14
 3105               	.LVL314:
 3106 0dcc 8C2D      		mov r24,r12
 3107 0dce 642D      		mov r22,r4
 3108 0dd0 0E94 0000 		call pixel
 3109               	.LM437:
 3110 0dd4 6E2D      		mov r22,r14
 3111 0dd6 640D      		add r22,r4
 3112 0dd8 8C2D      		mov r24,r12
 3113 0dda 452D      		mov r20,r5
 3114 0ddc 0E94 0000 		call pixel
 3115               	.LM438:
 3116 0de0 642D      		mov r22,r4
 3117 0de2 6E19      		sub r22,r14
 3118 0de4 8C2D      		mov r24,r12
 3119 0de6 452D      		mov r20,r5
 3120 0de8 0E94 0000 		call pixel
 3121               	.LM439:
 3122 0dec 1E14      		cp __zero_reg__,r14
 3123 0dee 1F04      		cpc __zero_reg__,r15
 3124               	.LVL315:
 3125 0df0 04F0      		brlt .+2
 3126 0df2 00C0      		rjmp .L310
 3127               	.LM440:
 3128 0df4 C1E0      		ldi r28,lo8(1)
 3129 0df6 D0E0      		ldi r29,hi8(1)
 3130               	.LVL316:
 3131 0df8 CE19      		sub r28,r14
 3132 0dfa DF09      		sbc r29,r15
 3133               	.LM441:
 3134 0dfc C701      		movw r24,r14
 3135 0dfe 880F      		lsl r24
 3136 0e00 991F      		rol r25
 3137 0e02 2224      		clr r2
 3138 0e04 3324      		clr r3
 3139 0e06 281A      		sub r2,r24
 3140 0e08 390A      		sbc r3,r25
 3141               	.LVL317:
 3142 0e0a 4701      		movw r8,r14
 3143               	.LVL318:
 3144 0e0c B1E0      		ldi r27,lo8(1)
 3145 0e0e 6B2E      		mov r6,r27
 3146 0e10 712C      		mov r7,__zero_reg__
 3147               	.LVL319:
 3148 0e12 AA24      		clr r10
 3149 0e14 BB24      		clr r11
 3150               	.LVL320:
 3151 0e16 00C0      		rjmp .L309
 3152               	.LVL321:
 3153               	.L311:
 3154               	.LM442:
 3155 0e18 82E0      		ldi r24,lo8(2)
 3156 0e1a 90E0      		ldi r25,hi8(2)
 3157 0e1c 680E      		add r6,r24
 3158 0e1e 791E      		adc r7,r25
 3159               	.LM443:
 3160 0e20 C60D      		add r28,r6
 3161 0e22 D71D      		adc r29,r7
 3162               	.LVL322:
 3163               	.L309:
 3164               	.LM444:
 3165 0e24 D7FD      		sbrc r29,7
 3166 0e26 00C0      		rjmp .L308
 3167               	.LM445:
 3168 0e28 0894      		sec
 3169 0e2a 8108      		sbc r8,__zero_reg__
 3170 0e2c 9108      		sbc r9,__zero_reg__
 3171               	.LM446:
 3172 0e2e 82E0      		ldi r24,lo8(2)
 3173 0e30 90E0      		ldi r25,hi8(2)
 3174 0e32 280E      		add r2,r24
 3175 0e34 391E      		adc r3,r25
 3176               	.LM447:
 3177 0e36 C20D      		add r28,r2
 3178 0e38 D31D      		adc r29,r3
 3179               	.L308:
 3180               	.LM448:
 3181 0e3a 0894      		sec
 3182 0e3c A11C      		adc r10,__zero_reg__
 3183 0e3e B11C      		adc r11,__zero_reg__
 3184               	.LM449:
 3185 0e40 DA2C      		mov r13,r10
 3186               	.LVL323:
 3187 0e42 D40C      		add r13,r4
 3188               	.LM450:
 3189 0e44 182D      		mov r17,r8
 3190               	.LVL324:
 3191 0e46 150D      		add r17,r5
 3192 0e48 8C2D      		mov r24,r12
 3193 0e4a 6D2D      		mov r22,r13
 3194 0e4c 412F      		mov r20,r17
 3195 0e4e 0E94 0000 		call pixel
 3196 0e52 E42C      		mov r14,r4
 3197               	.LVL325:
 3198 0e54 EA18      		sub r14,r10
 3199               	.LM451:
 3200 0e56 8C2D      		mov r24,r12
 3201 0e58 6E2D      		mov r22,r14
 3202 0e5a 412F      		mov r20,r17
 3203 0e5c 0E94 0000 		call pixel
 3204               	.LM452:
 3205 0e60 152D      		mov r17,r5
 3206 0e62 1819      		sub r17,r8
 3207 0e64 8C2D      		mov r24,r12
 3208 0e66 6D2D      		mov r22,r13
 3209 0e68 412F      		mov r20,r17
 3210 0e6a 0E94 0000 		call pixel
 3211               	.LM453:
 3212 0e6e 8C2D      		mov r24,r12
 3213 0e70 6E2D      		mov r22,r14
 3214 0e72 412F      		mov r20,r17
 3215 0e74 0E94 0000 		call pixel
 3216               	.LM454:
 3217 0e78 E82C      		mov r14,r8
 3218 0e7a E40C      		add r14,r4
 3219 0e7c 1A2D      		mov r17,r10
 3220 0e7e 150D      		add r17,r5
 3221 0e80 8C2D      		mov r24,r12
 3222 0e82 6E2D      		mov r22,r14
 3223 0e84 412F      		mov r20,r17
 3224 0e86 0E94 0000 		call pixel
 3225               	.LM455:
 3226 0e8a 942D      		mov r25,r4
 3227 0e8c 9819      		sub r25,r8
 3228 0e8e 092F      		mov r16,r25
 3229 0e90 8C2D      		mov r24,r12
 3230 0e92 692F      		mov r22,r25
 3231 0e94 412F      		mov r20,r17
 3232 0e96 0E94 0000 		call pixel
 3233 0e9a 152D      		mov r17,r5
 3234 0e9c 1A19      		sub r17,r10
 3235               	.LM456:
 3236 0e9e 8C2D      		mov r24,r12
 3237 0ea0 6E2D      		mov r22,r14
 3238 0ea2 412F      		mov r20,r17
 3239 0ea4 0E94 0000 		call pixel
 3240               	.LM457:
 3241 0ea8 8C2D      		mov r24,r12
 3242 0eaa 602F      		mov r22,r16
 3243 0eac 412F      		mov r20,r17
 3244 0eae 0E94 0000 		call pixel
 3245               	.LM458:
 3246 0eb2 A814      		cp r10,r8
 3247 0eb4 B904      		cpc r11,r9
 3248               	.LVL326:
 3249 0eb6 04F4      		brge .+2
 3250 0eb8 00C0      		rjmp .L311
 3251               	.LVL327:
 3252               	.L310:
 3253               	/* epilogue start */
 3254               	.LM459:
 3255 0eba DF91      		pop r29
 3256 0ebc CF91      		pop r28
 3257               	.LVL328:
 3258 0ebe 1F91      		pop r17
 3259 0ec0 0F91      		pop r16
 3260 0ec2 FF90      		pop r15
 3261 0ec4 EF90      		pop r14
 3262               	.LVL329:
 3263 0ec6 DF90      		pop r13
 3264 0ec8 CF90      		pop r12
 3265               	.LVL330:
 3266 0eca BF90      		pop r11
 3267 0ecc AF90      		pop r10
 3268               	.LVL331:
 3269 0ece 9F90      		pop r9
 3270 0ed0 8F90      		pop r8
 3271               	.LVL332:
 3272 0ed2 7F90      		pop r7
 3273 0ed4 6F90      		pop r6
 3274               	.LVL333:
 3275 0ed6 5F90      		pop r5
 3276               	.LVL334:
 3277 0ed8 4F90      		pop r4
 3278               	.LVL335:
 3279 0eda 3F90      		pop r3
 3280 0edc 2F90      		pop r2
 3281               	.LVL336:
 3282 0ede 0895      		ret
 3283               	.LFE25:
 3285               	.global	EEPROM_write
 3287               	EEPROM_write:
 3288               	.LFB26:
 3289               	.LM460:
 3290               	/* prologue: function */
 3291               	/* frame size = 0 */
 3292               	.LVL337:
 3293               	.L313:
 3294               	.LM461:
 3295 0ee0 F999      		sbic 63-32,1
 3296 0ee2 00C0      		rjmp .L313
 3297               	.LM462:
 3298 0ee4 92BD      		out (65)+1-32,r25
 3299 0ee6 81BD      		out 65-32,r24
 3300               	.LM463:
 3301 0ee8 60BD      		out 64-32,r22
 3302               	.LM464:
 3303 0eea FA9A      		sbi 63-32,2
 3304               	.LM465:
 3305 0eec F99A      		sbi 63-32,1
 3306               	/* epilogue start */
 3307               	.LM466:
 3308 0eee 0895      		ret
 3309               	.LFE26:
 3311               	.global	EEPROM_read
 3313               	EEPROM_read:
 3314               	.LFB27:
 3315               	.LM467:
 3316               	/* prologue: function */
 3317               	/* frame size = 0 */
 3318               	.LVL338:
 3319               	.L317:
 3320               	.LM468:
 3321 0ef0 F999      		sbic 63-32,1
 3322 0ef2 00C0      		rjmp .L317
 3323               	.LM469:
 3324 0ef4 92BD      		out (65)+1-32,r25
 3325 0ef6 81BD      		out 65-32,r24
 3326               	.LM470:
 3327 0ef8 F89A      		sbi 63-32,0
 3328               	.LM471:
 3329 0efa 80B5      		in r24,64-32
 3330               	.LVL339:
 3331               	/* epilogue start */
 3332               	.LM472:
 3333 0efc 0895      		ret
 3334               	.LFE27:
 3336               	.global	set_backlight
 3338               	set_backlight:
 3339               	.LFB28:
 3340               	.LM473:
 3341               	.LVL340:
 3342               	/* prologue: function */
 3343               	/* frame size = 0 */
 3344               	.LM474:
 3345 0efe 22E0      		ldi r18,lo8(2)
 3346 0f00 24BD      		out 68-32,r18
 3347               	.LM475:
 3348 0f02 9091 0000 		lds r25,BL_dutycycle
 3349 0f06 9436      		cpi r25,lo8(100)
 3350 0f08 00F4      		brsh .L325
 3351               	.LM476:
 3352 0f0a 9923      		tst r25
 3353 0f0c 01F0      		breq .L326
 3354               	.LM477:
 3355 0f0e 15BC      		out 69-32,__zero_reg__
 3356               	.LM478:
 3357 0f10 1092 6E00 		sts 110,__zero_reg__
 3358               	.LM479:
 3359 0f14 84E6      		ldi r24,lo8(100)
 3360               	.LVL341:
 3361 0f16 891B      		sub r24,r25
 3362 0f18 87BD      		out 71-32,r24
 3363               	.LM480:
 3364 0f1a 2093 6E00 		sts 110,r18
 3365               	.LM481:
 3366 0f1e 25BD      		out 69-32,r18
 3367               	.LM482:
 3368 0f20 8FB7      		in r24,__SREG__
 3369 0f22 8068      		ori r24,lo8(-128)
 3370 0f24 8FBF      		out __SREG__,r24
 3371 0f26 0895      		ret
 3372               	.LVL342:
 3373               	.L326:
 3374               	.LM483:
 3375 0f28 15BC      		out 69-32,__zero_reg__
 3376               	.LM484:
 3377 0f2a 1092 6E00 		sts 110,__zero_reg__
 3378               	.LM485:
 3379 0f2e 1498      		cbi 34-32,4
 3380 0f30 0895      		ret
 3381               	.L325:
 3382               	.LM486:
 3383 0f32 15BC      		out 69-32,__zero_reg__
 3384               	.LM487:
 3385 0f34 1092 6E00 		sts 110,__zero_reg__
 3386               	.LM488:
 3387 0f38 149A      		sbi 34-32,4
 3388 0f3a 0895      		ret
 3389               	.LFE28:
 3391               	.global	draw_block
 3393               	draw_block:
 3394               	.LFB30:
 3395               	.LM489:
 3396               	.LVL343:
 3397 0f3c EF92      		push r14
 3398 0f3e FF92      		push r15
 3399 0f40 0F93      		push r16
 3400               	.LVL344:
 3401 0f42 DF93      		push r29
 3402 0f44 CF93      		push r28
 3403 0f46 0F92      		push __tmp_reg__
 3404 0f48 CDB7      		in r28,__SP_L__
 3405 0f4a DEB7      		in r29,__SP_H__
 3406               	/* prologue: function */
 3407               	/* frame size = 1 */
 3408 0f4c 522F      		mov r21,r18
 3409               	.LM490:
 3410 0f4e 4817      		cp r20,r24
 3411 0f50 00F4      		brsh .L328
 3412               	.LVL345:
 3413               	.LM491:
 3414 0f52 242F      		mov r18,r20
 3415 0f54 30E0      		ldi r19,lo8(0)
 3416 0f56 90E0      		ldi r25,lo8(0)
 3417               	.LVL346:
 3418 0f58 821B      		sub r24,r18
 3419 0f5a 930B      		sbc r25,r19
 3420               	.LVL347:
 3421 0f5c 9093 0000 		sts (width.2639)+1,r25
 3422 0f60 8093 0000 		sts width.2639,r24
 3423               	.LM492:
 3424 0f64 3093 0000 		sts (x.2641)+1,r19
 3425 0f68 2093 0000 		sts x.2641,r18
 3426               	.LM493:
 3427 0f6c 5617      		cp r21,r22
 3428 0f6e 00F0      		brlo .L333
 3429               	.LVL348:
 3430               	.L330:
 3431               	.LM494:
 3432 0f70 262F      		mov r18,r22
 3433 0f72 30E0      		ldi r19,lo8(0)
 3434 0f74 852F      		mov r24,r21
 3435               	.LVL349:
 3436 0f76 90E0      		ldi r25,lo8(0)
 3437               	.LVL350:
 3438 0f78 821B      		sub r24,r18
 3439 0f7a 930B      		sbc r25,r19
 3440               	.LVL351:
 3441 0f7c 9093 0000 		sts (height.2640)+1,r25
 3442 0f80 8093 0000 		sts height.2640,r24
 3443               	.LM495:
 3444 0f84 3093 0000 		sts (y.2642)+1,r19
 3445 0f88 2093 0000 		sts y.2642,r18
 3446               	.LVL352:
 3447               	.L331:
 3448               	.LM496:
 3449 0f8c 8091 0000 		lds r24,x.2641
 3450               	.LVL353:
 3451 0f90 6091 0000 		lds r22,y.2642
 3452               	.LVL354:
 3453 0f94 4091 0000 		lds r20,width.2639
 3454               	.LVL355:
 3455 0f98 2091 0000 		lds r18,height.2640
 3456               	.LM497:
 3457 0f9c 0983      		std Y+1,r16
 3458               	.LVL356:
 3459               	.LM498:
 3460 0f9e 06E0      		ldi r16,lo8(6)
 3461               	.LVL357:
 3462 0fa0 7E01      		movw r14,r28
 3463 0fa2 0894      		sec
 3464 0fa4 E11C      		adc r14,__zero_reg__
 3465 0fa6 F11C      		adc r15,__zero_reg__
 3466 0fa8 0E94 0000 		call bitblt
 3467               	.LVL358:
 3468               	/* epilogue start */
 3469               	.LM499:
 3470 0fac 0F90      		pop __tmp_reg__
 3471 0fae CF91      		pop r28
 3472 0fb0 DF91      		pop r29
 3473 0fb2 0F91      		pop r16
 3474 0fb4 FF90      		pop r15
 3475 0fb6 EF90      		pop r14
 3476 0fb8 0895      		ret
 3477               	.LVL359:
 3478               	.L328:
 3479               	.LM500:
 3480 0fba 282F      		mov r18,r24
 3481 0fbc 30E0      		ldi r19,lo8(0)
 3482 0fbe 842F      		mov r24,r20
 3483               	.LVL360:
 3484 0fc0 90E0      		ldi r25,lo8(0)
 3485               	.LVL361:
 3486 0fc2 821B      		sub r24,r18
 3487 0fc4 930B      		sbc r25,r19
 3488               	.LVL362:
 3489 0fc6 9093 0000 		sts (width.2639)+1,r25
 3490 0fca 8093 0000 		sts width.2639,r24
 3491               	.LM501:
 3492 0fce 3093 0000 		sts (x.2641)+1,r19
 3493 0fd2 2093 0000 		sts x.2641,r18
 3494               	.LM502:
 3495 0fd6 5617      		cp r21,r22
 3496 0fd8 00F4      		brsh .L330
 3497               	.LVL363:
 3498               	.L333:
 3499               	.LM503:
 3500 0fda 252F      		mov r18,r21
 3501 0fdc 30E0      		ldi r19,lo8(0)
 3502 0fde 862F      		mov r24,r22
 3503               	.LVL364:
 3504 0fe0 90E0      		ldi r25,lo8(0)
 3505               	.LVL365:
 3506 0fe2 821B      		sub r24,r18
 3507 0fe4 930B      		sbc r25,r19
 3508               	.LVL366:
 3509 0fe6 9093 0000 		sts (height.2640)+1,r25
 3510 0fea 8093 0000 		sts height.2640,r24
 3511               	.LM504:
 3512 0fee 3093 0000 		sts (y.2642)+1,r19
 3513 0ff2 2093 0000 		sts y.2642,r18
 3514 0ff6 00C0      		rjmp .L331
 3515               	.LFE30:
 3517               	.global	del_char
 3519               	del_char:
 3520               	.LFB29:
 3521               	.LM505:
 3522 0ff8 0F93      		push r16
 3523               	/* prologue: function */
 3524               	/* frame size = 0 */
 3525               	.LM506:
 3526 0ffa 3091 0000 		lds r19,x_offset
 3527 0ffe 4091 0000 		lds r20,font_w
 3528 1002 4317      		cp r20,r19
 3529 1004 00F0      		brlo .L335
 3530               	.LM507:
 3531 1006 242F      		mov r18,r20
 3532 1008 2095      		com r18
 3533 100a 2058      		subi r18,lo8(-(-128))
 3534 100c 642F      		mov r22,r20
 3535 100e 70E0      		ldi r23,lo8(0)
 3536 1010 6F5F      		subi r22,lo8(-(1))
 3537 1012 7F4F      		sbci r23,hi8(-(1))
 3538 1014 80E8      		ldi r24,lo8(128)
 3539 1016 90E0      		ldi r25,hi8(128)
 3540 1018 831B      		sub r24,r19
 3541 101a 9109      		sbc r25,__zero_reg__
 3542 101c 0E94 0000 		call __divmodhi4
 3543 1020 281B      		sub r18,r24
 3544 1022 2093 0000 		sts x_offset,r18
 3545               	.LM508:
 3546 1026 5091 0000 		lds r21,y_offset
 3547 102a 3091 0000 		lds r19,font_h
 3548 102e 5317      		cp r21,r19
 3549 1030 00F4      		brsh .L336
 3550               	.LM509:
 3551 1032 232F      		mov r18,r19
 3552 1034 2195      		neg r18
 3553 1036 205C      		subi r18,lo8(-(64))
 3554 1038 80E4      		ldi r24,lo8(64)
 3555 103a 90E0      		ldi r25,hi8(64)
 3556 103c 851B      		sub r24,r21
 3557 103e 9109      		sbc r25,__zero_reg__
 3558 1040 632F      		mov r22,r19
 3559 1042 70E0      		ldi r23,lo8(0)
 3560 1044 0E94 0000 		call __divmodhi4
 3561 1048 281B      		sub r18,r24
 3562 104a 2093 0000 		sts y_offset,r18
 3563               	.LM510:
 3564 104e 8091 0000 		lds r24,reverse
 3565 1052 8130      		cpi r24,lo8(1)
 3566 1054 01F4      		brne .L338
 3567               	.L341:
 3568 1056 0FEF      		ldi r16,lo8(-1)
 3569               	.LVL367:
 3570 1058 00C0      		rjmp .L339
 3571               	.LVL368:
 3572               	.L335:
 3573               	.LM511:
 3574 105a 842F      		mov r24,r20
 3575 105c 8095      		com r24
 3576 105e 830F      		add r24,r19
 3577 1060 8093 0000 		sts x_offset,r24
 3578 1064 3091 0000 		lds r19,font_h
 3579               	.L337:
 3580               	.LM512:
 3581 1068 8091 0000 		lds r24,reverse
 3582 106c 8130      		cpi r24,lo8(1)
 3583 106e 01F0      		breq .L341
 3584               	.L338:
 3585 1070 00E0      		ldi r16,lo8(0)
 3586               	.LVL369:
 3587               	.L339:
 3588               	.LM513:
 3589 1072 8091 0000 		lds r24,x_offset
 3590 1076 6091 0000 		lds r22,y_offset
 3591 107a 480F      		add r20,r24
 3592 107c 360F      		add r19,r22
 3593 107e 3150      		subi r19,lo8(-(-1))
 3594 1080 232F      		mov r18,r19
 3595 1082 0E94 0000 		call draw_block
 3596               	/* epilogue start */
 3597               	.LM514:
 3598 1086 0F91      		pop r16
 3599               	.LVL370:
 3600 1088 0895      		ret
 3601               	.L336:
 3602               	.LM515:
 3603 108a 531B      		sub r21,r19
 3604 108c 5093 0000 		sts y_offset,r21
 3605 1090 00C0      		rjmp .L337
 3606               	.LFE29:
 3608               	.global	box
 3610               	box:
 3611               	.LFB31:
 3612               	.LM516:
 3613               	.LVL371:
 3614 1092 DF92      		push r13
 3615 1094 EF92      		push r14
 3616 1096 FF92      		push r15
 3617 1098 0F93      		push r16
 3618 109a 1F93      		push r17
 3619               	/* prologue: function */
 3620               	/* frame size = 0 */
 3621 109c F82E      		mov r15,r24
 3622 109e D62E      		mov r13,r22
 3623 10a0 E42E      		mov r14,r20
 3624 10a2 122F      		mov r17,r18
 3625               	.LM517:
 3626 10a4 81E0      		ldi r24,lo8(1)
 3627               	.LVL372:
 3628 10a6 642F      		mov r22,r20
 3629               	.LVL373:
 3630 10a8 422F      		mov r20,r18
 3631               	.LVL374:
 3632 10aa 2E2D      		mov r18,r14
 3633               	.LVL375:
 3634 10ac 0D2D      		mov r16,r13
 3635 10ae 0E94 0000 		call line
 3636               	.LM518:
 3637 10b2 81E0      		ldi r24,lo8(1)
 3638 10b4 6F2D      		mov r22,r15
 3639 10b6 412F      		mov r20,r17
 3640 10b8 2E2D      		mov r18,r14
 3641 10ba 012F      		mov r16,r17
 3642 10bc 0E94 0000 		call line
 3643               	.LM519:
 3644 10c0 81E0      		ldi r24,lo8(1)
 3645 10c2 6F2D      		mov r22,r15
 3646 10c4 412F      		mov r20,r17
 3647 10c6 2F2D      		mov r18,r15
 3648 10c8 0D2D      		mov r16,r13
 3649 10ca 0E94 0000 		call line
 3650               	.LM520:
 3651 10ce 81E0      		ldi r24,lo8(1)
 3652 10d0 6F2D      		mov r22,r15
 3653 10d2 4D2D      		mov r20,r13
 3654 10d4 2E2D      		mov r18,r14
 3655 10d6 0E94 0000 		call line
 3656               	/* epilogue start */
 3657               	.LM521:
 3658 10da 1F91      		pop r17
 3659               	.LVL376:
 3660 10dc 0F91      		pop r16
 3661 10de FF90      		pop r15
 3662               	.LVL377:
 3663 10e0 EF90      		pop r14
 3664               	.LVL378:
 3665 10e2 DF90      		pop r13
 3666               	.LVL379:
 3667 10e4 0895      		ret
 3668               	.LFE31:
 3670               	.global	draw_sprite
 3672               	draw_sprite:
 3673               	.LFB32:
 3674               	.LM522:
 3675               	.LVL380:
 3676 10e6 EF92      		push r14
 3677 10e8 FF92      		push r15
 3678 10ea 0F93      		push r16
 3679               	/* prologue: function */
 3680               	/* frame size = 0 */
 3681 10ec 022F      		mov r16,r18
 3682               	.LM523:
 3683 10ee 92E4      		ldi r25,lo8(66)
 3684 10f0 499F      		mul r20,r25
 3685 10f2 A001      		movw r20,r0
 3686 10f4 1124      		clr r1
 3687               	.LVL381:
 3688               	.LM524:
 3689 10f6 E0E0      		ldi r30,lo8(sprite)
 3690 10f8 F0E0      		ldi r31,hi8(sprite)
 3691 10fa DF01      		movw r26,r30
 3692 10fc A40F      		add r26,r20
 3693 10fe B51F      		adc r27,r21
 3694 1100 4E5F      		subi r20,lo8(-(2))
 3695 1102 5F4F      		sbci r21,hi8(-(2))
 3696 1104 E40F      		add r30,r20
 3697 1106 F51F      		adc r31,r21
 3698 1108 4C91      		ld r20,X
 3699               	.LVL382:
 3700 110a 1196      		adiw r26,1
 3701 110c 2C91      		ld r18,X
 3702               	.LVL383:
 3703 110e 7F01      		movw r14,r30
 3704 1110 0E94 0000 		call bitblt
 3705               	.LVL384:
 3706               	/* epilogue start */
 3707               	.LM525:
 3708 1114 0F91      		pop r16
 3709               	.LVL385:
 3710 1116 FF90      		pop r15
 3711 1118 EF90      		pop r14
 3712 111a 0895      		ret
 3713               	.LFE32:
 3715               	.global	set_baud
 3717               	set_baud:
 3718               	.LFB33:
 3719               	.LM526:
 3720               	.LVL386:
 3721               	/* prologue: function */
 3722               	/* frame size = 0 */
 3723               	.LM527:
 3724 111c 8130      		cpi r24,lo8(1)
 3725 111e 01F0      		breq .L354
 3726               	.LM528:
 3727 1120 8230      		cpi r24,lo8(2)
 3728 1122 01F0      		breq .L355
 3729               	.LM529:
 3730 1124 8330      		cpi r24,lo8(3)
 3731 1126 01F0      		breq .L356
 3732               	.LM530:
 3733 1128 8430      		cpi r24,lo8(4)
 3734 112a 01F0      		breq .L357
 3735               	.LM531:
 3736 112c 8530      		cpi r24,lo8(5)
 3737 112e 01F0      		breq .L358
 3738               	.LM532:
 3739 1130 8630      		cpi r24,lo8(6)
 3740 1132 01F0      		breq .L359
 3741 1134 0895      		ret
 3742               	.L359:
 3743 1136 84E1      		ldi r24,lo8(20)
 3744 1138 90E0      		ldi r25,hi8(20)
 3745               	.LVL387:
 3746 113a 0E94 0000 		call USART_Init
 3747 113e 0895      		ret
 3748               	.LVL388:
 3749               	.L358:
 3750               	.LM533:
 3751 1140 8AE2      		ldi r24,lo8(42)
 3752 1142 90E0      		ldi r25,hi8(42)
 3753               	.LVL389:
 3754 1144 0E94 0000 		call USART_Init
 3755 1148 0895      		ret
 3756               	.LVL390:
 3757               	.L354:
 3758               	.LM534:
 3759 114a 87E0      		ldi r24,lo8(519)
 3760 114c 92E0      		ldi r25,hi8(519)
 3761               	.LVL391:
 3762 114e 0E94 0000 		call USART_Init
 3763 1152 0895      		ret
 3764               	.LVL392:
 3765               	.L355:
 3766               	.LM535:
 3767 1154 83E0      		ldi r24,lo8(259)
 3768 1156 91E0      		ldi r25,hi8(259)
 3769               	.LVL393:
 3770 1158 0E94 0000 		call USART_Init
 3771 115c 0895      		ret
 3772               	.LVL394:
 3773               	.L356:
 3774               	.LM536:
 3775 115e 81E8      		ldi r24,lo8(129)
 3776 1160 90E0      		ldi r25,hi8(129)
 3777               	.LVL395:
 3778 1162 0E94 0000 		call USART_Init
 3779 1166 0895      		ret
 3780               	.LVL396:
 3781               	.L357:
 3782               	.LM537:
 3783 1168 80E4      		ldi r24,lo8(64)
 3784 116a 90E0      		ldi r25,hi8(64)
 3785               	.LVL397:
 3786 116c 0E94 0000 		call USART_Init
 3787 1170 0895      		ret
 3788               	.LFE33:
 3790               	.global	LCD_reset
 3792               	LCD_reset:
 3793               	.LFB34:
 3794               	.LM538:
 3795               	/* prologue: function */
 3796               	/* frame size = 0 */
 3797               	.LM539:
 3798 1172 1BB8      		out 43-32,__zero_reg__
 3799               	.LM540:
 3800 1174 8CE3      		ldi r24,lo8(60)
 3801 1176 90E0      		ldi r25,hi8(60)
 3802 1178 0E94 0000 		call delay_ms
 3803               	.LM541:
 3804 117c 80E2      		ldi r24,lo8(32)
 3805 117e 8BB9      		out 43-32,r24
 3806               	.LM542:
 3807 1180 8CE3      		ldi r24,lo8(60)
 3808 1182 90E0      		ldi r25,hi8(60)
 3809 1184 0E94 0000 		call delay_ms
 3810               	.LM543:
 3811 1188 80E0      		ldi r24,lo8(0)
 3812 118a 0E94 0000 		call clear_screen
 3813               	.LM544:
 3814 118e 8FE3      		ldi r24,lo8(63)
 3815 1190 60E0      		ldi r22,lo8(0)
 3816 1192 0E94 0000 		call write_command_LCD
 3817               	.LM545:
 3818 1196 88EB      		ldi r24,lo8(-72)
 3819 1198 60E0      		ldi r22,lo8(0)
 3820 119a 0E94 0000 		call write_command_LCD
 3821               	.LM546:
 3822 119e 80E4      		ldi r24,lo8(64)
 3823 11a0 60E0      		ldi r22,lo8(0)
 3824 11a2 0E94 0000 		call write_command_LCD
 3825               	.LM547:
 3826 11a6 80EC      		ldi r24,lo8(-64)
 3827 11a8 60E0      		ldi r22,lo8(0)
 3828 11aa 0E94 0000 		call write_command_LCD
 3829               	.LM548:
 3830 11ae 1092 0000 		sts x_offset,__zero_reg__
 3831               	.LM549:
 3832 11b2 88EB      		ldi r24,lo8(-72)
 3833 11b4 60E0      		ldi r22,lo8(0)
 3834 11b6 0E94 0000 		call write_command_LCD
 3835               	/* epilogue start */
 3836               	.LM550:
 3837 11ba 0895      		ret
 3838               	.LFE34:
 3840               		.data
 3841               	.LC0:
 3842 0000 456E 7465 		.string	"Entered Command %d\n"
 3842      7265 6420 
 3842      436F 6D6D 
 3842      616E 6420 
 3842      2564 0A00 
 3843               	.LC1:
 3844 0014 2564 0A00 		.string	"%d\n"
 3845               	.LC2:
 3846 0018 4578 6974 		.string	"Exited Command, RX_buffer=%d\n\n"
 3846      6564 2043 
 3846      6F6D 6D61 
 3846      6E64 2C20 
 3846      5258 5F62 
 3847               		.text
 3848               	.global	main
 3850               	main:
 3851               	.LFB6:
 3852               	.LM551:
 3853 11bc 2F92      		push r2
 3854 11be 3F92      		push r3
 3855 11c0 4F92      		push r4
 3856 11c2 5F92      		push r5
 3857 11c4 6F92      		push r6
 3858 11c6 7F92      		push r7
 3859 11c8 8F92      		push r8
 3860 11ca 9F92      		push r9
 3861 11cc AF92      		push r10
 3862 11ce BF92      		push r11
 3863 11d0 CF92      		push r12
 3864 11d2 DF92      		push r13
 3865 11d4 EF92      		push r14
 3866 11d6 FF92      		push r15
 3867 11d8 0F93      		push r16
 3868 11da 1F93      		push r17
 3869 11dc DF93      		push r29
 3870 11de CF93      		push r28
 3871 11e0 CDB7      		in r28,__SP_L__
 3872 11e2 DEB7      		in r29,__SP_H__
 3873 11e4 2E97      		sbiw r28,14
 3874 11e6 0FB6      		in __tmp_reg__,__SREG__
 3875 11e8 F894      		cli
 3876 11ea DEBF      		out __SP_H__,r29
 3877 11ec 0FBE      		out __SREG__,__tmp_reg__
 3878 11ee CDBF      		out __SP_L__,r28
 3879               	/* prologue: function */
 3880               	/* frame size = 14 */
 3881               	.LM552:
 3882 11f0 0E94 0000 		call ioinit
 3883               	.LM553:
 3884 11f4 86E0      		ldi r24,lo8(6)
 3885 11f6 0E94 0000 		call set_baud
 3886               	.LM554:
 3887 11fa 80E0      		ldi r24,lo8(gs(put_char))
 3888 11fc 90E0      		ldi r25,hi8(gs(put_char))
 3889 11fe 0E94 0000 		call rprintf_devopen
 3890               	.L363:
 3891               	.LBB187:
 3892               	.LBB188:
 3893               	.LM555:
 3894 1202 8091 C000 		lds r24,192
 3895 1206 85FF      		sbrs r24,5
 3896 1208 00C0      		rjmp .L363
 3897               	.LM556:
 3898 120a 81E1      		ldi r24,lo8(17)
 3899 120c 8093 C600 		sts 198,r24
 3900               	.LBE188:
 3901               	.LBE187:
 3902               	.LM557:
 3903 1210 8AE0      		ldi r24,lo8(10)
 3904 1212 8093 0000 		sts BL_dutycycle,r24
 3905               	.LM558:
 3906 1216 86E0      		ldi r24,lo8(6)
 3907 1218 8093 0000 		sts baud_rate,r24
 3908               	.LM559:
 3909 121c 81E0      		ldi r24,lo8(1)
 3910 121e 8093 0000 		sts splash_screen,r24
 3911               	.LM560:
 3912 1222 1092 0000 		sts reverse,__zero_reg__
 3913               	.LM561:
 3914 1226 1092 0000 		sts debug_msg,__zero_reg__
 3915               	.LM562:
 3916 122a 8093 0000 		sts CR_LF,r24
 3917               	.LBB189:
 3918               	.LM563:
 3919 122e E0E0      		ldi r30,lo8(text_array)
 3920 1230 F0E0      		ldi r31,hi8(text_array)
 3921               	/* #APP */
 3922               	 ;  307 "main.c" 1
 3923 1232 8491      		lpm r24, Z
 3924               		
 3925               	 ;  0 "" 2
 3926               	.LVL398:
 3927               	/* #NOAPP */
 3928               	.LBE189:
 3929 1234 8093 0000 		sts font_w,r24
 3930               	.LBB190:
 3931               	.LM564:
 3932 1238 7F01      		movw r14,r30
 3933               	.LVL399:
 3934 123a 0894      		sec
 3935 123c E11C      		adc r14,__zero_reg__
 3936 123e F11C      		adc r15,__zero_reg__
 3937 1240 F701      		movw r30,r14
 3938               	/* #APP */
 3939               	 ;  308 "main.c" 1
 3940 1242 8491      		lpm r24, Z
 3941               		
 3942               	 ;  0 "" 2
 3943               	.LVL400:
 3944               	/* #NOAPP */
 3945               	.LBE190:
 3946 1244 8093 0000 		sts font_h,r24
 3947               	.LBB191:
 3948               	.LM565:
 3949 1248 00E0      		ldi r16,lo8(text_array)
 3950 124a 10E0      		ldi r17,hi8(text_array)
 3951               	.LVL401:
 3952 124c 0E5F      		subi r16,lo8(-(2))
 3953 124e 1F4F      		sbci r17,hi8(-(2))
 3954 1250 F801      		movw r30,r16
 3955               	/* #APP */
 3956               	 ;  309 "main.c" 1
 3957 1252 2491      		lpm r18, Z
 3958               		
 3959               	 ;  0 "" 2
 3960               	.LVL402:
 3961               	/* #NOAPP */
 3962               	.LBE191:
 3963 1254 2093 0000 		sts font_space,r18
 3964               	.LM566:
 3965 1258 282F      		mov r18,r24
 3966               	.LVL403:
 3967 125a 2695      		lsr r18
 3968 125c 2695      		lsr r18
 3969 125e 2695      		lsr r18
 3970 1260 2093 0000 		sts font_bytes,r18
 3971               	.LM567:
 3972 1264 90E0      		ldi r25,lo8(0)
 3973 1266 8770      		andi r24,lo8(7)
 3974 1268 9070      		andi r25,hi8(7)
 3975               	.LVL404:
 3976 126a 892B      		or r24,r25
 3977 126c 01F0      		breq .L364
 3978               	.LM568:
 3979 126e 2F5F      		subi r18,lo8(-(1))
 3980 1270 2093 0000 		sts font_bytes,r18
 3981               	.L364:
 3982               	.LM569:
 3983 1274 8091 0000 		lds r24,font_bytes
 3984 1278 9091 0000 		lds r25,font_w
 3985 127c 899F      		mul r24,r25
 3986 127e 802D      		mov r24,r0
 3987 1280 1124      		clr r1
 3988 1282 8093 0000 		sts font_bytes,r24
 3989               	.LM570:
 3990 1286 0E94 0000 		call LCD_reset
 3991               	.LM571:
 3992 128a 8091 0000 		lds r24,BL_dutycycle
 3993 128e 0E94 0000 		call set_backlight
 3994               	.LM572:
 3995 1292 84EF      		ldi r24,lo8(500)
 3996 1294 91E0      		ldi r25,hi8(500)
 3997 1296 0E94 0000 		call delay_ms
 3998               	.LM573:
 3999 129a 8091 0000 		lds r24,splash_screen
 4000 129e 8130      		cpi r24,lo8(1)
 4001 12a0 01F4      		brne .+2
 4002 12a2 00C0      		rjmp .L509
 4003               	.L365:
 4004               	.LM574:
 4005               	/* #APP */
 4006               	 ;  330 "main.c" 1
 4007 12a4 F894      		cli
 4008               	 ;  0 "" 2
 4009               	.LM575:
 4010               	/* #NOAPP */
 4011 12a6 1092 0000 		sts RX_in,__zero_reg__
 4012               	.LM576:
 4013 12aa 1092 0000 		sts (RX_read)+1,__zero_reg__
 4014 12ae 1092 0000 		sts RX_read,__zero_reg__
 4015               	.LM577:
 4016 12b2 1092 0000 		sts RX_bytes,__zero_reg__
 4017               	.LM578:
 4018               	/* #APP */
 4019               	 ;  334 "main.c" 1
 4020 12b6 7894      		sei
 4021               	 ;  0 "" 2
 4022               	.LM579:
 4023               	/* #NOAPP */
 4024 12b8 88EE      		ldi r24,lo8(1000)
 4025 12ba 93E0      		ldi r25,hi8(1000)
 4026 12bc 0E94 0000 		call delay_ms
 4027               	.LM580:
 4028 12c0 80E0      		ldi r24,lo8(0)
 4029 12c2 0E94 0000 		call clear_screen
 4030               	.LM581:
 4031 12c6 8091 0000 		lds r24,RX_in
 4032 12ca 8823      		tst r24
 4033 12cc 01F4      		brne .+2
 4034 12ce 00C0      		rjmp .L366
 4035               	.LM582:
 4036 12d0 81E3      		ldi r24,lo8(49)
 4037 12d2 0E94 0000 		call print_char
 4038               	.LM583:
 4039 12d6 81E3      		ldi r24,lo8(49)
 4040 12d8 0E94 0000 		call print_char
 4041               	.LM584:
 4042 12dc 85E3      		ldi r24,lo8(53)
 4043 12de 0E94 0000 		call print_char
 4044               	.LM585:
 4045 12e2 82E3      		ldi r24,lo8(50)
 4046 12e4 0E94 0000 		call print_char
 4047               	.LM586:
 4048 12e8 80E3      		ldi r24,lo8(48)
 4049 12ea 0E94 0000 		call print_char
 4050               	.LM587:
 4051 12ee 80E3      		ldi r24,lo8(48)
 4052 12f0 0E94 0000 		call print_char
 4053               	.LM588:
 4054 12f4 86E0      		ldi r24,lo8(6)
 4055 12f6 8093 0000 		sts baud_rate,r24
 4056               	.LM589:
 4057 12fa 0E94 0000 		call set_baud
 4058               	.LM590:
 4059               	/* #APP */
 4060               	 ;  351 "main.c" 1
 4061 12fe F894      		cli
 4062               	 ;  0 "" 2
 4063               	.LM591:
 4064               	/* #NOAPP */
 4065 1300 80E0      		ldi r24,lo8(0)
 4066 1302 90E0      		ldi r25,hi8(0)
 4067 1304 66E0      		ldi r22,lo8(6)
 4068 1306 0E94 0000 		call EEPROM_write
 4069               	.LM592:
 4070               	/* #APP */
 4071               	 ;  355 "main.c" 1
 4072 130a 7894      		sei
 4073               	 ;  0 "" 2
 4074               	/* #NOAPP */
 4075               	.L367:
 4076               	.LM593:
 4077 130c 88EE      		ldi r24,lo8(1000)
 4078 130e 93E0      		ldi r25,hi8(1000)
 4079 1310 0E94 0000 		call delay_ms
 4080               	.LM594:
 4081 1314 80E0      		ldi r24,lo8(0)
 4082 1316 0E94 0000 		call clear_screen
 4083               	.LM595:
 4084               	/* #APP */
 4085               	 ;  365 "main.c" 1
 4086 131a F894      		cli
 4087               	 ;  0 "" 2
 4088               	.LM596:
 4089               	/* #NOAPP */
 4090 131c 1092 0000 		sts (RX_read)+1,__zero_reg__
 4091 1320 1092 0000 		sts RX_read,__zero_reg__
 4092               	.LM597:
 4093 1324 1092 0000 		sts RX_in,__zero_reg__
 4094               	.LM598:
 4095 1328 1092 0000 		sts RX_bytes,__zero_reg__
 4096               	.LM599:
 4097               	/* #APP */
 4098               	 ;  369 "main.c" 1
 4099 132c 7894      		sei
 4100               	 ;  0 "" 2
 4101               	/* #NOAPP */
 4102 132e E0E0      		ldi r30,lo8(.LC0)
 4103 1330 AE2E      		mov r10,r30
 4104 1332 E0E0      		ldi r30,hi8(.LC0)
 4105 1334 BE2E      		mov r11,r30
 4106 1336 E0E0      		ldi r30,lo8(aux_text_array)
 4107 1338 F0E0      		ldi r31,hi8(aux_text_array)
 4108 133a CF01      		movw r24,r30
 4109 133c 0296      		adiw r24,2
 4110 133e 70E0      		ldi r23,lo8(.LC1)
 4111 1340 872E      		mov r8,r23
 4112 1342 70E0      		ldi r23,hi8(.LC1)
 4113 1344 972E      		mov r9,r23
 4114 1346 60E0      		ldi r22,lo8(.LC2)
 4115 1348 662E      		mov r6,r22
 4116 134a 60E0      		ldi r22,hi8(.LC2)
 4117 134c 762E      		mov r7,r22
 4118               	.LBB192:
 4119               	.LBB193:
 4120               	.LM600:
 4121 134e 5AE0      		ldi r21,lo8(10)
 4122 1350 C52E      		mov r12,r21
 4123               	.LBE193:
 4124               	.LBE192:
 4125               	.LBB195:
 4126               	.LBB196:
 4127 1352 4DE0      		ldi r20,lo8(13)
 4128 1354 542E      		mov r5,r20
 4129               	.LBE196:
 4130               	.LBE195:
 4131               	.LM601:
 4132 1356 3FE7      		ldi r19,lo8(127)
 4133 1358 432E      		mov r4,r19
 4134               	.LM602:
 4135 135a 2FE9      		ldi r18,lo8(-97)
 4136 135c 322E      		mov r3,r18
 4137               	.LM603:
 4138 135e 2224      		clr r2
 4139 1360 2394      		inc r2
 4140               	.LBB198:
 4141               	.LM604:
 4142               	/* #APP */
 4143               	 ;  548 "main.c" 1
 4144 1362 2491      		lpm r18, Z
 4145               		
 4146               	 ;  0 "" 2
 4147               	/* #NOAPP */
 4148 1364 2983      		std Y+1,r18
 4149 1366 3196      		adiw r30,1
 4150               	.LBE198:
 4151               	.LBB199:
 4152               	.LM605:
 4153               	/* #APP */
 4154               	 ;  549 "main.c" 1
 4155 1368 A491      		lpm r26, Z
 4156               		
 4157               	 ;  0 "" 2
 4158               	/* #NOAPP */
 4159 136a AA83      		std Y+2,r26
 4160               	.LBE199:
 4161               	.LBB200:
 4162               	.LM606:
 4163 136c FC01      		movw r30,r24
 4164               	/* #APP */
 4165               	 ;  550 "main.c" 1
 4166 136e F491      		lpm r31, Z
 4167               		
 4168               	 ;  0 "" 2
 4169               	/* #NOAPP */
 4170 1370 FB83      		std Y+3,r31
 4171               	.LBE200:
 4172               	.LM607:
 4173 1372 A695      		lsr r26
 4174 1374 A695      		lsr r26
 4175 1376 A695      		lsr r26
 4176 1378 AC83      		std Y+4,r26
 4177               	.LM608:
 4178 137a 9A81      		ldd r25,Y+2
 4179 137c 892F      		mov r24,r25
 4180 137e 90E0      		ldi r25,lo8(0)
 4181 1380 8770      		andi r24,lo8(7)
 4182 1382 9070      		andi r25,hi8(7)
 4183 1384 9E83      		std Y+6,r25
 4184 1386 8D83      		std Y+5,r24
 4185               	.LM609:
 4186 1388 AF5F      		subi r26,lo8(-(1))
 4187 138a AF83      		std Y+7,r26
 4188               	.LBB201:
 4189               	.LM610:
 4190 138c E0E0      		ldi r30,lo8(text_array)
 4191 138e F0E0      		ldi r31,hi8(text_array)
 4192               	/* #APP */
 4193               	 ;  536 "main.c" 1
 4194 1390 F491      		lpm r31, Z
 4195               		
 4196               	 ;  0 "" 2
 4197               	/* #NOAPP */
 4198 1392 F887      		std Y+8,r31
 4199               	.LBE201:
 4200               	.LBB202:
 4201               	.LM611:
 4202 1394 F701      		movw r30,r14
 4203               	/* #APP */
 4204               	 ;  537 "main.c" 1
 4205 1396 F491      		lpm r31, Z
 4206               		
 4207               	 ;  0 "" 2
 4208               	/* #NOAPP */
 4209 1398 F987      		std Y+9,r31
 4210               	.LBE202:
 4211               	.LBB203:
 4212               	.LM612:
 4213 139a F801      		movw r30,r16
 4214               	/* #APP */
 4215               	 ;  538 "main.c" 1
 4216 139c F491      		lpm r31, Z
 4217               		
 4218               	 ;  0 "" 2
 4219               	/* #NOAPP */
 4220 139e FA87      		std Y+10,r31
 4221               	.LBE203:
 4222               	.LM613:
 4223 13a0 2985      		ldd r18,Y+9
 4224 13a2 2695      		lsr r18
 4225 13a4 2695      		lsr r18
 4226 13a6 2695      		lsr r18
 4227 13a8 2B87      		std Y+11,r18
 4228               	.LM614:
 4229 13aa 9985      		ldd r25,Y+9
 4230 13ac 892F      		mov r24,r25
 4231 13ae 90E0      		ldi r25,lo8(0)
 4232 13b0 8770      		andi r24,lo8(7)
 4233 13b2 9070      		andi r25,hi8(7)
 4234 13b4 9D87      		std Y+13,r25
 4235 13b6 8C87      		std Y+12,r24
 4236               	.LM615:
 4237 13b8 2F5F      		subi r18,lo8(-(1))
 4238 13ba 2E87      		std Y+14,r18
 4239               	.LVL405:
 4240               	.L504:
 4241               	.LM616:
 4242 13bc 8091 0000 		lds r24,RX_bytes
 4243 13c0 8823      		tst r24
 4244 13c2 01F0      		breq .+2
 4245 13c4 00C0      		rjmp .L510
 4246               	.LVL406:
 4247               	.L368:
 4248               	.LM617:
 4249 13c6 20B1      		in r18,32-32
 4250               	.LVL407:
 4251               	.LM618:
 4252 13c8 83B1      		in r24,35-32
 4253               	.LVL408:
 4254               	.LM619:
 4255 13ca 982F      		mov r25,r24
 4256 13cc 80FF      		sbrs r24,0
 4257 13ce 00C0      		rjmp .L447
 4258               	.LVL409:
 4259               	.L512:
 4260               	.LM620:
 4261 13d0 1092 0000 		sts debounce,__zero_reg__
 4262               	.LM621:
 4263 13d4 8091 0000 		lds r24,buttons
 4264 13d8 8E7F      		andi r24,lo8(-2)
 4265 13da 8093 0000 		sts buttons,r24
 4266               	.L448:
 4267               	.LM622:
 4268 13de 91FF      		sbrs r25,1
 4269 13e0 00C0      		rjmp .L449
 4270               	.L513:
 4271               	.LM623:
 4272 13e2 1092 0000 		sts debounce+1,__zero_reg__
 4273               	.LM624:
 4274 13e6 8091 0000 		lds r24,buttons
 4275 13ea 8D7F      		andi r24,lo8(-3)
 4276 13ec 8093 0000 		sts buttons,r24
 4277               	.L450:
 4278               	.LM625:
 4279 13f0 92FF      		sbrs r25,2
 4280 13f2 00C0      		rjmp .L451
 4281               	.L514:
 4282               	.LM626:
 4283 13f4 1092 0000 		sts debounce+2,__zero_reg__
 4284               	.LM627:
 4285 13f8 8091 0000 		lds r24,buttons
 4286 13fc 8B7F      		andi r24,lo8(-5)
 4287 13fe 8093 0000 		sts buttons,r24
 4288               	.L452:
 4289               	.LM628:
 4290 1402 93FF      		sbrs r25,3
 4291 1404 00C0      		rjmp .L453
 4292               	.L515:
 4293               	.LM629:
 4294 1406 1092 0000 		sts debounce+3,__zero_reg__
 4295               	.LM630:
 4296 140a 8091 0000 		lds r24,buttons
 4297 140e 877F      		andi r24,lo8(-9)
 4298 1410 8093 0000 		sts buttons,r24
 4299               	.L454:
 4300               	.LM631:
 4301 1414 94FF      		sbrs r25,4
 4302 1416 00C0      		rjmp .L455
 4303               	.L516:
 4304               	.LM632:
 4305 1418 1092 0000 		sts debounce+4,__zero_reg__
 4306               	.LM633:
 4307 141c 8091 0000 		lds r24,buttons
 4308 1420 8F7E      		andi r24,lo8(-17)
 4309 1422 8093 0000 		sts buttons,r24
 4310               	.L456:
 4311               	.LM634:
 4312 1426 922F      		mov r25,r18
 4313 1428 20FF      		sbrs r18,0
 4314 142a 00C0      		rjmp .L457
 4315               	.LVL410:
 4316               	.L517:
 4317               	.LM635:
 4318 142c 1092 0000 		sts debounce+5,__zero_reg__
 4319               	.LM636:
 4320 1430 8091 0000 		lds r24,buttons
 4321 1434 8F7D      		andi r24,lo8(-33)
 4322 1436 8093 0000 		sts buttons,r24
 4323               	.L458:
 4324               	.LM637:
 4325 143a 91FF      		sbrs r25,1
 4326 143c 00C0      		rjmp .L459
 4327               	.L518:
 4328               	.LM638:
 4329 143e 1092 0000 		sts debounce+6,__zero_reg__
 4330               	.LM639:
 4331 1442 8091 0000 		lds r24,buttons
 4332 1446 8F7B      		andi r24,lo8(-65)
 4333 1448 8093 0000 		sts buttons,r24
 4334               	.L460:
 4335               	.LM640:
 4336 144c 92FF      		sbrs r25,2
 4337 144e 00C0      		rjmp .L461
 4338               	.L519:
 4339               	.LM641:
 4340 1450 1092 0000 		sts debounce+7,__zero_reg__
 4341               	.LM642:
 4342 1454 8091 0000 		lds r24,buttons
 4343 1458 8F77      		andi r24,lo8(127)
 4344 145a 8093 0000 		sts buttons,r24
 4345               	.L462:
 4346               	.LM643:
 4347 145e 9091 0000 		lds r25,RGB_counter
 4348 1462 9F5F      		subi r25,lo8(-(1))
 4349 1464 9093 0000 		sts RGB_counter,r25
 4350               	.LM644:
 4351 1468 8091 0000 		lds r24,RGB_red
 4352 146c 9817      		cp r25,r24
 4353 146e 00F0      		brlo .+2
 4354 1470 00C0      		rjmp .L463
 4355               	.LM645:
 4356 1472 1798      		cbi 34-32,7
 4357               	.L464:
 4358               	.LM646:
 4359 1474 8091 0000 		lds r24,RGB_green
 4360 1478 9817      		cp r25,r24
 4361 147a 00F0      		brlo .+2
 4362 147c 00C0      		rjmp .L465
 4363               	.LM647:
 4364 147e 1598      		cbi 34-32,5
 4365               	.L466:
 4366               	.LM648:
 4367 1480 8091 0000 		lds r24,RGB_blue
 4368 1484 9817      		cp r25,r24
 4369 1486 00F0      		brlo .+2
 4370 1488 00C0      		rjmp .L467
 4371               	.LM649:
 4372 148a 1698      		cbi 34-32,6
 4373               	.LM650:
 4374 148c 8091 0000 		lds r24,RX_bytes
 4375 1490 8823      		tst r24
 4376 1492 01F4      		brne .+2
 4377 1494 00C0      		rjmp .L368
 4378               	.L510:
 4379               	.LM651:
 4380 1496 0E94 0000 		call RX_get_byte
 4381               	.LVL411:
 4382 149a 982F      		mov r25,r24
 4383               	.LVL412:
 4384               	.LM652:
 4385 149c 8A30      		cpi r24,lo8(10)
 4386 149e 01F4      		brne .+2
 4387 14a0 00C0      		rjmp .L371
 4388               	.LVL413:
 4389 14a2 8B30      		cpi r24,lo8(11)
 4390 14a4 00F0      		brlo .+2
 4391 14a6 00C0      		rjmp .L374
 4392 14a8 8830      		cpi r24,lo8(8)
 4393 14aa 01F4      		brne .+2
 4394 14ac 00C0      		rjmp .L511
 4395               	.L369:
 4396               	.LM653:
 4397 14ae 8091 0000 		lds r24,debug_msg
 4398               	.LVL414:
 4399 14b2 8230      		cpi r24,lo8(2)
 4400 14b4 01F4      		brne .+2
 4401 14b6 00C0      		rjmp .L482
 4402               	.L445:
 4403               	.LM654:
 4404 14b8 892F      		mov r24,r25
 4405 14ba 0E94 0000 		call print_char
 4406               	.LVL415:
 4407               	.LM655:
 4408 14be 20B1      		in r18,32-32
 4409               	.LVL416:
 4410               	.LM656:
 4411 14c0 83B1      		in r24,35-32
 4412               	.LVL417:
 4413               	.LM657:
 4414 14c2 982F      		mov r25,r24
 4415 14c4 80FD      		sbrc r24,0
 4416 14c6 00C0      		rjmp .L512
 4417               	.LVL418:
 4418               	.L447:
 4419               	.LM658:
 4420 14c8 8091 0000 		lds r24,debounce
 4421 14cc 8F5F      		subi r24,lo8(-(1))
 4422 14ce 8093 0000 		sts debounce,r24
 4423               	.LM659:
 4424 14d2 8823      		tst r24
 4425 14d4 01F0      		breq .+2
 4426 14d6 00C0      		rjmp .L448
 4427               	.LM660:
 4428 14d8 8091 0000 		lds r24,buttons
 4429 14dc 8160      		ori r24,lo8(1)
 4430 14de 8093 0000 		sts buttons,r24
 4431               	.LM661:
 4432 14e2 91FD      		sbrc r25,1
 4433 14e4 00C0      		rjmp .L513
 4434               	.L449:
 4435               	.LM662:
 4436 14e6 8091 0000 		lds r24,debounce+1
 4437 14ea 8F5F      		subi r24,lo8(-(1))
 4438 14ec 8093 0000 		sts debounce+1,r24
 4439               	.LM663:
 4440 14f0 8823      		tst r24
 4441 14f2 01F0      		breq .+2
 4442 14f4 00C0      		rjmp .L450
 4443               	.LM664:
 4444 14f6 8091 0000 		lds r24,buttons
 4445 14fa 8260      		ori r24,lo8(2)
 4446 14fc 8093 0000 		sts buttons,r24
 4447               	.LM665:
 4448 1500 92FD      		sbrc r25,2
 4449 1502 00C0      		rjmp .L514
 4450               	.L451:
 4451               	.LM666:
 4452 1504 8091 0000 		lds r24,debounce+2
 4453 1508 8F5F      		subi r24,lo8(-(1))
 4454 150a 8093 0000 		sts debounce+2,r24
 4455               	.LM667:
 4456 150e 8823      		tst r24
 4457 1510 01F0      		breq .+2
 4458 1512 00C0      		rjmp .L452
 4459               	.LM668:
 4460 1514 8091 0000 		lds r24,buttons
 4461 1518 8460      		ori r24,lo8(4)
 4462 151a 8093 0000 		sts buttons,r24
 4463               	.LM669:
 4464 151e 93FD      		sbrc r25,3
 4465 1520 00C0      		rjmp .L515
 4466               	.L453:
 4467               	.LM670:
 4468 1522 8091 0000 		lds r24,debounce+3
 4469 1526 8F5F      		subi r24,lo8(-(1))
 4470 1528 8093 0000 		sts debounce+3,r24
 4471               	.LM671:
 4472 152c 8823      		tst r24
 4473 152e 01F0      		breq .+2
 4474 1530 00C0      		rjmp .L454
 4475               	.LM672:
 4476 1532 8091 0000 		lds r24,buttons
 4477 1536 8860      		ori r24,lo8(8)
 4478 1538 8093 0000 		sts buttons,r24
 4479               	.LM673:
 4480 153c 94FD      		sbrc r25,4
 4481 153e 00C0      		rjmp .L516
 4482               	.L455:
 4483               	.LM674:
 4484 1540 8091 0000 		lds r24,debounce+4
 4485 1544 8F5F      		subi r24,lo8(-(1))
 4486 1546 8093 0000 		sts debounce+4,r24
 4487               	.LM675:
 4488 154a 8823      		tst r24
 4489 154c 01F0      		breq .+2
 4490 154e 00C0      		rjmp .L456
 4491               	.LM676:
 4492 1550 8091 0000 		lds r24,buttons
 4493 1554 8061      		ori r24,lo8(16)
 4494 1556 8093 0000 		sts buttons,r24
 4495               	.LM677:
 4496 155a 922F      		mov r25,r18
 4497 155c 20FD      		sbrc r18,0
 4498 155e 00C0      		rjmp .L517
 4499               	.LVL419:
 4500               	.L457:
 4501               	.LM678:
 4502 1560 8091 0000 		lds r24,debounce+5
 4503 1564 8F5F      		subi r24,lo8(-(1))
 4504 1566 8093 0000 		sts debounce+5,r24
 4505               	.LM679:
 4506 156a 8823      		tst r24
 4507 156c 01F0      		breq .+2
 4508 156e 00C0      		rjmp .L458
 4509               	.LM680:
 4510 1570 8091 0000 		lds r24,buttons
 4511 1574 8062      		ori r24,lo8(32)
 4512 1576 8093 0000 		sts buttons,r24
 4513               	.LM681:
 4514 157a 91FD      		sbrc r25,1
 4515 157c 00C0      		rjmp .L518
 4516               	.L459:
 4517               	.LM682:
 4518 157e 8091 0000 		lds r24,debounce+6
 4519 1582 8F5F      		subi r24,lo8(-(1))
 4520 1584 8093 0000 		sts debounce+6,r24
 4521               	.LM683:
 4522 1588 8823      		tst r24
 4523 158a 01F0      		breq .+2
 4524 158c 00C0      		rjmp .L460
 4525               	.LM684:
 4526 158e 8091 0000 		lds r24,buttons
 4527 1592 8064      		ori r24,lo8(64)
 4528 1594 8093 0000 		sts buttons,r24
 4529               	.LM685:
 4530 1598 92FD      		sbrc r25,2
 4531 159a 00C0      		rjmp .L519
 4532               	.L461:
 4533               	.LM686:
 4534 159c 8091 0000 		lds r24,debounce+7
 4535 15a0 8F5F      		subi r24,lo8(-(1))
 4536 15a2 8093 0000 		sts debounce+7,r24
 4537               	.LM687:
 4538 15a6 8823      		tst r24
 4539 15a8 01F0      		breq .+2
 4540 15aa 00C0      		rjmp .L462
 4541               	.LM688:
 4542 15ac 8091 0000 		lds r24,buttons
 4543 15b0 8068      		ori r24,lo8(-128)
 4544 15b2 8093 0000 		sts buttons,r24
 4545 15b6 00C0      		rjmp .L462
 4546               	.LVL420:
 4547               	.L482:
 4548               	.LBB204:
 4549               	.LBB205:
 4550               	.LM689:
 4551 15b8 8091 C000 		lds r24,192
 4552 15bc 85FF      		sbrs r24,5
 4553 15be 00C0      		rjmp .L482
 4554               	.LM690:
 4555 15c0 9093 C600 		sts 198,r25
 4556 15c4 00C0      		rjmp .L445
 4557               	.LVL421:
 4558               	.L467:
 4559               	.LBE205:
 4560               	.LBE204:
 4561               	.LM691:
 4562 15c6 169A      		sbi 34-32,6
 4563 15c8 00C0      		rjmp .L504
 4564               	.L465:
 4565               	.LM692:
 4566 15ca 159A      		sbi 34-32,5
 4567 15cc 00C0      		rjmp .L466
 4568               	.L463:
 4569               	.LM693:
 4570 15ce 179A      		sbi 34-32,7
 4571 15d0 00C0      		rjmp .L464
 4572               	.LVL422:
 4573               	.L374:
 4574               	.LM694:
 4575 15d2 8D30      		cpi r24,lo8(13)
 4576 15d4 01F4      		brne .+2
 4577 15d6 00C0      		rjmp .L372
 4578 15d8 8C37      		cpi r24,lo8(124)
 4579 15da 01F0      		breq .+2
 4580 15dc 00C0      		rjmp .L369
 4581               	.LM695:
 4582 15de 0E94 0000 		call RX_get_byte
 4583               	.LVL423:
 4584 15e2 182F      		mov r17,r24
 4585               	.LVL424:
 4586               	.LM696:
 4587 15e4 2091 0000 		lds r18,debug_msg
 4588 15e8 2130      		cpi r18,lo8(1)
 4589 15ea 01F0      		breq .L481
 4590 15ec 2230      		cpi r18,lo8(2)
 4591 15ee 01F4      		brne .L384
 4592               	.LM697:
 4593 15f0 00D0      		rcall .
 4594 15f2 00D0      		rcall .
 4595 15f4 EDB7      		in r30,__SP_L__
 4596 15f6 FEB7      		in r31,__SP_H__
 4597 15f8 3196      		adiw r30,1
 4598 15fa ADB7      		in r26,__SP_L__
 4599 15fc BEB7      		in r27,__SP_H__
 4600 15fe 1296      		adiw r26,1+1
 4601 1600 BC92      		st X,r11
 4602 1602 AE92      		st -X,r10
 4603 1604 1197      		sbiw r26,1
 4604 1606 8283      		std Z+2,r24
 4605 1608 1382      		std Z+3,__zero_reg__
 4606 160a 0E94 0000 		call rprintf
 4607 160e 0F90      		pop __tmp_reg__
 4608 1610 0F90      		pop __tmp_reg__
 4609 1612 0F90      		pop __tmp_reg__
 4610 1614 0F90      		pop __tmp_reg__
 4611               	.L384:
 4612               	.LM698:
 4613 1616 E12F      		mov r30,r17
 4614 1618 F0E0      		ldi r31,lo8(0)
 4615               	.LVL425:
 4616 161a E432      		cpi r30,36
 4617 161c F105      		cpc r31,__zero_reg__
 4618 161e 00F4      		brsh .L505
 4619               	.LVL426:
 4620               	.L499:
 4621 1620 E050      		subi r30,lo8(-(gs(.L419)))
 4622 1622 F040      		sbci r31,hi8(-(gs(.L419)))
 4623               	.LVL427:
 4624 1624 EE0F      		lsl r30
 4625 1626 FF1F      		rol r31
 4626 1628 0590      		lpm __tmp_reg__,Z+
 4627 162a F491      		lpm r31,Z
 4628 162c E02D      		mov r30,__tmp_reg__
 4629 162e 0994      		ijmp
 4630               	.LVL428:
 4631               		.data
 4632               		.section .progmem.gcc_sw_table, "a", @progbits
 4633               		.p2align 1
 4634               	.L419:
 4635               		.data
 4636               		.section .progmem.gcc_sw_table, "a", @progbits
 4637               		.p2align 1
 4638 0000 0000      		.word gs(.L388)
 4639 0002 0000      		.word gs(.L389)
 4640 0004 0000      		.word gs(.L390)
 4641 0006 0000      		.word gs(.L391)
 4642 0008 0000      		.word gs(.L392)
 4643 000a 0000      		.word gs(.L393)
 4644 000c 0000      		.word gs(.L394)
 4645 000e 0000      		.word gs(.L395)
 4646 0010 0000      		.word gs(.L396)
 4647 0012 0000      		.word gs(.L505)
 4648 0014 0000      		.word gs(.L397)
 4649 0016 0000      		.word gs(.L398)
 4650 0018 0000      		.word gs(.L399)
 4651 001a 0000      		.word gs(.L400)
 4652 001c 0000      		.word gs(.L505)
 4653 001e 0000      		.word gs(.L401)
 4654 0020 0000      		.word gs(.L402)
 4655 0022 0000      		.word gs(.L505)
 4656 0024 0000      		.word gs(.L403)
 4657 0026 0000      		.word gs(.L505)
 4658 0028 0000      		.word gs(.L404)
 4659 002a 0000      		.word gs(.L405)
 4660 002c 0000      		.word gs(.L406)
 4661 002e 0000      		.word gs(.L505)
 4662 0030 0000      		.word gs(.L407)
 4663 0032 0000      		.word gs(.L408)
 4664 0034 0000      		.word gs(.L409)
 4665 0036 0000      		.word gs(.L410)
 4666 0038 0000      		.word gs(.L411)
 4667 003a 0000      		.word gs(.L412)
 4668 003c 0000      		.word gs(.L413)
 4669 003e 0000      		.word gs(.L414)
 4670 0040 0000      		.word gs(.L415)
 4671 0042 0000      		.word gs(.L416)
 4672 0044 0000      		.word gs(.L417)
 4673 0046 0000      		.word gs(.L418)
 4674               		.text
 4675               	.LVL429:
 4676               	.L481:
 4677               	.LBB206:
 4678               	.LBB207:
 4679               	.LM699:
 4680 1630 8091 C000 		lds r24,192
 4681 1634 85FF      		sbrs r24,5
 4682 1636 00C0      		rjmp .L481
 4683               	.LM700:
 4684 1638 1093 C600 		sts 198,r17
 4685               	.LBE207:
 4686               	.LBE206:
 4687               	.LM701:
 4688 163c E12F      		mov r30,r17
 4689 163e F0E0      		ldi r31,lo8(0)
 4690               	.LVL430:
 4691 1640 E432      		cpi r30,36
 4692 1642 F105      		cpc r31,__zero_reg__
 4693 1644 00F0      		brlo .L499
 4694               	.LVL431:
 4695               	.L505:
 4696 1646 2091 0000 		lds r18,debug_msg
 4697               	.LVL432:
 4698               	.L387:
 4699               	.LM702:
 4700 164a 2130      		cpi r18,lo8(1)
 4701 164c 01F0      		breq .L478
 4702               	.LVL433:
 4703 164e 2230      		cpi r18,lo8(2)
 4704 1650 01F0      		breq .+2
 4705 1652 00C0      		rjmp .L368
 4706               	.LM703:
 4707 1654 8091 0000 		lds r24,RX_bytes
 4708 1658 00D0      		rcall .
 4709 165a 00D0      		rcall .
 4710 165c EDB7      		in r30,__SP_L__
 4711 165e FEB7      		in r31,__SP_H__
 4712 1660 3196      		adiw r30,1
 4713 1662 ADB7      		in r26,__SP_L__
 4714 1664 BEB7      		in r27,__SP_H__
 4715 1666 1296      		adiw r26,1+1
 4716 1668 7C92      		st X,r7
 4717 166a 6E92      		st -X,r6
 4718 166c 1197      		sbiw r26,1
 4719 166e 8283      		std Z+2,r24
 4720 1670 1382      		std Z+3,__zero_reg__
 4721 1672 0E94 0000 		call rprintf
 4722               	.LVL434:
 4723 1676 0F90      		pop __tmp_reg__
 4724 1678 0F90      		pop __tmp_reg__
 4725 167a 0F90      		pop __tmp_reg__
 4726 167c 0F90      		pop __tmp_reg__
 4727 167e 00C0      		rjmp .L368
 4728               	.LVL435:
 4729               	.L478:
 4730               	.LBB208:
 4731               	.LBB209:
 4732               	.LM704:
 4733 1680 8091 C000 		lds r24,192
 4734 1684 85FF      		sbrs r24,5
 4735 1686 00C0      		rjmp .L478
 4736               	.LM705:
 4737 1688 1092 C600 		sts 198,__zero_reg__
 4738 168c 00C0      		rjmp .L368
 4739               	.LVL436:
 4740               	.L410:
 4741               	.LBE209:
 4742               	.LBE208:
 4743               	.LM706:
 4744 168e 0E94 0000 		call RX_get_byte
 4745               	.LVL437:
 4746 1692 182F      		mov r17,r24
 4747               	.LVL438:
 4748               	.LM707:
 4749 1694 0E94 0000 		call RX_get_byte
 4750 1698 682F      		mov r22,r24
 4751               	.LVL439:
 4752               	.LM708:
 4753 169a 812F      		mov r24,r17
 4754 169c 0E94 0000 		call write_data_LCD
 4755               	.LVL440:
 4756               	.L411:
 4757               	.LM709:
 4758 16a0 0E94 0000 		call RX_get_byte
 4759               	.LVL441:
 4760 16a4 D82E      		mov r13,r24
 4761               	.LVL442:
 4762               	.LM710:
 4763 16a6 0E94 0000 		call RX_get_byte
 4764 16aa E82E      		mov r14,r24
 4765               	.LVL443:
 4766               	.LM711:
 4767 16ac 0E94 0000 		call RX_get_byte
 4768 16b0 F82E      		mov r15,r24
 4769               	.LVL444:
 4770 16b2 B0E8      		ldi r27,lo8(-128)
 4771 16b4 B817      		cp r27,r24
 4772 16b6 00F0      		brlo .+2
 4773 16b8 00C0      		rjmp .L432
 4774               	.LVL445:
 4775 16ba 80E8      		ldi r24,lo8(-128)
 4776 16bc F82E      		mov r15,r24
 4777               	.LVL446:
 4778               	.L502:
 4779               	.LM712:
 4780 16be 00E0      		ldi r16,lo8(0)
 4781 16c0 10E0      		ldi r17,hi8(0)
 4782               	.LVL447:
 4783               	.L434:
 4784               	.LM713:
 4785 16c2 0E94 0000 		call RX_get_byte
 4786 16c6 F801      		movw r30,r16
 4787 16c8 E050      		subi r30,lo8(-(buffer))
 4788 16ca F040      		sbci r31,hi8(-(buffer))
 4789 16cc 8083      		st Z,r24
 4790 16ce 0F5F      		subi r16,lo8(-(1))
 4791 16d0 1F4F      		sbci r17,hi8(-(1))
 4792               	.LM714:
 4793 16d2 0F15      		cp r16,r15
 4794 16d4 00F0      		brlo .L434
 4795               	.LVL448:
 4796               	.L433:
 4797               	.LM715:
 4798 16d6 8D2D      		mov r24,r13
 4799 16d8 6E2D      		mov r22,r14
 4800 16da 4F2D      		mov r20,r15
 4801 16dc 20E0      		ldi r18,lo8(buffer)
 4802 16de 30E0      		ldi r19,hi8(buffer)
 4803 16e0 0E94 0000 		call write_block
 4804 16e4 2091 0000 		lds r18,debug_msg
 4805 16e8 00C0      		rjmp .L387
 4806               	.LVL449:
 4807               	.L412:
 4808               	.LM716:
 4809 16ea 0E94 0000 		call RX_get_byte
 4810               	.LVL450:
 4811               	.LM717:
 4812 16ee 0E94 0000 		call read_data_LCD
 4813 16f2 982F      		mov r25,r24
 4814               	.LVL451:
 4815               	.LM718:
 4816 16f4 2091 0000 		lds r18,debug_msg
 4817 16f8 2230      		cpi r18,lo8(2)
 4818 16fa 01F4      		brne .+2
 4819 16fc 00C0      		rjmp .L507
 4820               	.L479:
 4821               	.LBB210:
 4822               	.LBB211:
 4823               	.LM719:
 4824 16fe 8091 C000 		lds r24,192
 4825 1702 85FF      		sbrs r24,5
 4826 1704 00C0      		rjmp .L479
 4827               	.LBE211:
 4828               	.LBE210:
 4829               	.LBB212:
 4830               	.LBB213:
 4831               	.LM720:
 4832 1706 9093 C600 		sts 198,r25
 4833 170a 00C0      		rjmp .L387
 4834               	.LVL452:
 4835               	.L414:
 4836               	.LBE213:
 4837               	.LBE212:
 4838               	.LM721:
 4839 170c 0E94 0000 		call RX_get_byte
 4840               	.LVL453:
 4841 1710 F82E      		mov r15,r24
 4842               	.LVL454:
 4843               	.LM722:
 4844 1712 0E94 0000 		call RX_get_byte
 4845 1716 082F      		mov r16,r24
 4846               	.LVL455:
 4847               	.LM723:
 4848 1718 0E94 0000 		call RX_get_byte
 4849 171c 182F      		mov r17,r24
 4850               	.LVL456:
 4851 171e 8138      		cpi r24,lo8(-127)
 4852 1720 00F0      		brlo .L437
 4853               	.LVL457:
 4854 1722 10E8      		ldi r17,lo8(-128)
 4855               	.LVL458:
 4856               	.L437:
 4857               	.LM724:
 4858 1724 8F2D      		mov r24,r15
 4859 1726 602F      		mov r22,r16
 4860 1728 412F      		mov r20,r17
 4861 172a 20E0      		ldi r18,lo8(buffer)
 4862 172c 30E0      		ldi r19,hi8(buffer)
 4863 172e 0E94 0000 		call read_block
 4864               	.LM725:
 4865 1732 1123      		tst r17
 4866 1734 01F4      		brne .+2
 4867 1736 00C0      		rjmp .L505
 4868 1738 00E0      		ldi r16,lo8(buffer)
 4869 173a E02E      		mov r14,r16
 4870 173c 00E0      		ldi r16,hi8(buffer)
 4871 173e F02E      		mov r15,r16
 4872               	.LVL459:
 4873 1740 2091 0000 		lds r18,debug_msg
 4874 1744 1150      		subi r17,lo8(-(-1))
 4875 1746 012F      		mov r16,r17
 4876 1748 10E0      		ldi r17,lo8(0)
 4877               	.LVL460:
 4878 174a 0050      		subi r16,lo8(-(buffer+1))
 4879 174c 1040      		sbci r17,hi8(-(buffer+1))
 4880               	.LM726:
 4881 174e 2230      		cpi r18,lo8(2)
 4882 1750 01F0      		breq .L520
 4883               	.L438:
 4884               	.LM727:
 4885 1752 F701      		movw r30,r14
 4886 1754 9081      		ld r25,Z
 4887               	.L440:
 4888               	.LBB215:
 4889               	.LBB216:
 4890               	.LM728:
 4891 1756 8091 C000 		lds r24,192
 4892 175a 85FF      		sbrs r24,5
 4893 175c 00C0      		rjmp .L440
 4894               	.LM729:
 4895 175e 9093 C600 		sts 198,r25
 4896               	.L439:
 4897 1762 0894      		sec
 4898 1764 E11C      		adc r14,__zero_reg__
 4899 1766 F11C      		adc r15,__zero_reg__
 4900               	.LBE216:
 4901               	.LBE215:
 4902               	.LM730:
 4903 1768 E016      		cp r14,r16
 4904 176a F106      		cpc r15,r17
 4905 176c 01F4      		brne .+2
 4906 176e 00C0      		rjmp .L387
 4907               	.LM731:
 4908 1770 2230      		cpi r18,lo8(2)
 4909 1772 01F4      		brne .L438
 4910               	.L520:
 4911               	.LM732:
 4912 1774 00D0      		rcall .
 4913 1776 00D0      		rcall .
 4914 1778 EDB7      		in r30,__SP_L__
 4915 177a FEB7      		in r31,__SP_H__
 4916 177c 3196      		adiw r30,1
 4917 177e ADB7      		in r26,__SP_L__
 4918 1780 BEB7      		in r27,__SP_H__
 4919 1782 1296      		adiw r26,1+1
 4920 1784 9C92      		st X,r9
 4921 1786 8E92      		st -X,r8
 4922 1788 1197      		sbiw r26,1
 4923 178a D701      		movw r26,r14
 4924 178c 8C91      		ld r24,X
 4925 178e 8283      		std Z+2,r24
 4926 1790 1382      		std Z+3,__zero_reg__
 4927 1792 0E94 0000 		call rprintf
 4928 1796 0F90      		pop __tmp_reg__
 4929 1798 0F90      		pop __tmp_reg__
 4930 179a 0F90      		pop __tmp_reg__
 4931 179c 0F90      		pop __tmp_reg__
 4932 179e 2091 0000 		lds r18,debug_msg
 4933 17a2 00C0      		rjmp .L439
 4934               	.LVL461:
 4935               	.L413:
 4936               	.LM733:
 4937 17a4 0E94 0000 		call RX_get_byte
 4938               	.LVL462:
 4939 17a8 182F      		mov r17,r24
 4940               	.LVL463:
 4941               	.LM734:
 4942 17aa 0E94 0000 		call RX_get_byte
 4943 17ae 682F      		mov r22,r24
 4944               	.LVL464:
 4945               	.LM735:
 4946 17b0 812F      		mov r24,r17
 4947 17b2 0E94 0000 		call read_byte
 4948               	.LVL465:
 4949 17b6 982F      		mov r25,r24
 4950               	.LVL466:
 4951               	.LM736:
 4952 17b8 2091 0000 		lds r18,debug_msg
 4953 17bc 2230      		cpi r18,lo8(2)
 4954 17be 01F4      		brne .+2
 4955 17c0 00C0      		rjmp .L507
 4956               	.L480:
 4957               	.LBB217:
 4958               	.LBB214:
 4959               	.LM737:
 4960 17c2 8091 C000 		lds r24,192
 4961 17c6 85FF      		sbrs r24,5
 4962 17c8 00C0      		rjmp .L480
 4963               	.LM738:
 4964 17ca 9093 C600 		sts 198,r25
 4965 17ce 00C0      		rjmp .L387
 4966               	.LVL467:
 4967               	.L418:
 4968               	.LBE214:
 4969               	.LBE217:
 4970               	.LM739:
 4971 17d0 9091 0000 		lds r25,buttons
 4972               	.L442:
 4973               	.LBB218:
 4974               	.LBB219:
 4975               	.LM740:
 4976 17d4 8091 C000 		lds r24,192
 4977 17d8 85FF      		sbrs r24,5
 4978 17da 00C0      		rjmp .L442
 4979               	.LM741:
 4980 17dc 9093 C600 		sts 198,r25
 4981 17e0 00C0      		rjmp .L505
 4982               	.L417:
 4983               	.LBE219:
 4984               	.LBE218:
 4985               	.LM742:
 4986 17e2 0E94 0000 		call RX_get_byte
 4987               	.LVL468:
 4988 17e6 8093 0000 		sts RGB_red,r24
 4989               	.LM743:
 4990 17ea 0E94 0000 		call RX_get_byte
 4991 17ee 8093 0000 		sts RGB_green,r24
 4992               	.LM744:
 4993 17f2 0E94 0000 		call RX_get_byte
 4994 17f6 8093 0000 		sts RGB_blue,r24
 4995 17fa 2091 0000 		lds r18,debug_msg
 4996 17fe 00C0      		rjmp .L387
 4997               	.LVL469:
 4998               	.L416:
 4999               	.LM745:
 5000 1800 0E94 0000 		call RX_get_byte
 5001               	.LVL470:
 5002               	.LM746:
 5003 1804 886B      		ori r24,lo8(-72)
 5004 1806 60E0      		ldi r22,lo8(0)
 5005 1808 0E94 0000 		call write_command_LCD
 5006 180c 2091 0000 		lds r18,debug_msg
 5007 1810 00C0      		rjmp .L387
 5008               	.LVL471:
 5009               	.L415:
 5010               	.LM747:
 5011 1812 0E94 0000 		call RX_get_byte
 5012               	.LVL472:
 5013               	.LM748:
 5014 1816 8064      		ori r24,lo8(64)
 5015 1818 60E0      		ldi r22,lo8(0)
 5016 181a 0E94 0000 		call write_command_LCD
 5017 181e 2091 0000 		lds r18,debug_msg
 5018 1822 00C0      		rjmp .L387
 5019               	.LVL473:
 5020               	.L409:
 5021               	.LM749:
 5022 1824 0E94 0000 		call RX_get_byte
 5023               	.LVL474:
 5024 1828 182F      		mov r17,r24
 5025               	.LVL475:
 5026               	.LM750:
 5027 182a 0E94 0000 		call RX_get_byte
 5028 182e 682F      		mov r22,r24
 5029               	.LVL476:
 5030               	.LM751:
 5031 1830 812F      		mov r24,r17
 5032 1832 0E94 0000 		call write_command_LCD
 5033               	.LVL477:
 5034 1836 2091 0000 		lds r18,debug_msg
 5035 183a 00C0      		rjmp .L387
 5036               	.LVL478:
 5037               	.L408:
 5038               	.LM752:
 5039 183c 0E94 0000 		call RX_get_byte
 5040               	.LVL479:
 5041 1840 8093 0000 		sts y_offset,r24
 5042               	.LM753:
 5043 1844 8823      		tst r24
 5044 1846 04F0      		brlt .+2
 5045 1848 00C0      		rjmp .L505
 5046 184a 4092 0000 		sts y_offset,r4
 5047 184e 2091 0000 		lds r18,debug_msg
 5048 1852 00C0      		rjmp .L387
 5049               	.LVL480:
 5050               	.L407:
 5051               	.LM754:
 5052 1854 0E94 0000 		call RX_get_byte
 5053               	.LVL481:
 5054 1858 8093 0000 		sts x_offset,r24
 5055               	.LM755:
 5056 185c 803A      		cpi r24,lo8(-96)
 5057 185e 00F4      		brsh .+2
 5058 1860 00C0      		rjmp .L505
 5059 1862 3092 0000 		sts x_offset,r3
 5060 1866 2091 0000 		lds r18,debug_msg
 5061 186a 00C0      		rjmp .L387
 5062               	.LVL482:
 5063               	.L406:
 5064               	.LM756:
 5065 186c 0E94 0000 		call RX_get_byte
 5066               	.LVL483:
 5067 1870 F82E      		mov r15,r24
 5068               	.LVL484:
 5069               	.LM757:
 5070 1872 0E94 0000 		call RX_get_byte
 5071 1876 E82E      		mov r14,r24
 5072               	.LVL485:
 5073               	.LM758:
 5074 1878 0E94 0000 		call RX_get_byte
 5075 187c 082F      		mov r16,r24
 5076               	.LVL486:
 5077               	.LM759:
 5078 187e 0E94 0000 		call RX_get_byte
 5079 1882 182F      		mov r17,r24
 5080               	.LVL487:
 5081               	.LM760:
 5082 1884 0E94 0000 		call RX_get_byte
 5083 1888 282F      		mov r18,r24
 5084               	.LVL488:
 5085               	.LM761:
 5086 188a 8F2D      		mov r24,r15
 5087 188c 6E2D      		mov r22,r14
 5088 188e 412F      		mov r20,r17
 5089 1890 EE24      		clr r14
 5090 1892 FF24      		clr r15
 5091               	.LVL489:
 5092 1894 0E94 0000 		call bitblt
 5093               	.LVL490:
 5094 1898 2091 0000 		lds r18,debug_msg
 5095 189c 00C0      		rjmp .L387
 5096               	.LVL491:
 5097               	.L405:
 5098               	.LM762:
 5099 189e 6091 0000 		lds r22,splash_screen
 5100 18a2 6225      		eor r22,r2
 5101 18a4 6093 0000 		sts splash_screen,r22
 5102               	.LM763:
 5103               	/* #APP */
 5104               	 ;  720 "main.c" 1
 5105 18a8 F894      		cli
 5106               	 ;  0 "" 2
 5107               	.LM764:
 5108               	/* #NOAPP */
 5109 18aa 82E0      		ldi r24,lo8(2)
 5110 18ac 90E0      		ldi r25,hi8(2)
 5111 18ae 0E94 0000 		call EEPROM_write
 5112               	.LVL492:
 5113               	.LM765:
 5114               	/* #APP */
 5115               	 ;  722 "main.c" 1
 5116 18b2 7894      		sei
 5117               	 ;  0 "" 2
 5118               	/* #NOAPP */
 5119 18b4 2091 0000 		lds r18,debug_msg
 5120 18b8 00C0      		rjmp .L387
 5121               	.LVL493:
 5122               	.L404:
 5123               	.LM766:
 5124 18ba 8091 0000 		lds r24,reverse
 5125 18be 8225      		eor r24,r2
 5126 18c0 8093 0000 		sts reverse,r24
 5127               	.LM767:
 5128 18c4 81E0      		ldi r24,lo8(1)
 5129 18c6 0E94 0000 		call clear_screen
 5130               	.LVL494:
 5131               	.LM768:
 5132               	/* #APP */
 5133               	 ;  713 "main.c" 1
 5134 18ca F894      		cli
 5135               	 ;  0 "" 2
 5136               	.LM769:
 5137               	/* #NOAPP */
 5138 18cc 83E0      		ldi r24,lo8(3)
 5139 18ce 90E0      		ldi r25,hi8(3)
 5140 18d0 6091 0000 		lds r22,reverse
 5141 18d4 0E94 0000 		call EEPROM_write
 5142               	.LM770:
 5143               	/* #APP */
 5144               	 ;  715 "main.c" 1
 5145 18d8 7894      		sei
 5146               	 ;  0 "" 2
 5147               	/* #NOAPP */
 5148 18da 2091 0000 		lds r18,debug_msg
 5149 18de 00C0      		rjmp .L387
 5150               	.LVL495:
 5151               	.L403:
 5152               	.LM771:
 5153 18e0 0E94 0000 		call RX_get_byte
 5154               	.LVL496:
 5155 18e4 182F      		mov r17,r24
 5156               	.LVL497:
 5157               	.LM772:
 5158 18e6 0E94 0000 		call RX_get_byte
 5159 18ea F82E      		mov r15,r24
 5160               	.LVL498:
 5161               	.LM773:
 5162 18ec 0E94 0000 		call RX_get_byte
 5163 18f0 E82E      		mov r14,r24
 5164               	.LVL499:
 5165               	.LM774:
 5166 18f2 0E94 0000 		call RX_get_byte
 5167 18f6 D82E      		mov r13,r24
 5168               	.LVL500:
 5169               	.LM775:
 5170 18f8 0E94 0000 		call RX_get_byte
 5171 18fc 082F      		mov r16,r24
 5172               	.LVL501:
 5173               	.LM776:
 5174 18fe 812F      		mov r24,r17
 5175 1900 6F2D      		mov r22,r15
 5176 1902 4E2D      		mov r20,r14
 5177 1904 2D2D      		mov r18,r13
 5178 1906 0E94 0000 		call draw_block
 5179 190a 2091 0000 		lds r18,debug_msg
 5180 190e 00C0      		rjmp .L387
 5181               	.LVL502:
 5182               	.L402:
 5183               	.LM777:
 5184 1910 0E94 0000 		call RX_get_byte
 5185               	.LVL503:
 5186 1914 082F      		mov r16,r24
 5187               	.LVL504:
 5188               	.LM778:
 5189 1916 0E94 0000 		call RX_get_byte
 5190 191a 182F      		mov r17,r24
 5191               	.LVL505:
 5192               	.LM779:
 5193 191c 0E94 0000 		call RX_get_byte
 5194               	.LM780:
 5195 1920 602F      		mov r22,r16
 5196 1922 412F      		mov r20,r17
 5197 1924 0E94 0000 		call pixel
 5198 1928 2091 0000 		lds r18,debug_msg
 5199 192c 00C0      		rjmp .L387
 5200               	.LVL506:
 5201               	.L401:
 5202               	.LM781:
 5203 192e 0E94 0000 		call RX_get_byte
 5204               	.LVL507:
 5205 1932 082F      		mov r16,r24
 5206               	.LVL508:
 5207               	.LM782:
 5208 1934 0E94 0000 		call RX_get_byte
 5209 1938 F82E      		mov r15,r24
 5210               	.LM783:
 5211 193a 0E94 0000 		call RX_get_byte
 5212 193e 182F      		mov r17,r24
 5213               	.LVL509:
 5214               	.LM784:
 5215 1940 0E94 0000 		call RX_get_byte
 5216 1944 282F      		mov r18,r24
 5217               	.LVL510:
 5218               	.LM785:
 5219 1946 802F      		mov r24,r16
 5220 1948 6F2D      		mov r22,r15
 5221 194a 412F      		mov r20,r17
 5222 194c 0E94 0000 		call box
 5223               	.LVL511:
 5224 1950 2091 0000 		lds r18,debug_msg
 5225 1954 00C0      		rjmp .L387
 5226               	.LVL512:
 5227               	.L400:
 5228               	.LM786:
 5229 1956 0E94 0000 		call RX_get_byte
 5230               	.LVL513:
 5231 195a 8A30      		cpi r24,lo8(10)
 5232               	.LVL514:
 5233 195c 00F0      		brlo .L430
 5234 195e 89E0      		ldi r24,lo8(9)
 5235               	.L430:
 5236 1960 A2E4      		ldi r26,lo8(66)
 5237 1962 8A9F      		mul r24,r26
 5238 1964 7001      		movw r14,r0
 5239 1966 1124      		clr r1
 5240               	.LVL515:
 5241 1968 E0E0      		ldi r30,lo8(sprite)
 5242 196a F0E0      		ldi r31,hi8(sprite)
 5243 196c EE0E      		add r14,r30
 5244 196e FF1E      		adc r15,r31
 5245 1970 00E0      		ldi r16,lo8(0)
 5246 1972 10E0      		ldi r17,hi8(0)
 5247               	.LVL516:
 5248               	.L431:
 5249               	.LM787:
 5250 1974 0E94 0000 		call RX_get_byte
 5251               	.LVL517:
 5252 1978 D701      		movw r26,r14
 5253 197a 8D93      		st X+,r24
 5254 197c 7D01      		movw r14,r26
 5255               	.LM788:
 5256 197e 0F5F      		subi r16,lo8(-(1))
 5257 1980 1F4F      		sbci r17,hi8(-(1))
 5258 1982 0234      		cpi r16,66
 5259 1984 1105      		cpc r17,__zero_reg__
 5260 1986 01F4      		brne .L431
 5261 1988 00C0      		rjmp .L505
 5262               	.LVL518:
 5263               	.L399:
 5264               	.LM789:
 5265 198a 0E94 0000 		call RX_get_byte
 5266               	.LVL519:
 5267 198e 182F      		mov r17,r24
 5268               	.LVL520:
 5269               	.LM790:
 5270 1990 0E94 0000 		call RX_get_byte
 5271 1994 F82E      		mov r15,r24
 5272               	.LVL521:
 5273               	.LM791:
 5274 1996 0E94 0000 		call RX_get_byte
 5275 199a E82E      		mov r14,r24
 5276               	.LVL522:
 5277               	.LM792:
 5278 199c 0E94 0000 		call RX_get_byte
 5279 19a0 082F      		mov r16,r24
 5280               	.LVL523:
 5281               	.LM793:
 5282 19a2 0E94 0000 		call RX_get_byte
 5283               	.LM794:
 5284 19a6 612F      		mov r22,r17
 5285 19a8 4F2D      		mov r20,r15
 5286 19aa 2E2D      		mov r18,r14
 5287 19ac 0E94 0000 		call line
 5288 19b0 2091 0000 		lds r18,debug_msg
 5289 19b4 00C0      		rjmp .L387
 5290               	.LVL524:
 5291               	.L388:
 5292               	.LM795:
 5293 19b6 80E0      		ldi r24,lo8(0)
 5294 19b8 0E94 0000 		call clear_screen
 5295               	.LVL525:
 5296               	.LM796:
 5297 19bc 1092 0000 		sts x_offset,__zero_reg__
 5298               	.LM797:
 5299 19c0 1092 0000 		sts y_offset,__zero_reg__
 5300 19c4 2091 0000 		lds r18,debug_msg
 5301 19c8 00C0      		rjmp .L387
 5302               	.LVL526:
 5303               	.L390:
 5304               	.LM798:
 5305 19ca 0E94 0000 		call RX_get_byte
 5306               	.LVL527:
 5307 19ce 8093 0000 		sts BL_dutycycle,r24
 5308               	.LM799:
 5309 19d2 0E94 0000 		call set_backlight
 5310               	.LM800:
 5311               	/* #APP */
 5312               	 ;  454 "main.c" 1
 5313 19d6 F894      		cli
 5314               	 ;  0 "" 2
 5315               	.LM801:
 5316               	/* #NOAPP */
 5317 19d8 81E0      		ldi r24,lo8(1)
 5318 19da 90E0      		ldi r25,hi8(1)
 5319 19dc 6091 0000 		lds r22,BL_dutycycle
 5320 19e0 0E94 0000 		call EEPROM_write
 5321               	.LM802:
 5322               	/* #APP */
 5323               	 ;  456 "main.c" 1
 5324 19e4 7894      		sei
 5325               	 ;  0 "" 2
 5326               	/* #NOAPP */
 5327 19e6 2091 0000 		lds r18,debug_msg
 5328 19ea 00C0      		rjmp .L387
 5329               	.LVL528:
 5330               	.L389:
 5331               	.LM803:
 5332 19ec 0E94 0000 		call RX_get_byte
 5333               	.LVL529:
 5334 19f0 8093 0000 		sts debug_msg,r24
 5335               	.LM804:
 5336 19f4 8330      		cpi r24,lo8(3)
 5337 19f6 00F0      		brlo .L420
 5338 19f8 82E0      		ldi r24,lo8(2)
 5339 19fa 8093 0000 		sts debug_msg,r24
 5340               	.L420:
 5341               	.LM805:
 5342               	/* #APP */
 5343               	 ;  442 "main.c" 1
 5344 19fe F894      		cli
 5345               	 ;  0 "" 2
 5346               	.LM806:
 5347               	/* #NOAPP */
 5348 1a00 84E0      		ldi r24,lo8(4)
 5349 1a02 90E0      		ldi r25,hi8(4)
 5350 1a04 6091 0000 		lds r22,debug_msg
 5351 1a08 0E94 0000 		call EEPROM_write
 5352               	.LM807:
 5353               	/* #APP */
 5354               	 ;  444 "main.c" 1
 5355 1a0c 7894      		sei
 5356               	 ;  0 "" 2
 5357               	/* #NOAPP */
 5358 1a0e 2091 0000 		lds r18,debug_msg
 5359 1a12 00C0      		rjmp .L387
 5360               	.LVL530:
 5361               	.L398:
 5362               	.LM808:
 5363 1a14 0E94 0000 		call RX_get_byte
 5364               	.LVL531:
 5365 1a18 082F      		mov r16,r24
 5366               	.LVL532:
 5367               	.LM809:
 5368 1a1a 0E94 0000 		call RX_get_byte
 5369 1a1e F82E      		mov r15,r24
 5370               	.LVL533:
 5371               	.LM810:
 5372 1a20 0E94 0000 		call RX_get_byte
 5373 1a24 182F      		mov r17,r24
 5374               	.LVL534:
 5375               	.LM811:
 5376 1a26 0E94 0000 		call RX_get_byte
 5377 1a2a 282F      		mov r18,r24
 5378               	.LVL535:
 5379               	.LM812:
 5380 1a2c 802F      		mov r24,r16
 5381 1a2e 6F2D      		mov r22,r15
 5382 1a30 412F      		mov r20,r17
 5383 1a32 0E94 0000 		call draw_sprite
 5384               	.LVL536:
 5385 1a36 2091 0000 		lds r18,debug_msg
 5386 1a3a 00C0      		rjmp .L387
 5387               	.LVL537:
 5388               	.L397:
 5389               	.LM813:
 5390 1a3c 0E94 0000 		call RX_get_byte
 5391               	.LVL538:
 5392               	.LM814:
 5393 1a40 8830      		cpi r24,lo8(8)
 5394               	.LVL539:
 5395 1a42 00F0      		brlo .L429
 5396 1a44 87E0      		ldi r24,lo8(7)
 5397               	.L429:
 5398 1a46 8093 0000 		sts font_mode,r24
 5399 1a4a 2091 0000 		lds r18,debug_msg
 5400 1a4e 00C0      		rjmp .L387
 5401               	.LVL540:
 5402               	.L396:
 5403               	.LM815:
 5404 1a50 8091 0000 		lds r24,aux_font
 5405 1a54 8130      		cpi r24,lo8(1)
 5406 1a56 01F4      		brne .+2
 5407 1a58 00C0      		rjmp .L521
 5408               	.LM816:
 5409 1a5a 2092 0000 		sts aux_font,r2
 5410               	.LM817:
 5411 1a5e A981      		ldd r26,Y+1
 5412 1a60 A093 0000 		sts font_w,r26
 5413               	.LM818:
 5414 1a64 BA81      		ldd r27,Y+2
 5415 1a66 B093 0000 		sts font_h,r27
 5416               	.LM819:
 5417 1a6a EB81      		ldd r30,Y+3
 5418 1a6c E093 0000 		sts font_space,r30
 5419               	.LM820:
 5420 1a70 FC81      		ldd r31,Y+4
 5421               	.LVL541:
 5422 1a72 F093 0000 		sts font_bytes,r31
 5423               	.LM821:
 5424 1a76 8D81      		ldd r24,Y+5
 5425 1a78 9E81      		ldd r25,Y+6
 5426 1a7a 892B      		or r24,r25
 5427 1a7c 01F0      		breq .L428
 5428               	.LM822:
 5429 1a7e 9F81      		ldd r25,Y+7
 5430 1a80 9093 0000 		sts font_bytes,r25
 5431               	.L428:
 5432               	.LM823:
 5433 1a84 8091 0000 		lds r24,font_bytes
 5434 1a88 9091 0000 		lds r25,font_w
 5435 1a8c 899F      		mul r24,r25
 5436 1a8e 802D      		mov r24,r0
 5437 1a90 1124      		clr r1
 5438 1a92 8093 0000 		sts font_bytes,r24
 5439 1a96 2091 0000 		lds r18,debug_msg
 5440 1a9a 00C0      		rjmp .L387
 5441               	.LVL542:
 5442               	.L395:
 5443               	.LM824:
 5444 1a9c 0E94 0000 		call RX_get_byte
 5445               	.LVL543:
 5446 1aa0 982F      		mov r25,r24
 5447               	.LVL544:
 5448               	.LM825:
 5449 1aa2 8150      		subi r24,lo8(-(-1))
 5450 1aa4 8630      		cpi r24,lo8(6)
 5451 1aa6 00F4      		brsh .L425
 5452 1aa8 9093 0000 		sts baud_rate,r25
 5453               	.L425:
 5454               	.LM826:
 5455 1aac 8091 0000 		lds r24,baud_rate
 5456 1ab0 0E94 0000 		call set_baud
 5457               	.LVL545:
 5458               	.LM827:
 5459               	/* #APP */
 5460               	 ;  526 "main.c" 1
 5461 1ab4 F894      		cli
 5462               	 ;  0 "" 2
 5463               	.LM828:
 5464               	/* #NOAPP */
 5465 1ab6 80E0      		ldi r24,lo8(0)
 5466 1ab8 90E0      		ldi r25,hi8(0)
 5467 1aba 6091 0000 		lds r22,baud_rate
 5468 1abe 0E94 0000 		call EEPROM_write
 5469               	.LM829:
 5470               	/* #APP */
 5471               	 ;  528 "main.c" 1
 5472 1ac2 7894      		sei
 5473               	 ;  0 "" 2
 5474               	/* #NOAPP */
 5475 1ac4 2091 0000 		lds r18,debug_msg
 5476 1ac8 00C0      		rjmp .L387
 5477               	.LVL546:
 5478               	.L394:
 5479               	.LM830:
 5480 1aca 0E94 0000 		call LCD_reset
 5481               	.LVL547:
 5482 1ace 2091 0000 		lds r18,debug_msg
 5483 1ad2 00C0      		rjmp .L387
 5484               	.LVL548:
 5485               	.L393:
 5486               	.LM831:
 5487 1ad4 0E94 0000 		call RX_get_byte
 5488               	.LVL549:
 5489 1ad8 E82E      		mov r14,r24
 5490               	.LVL550:
 5491               	.LM832:
 5492 1ada 0E94 0000 		call RX_get_byte
 5493 1ade F82E      		mov r15,r24
 5494               	.LVL551:
 5495               	.LM833:
 5496 1ae0 0E94 0000 		call RX_get_byte
 5497 1ae4 182F      		mov r17,r24
 5498               	.LVL552:
 5499               	.LM834:
 5500 1ae6 0E94 0000 		call RX_get_byte
 5501 1aea 282F      		mov r18,r24
 5502               	.LVL553:
 5503               	.LM835:
 5504 1aec 8091 0000 		lds r24,reverse
 5505 1af0 8130      		cpi r24,lo8(1)
 5506 1af2 01F4      		brne .+2
 5507 1af4 00C0      		rjmp .L522
 5508 1af6 00E0      		ldi r16,lo8(0)
 5509               	.LVL554:
 5510               	.L424:
 5511               	.LM836:
 5512 1af8 8E2D      		mov r24,r14
 5513 1afa 6F2D      		mov r22,r15
 5514 1afc 412F      		mov r20,r17
 5515 1afe 0E94 0000 		call draw_block
 5516               	.LVL555:
 5517 1b02 2091 0000 		lds r18,debug_msg
 5518 1b06 00C0      		rjmp .L387
 5519               	.LVL556:
 5520               	.L392:
 5521               	.LM837:
 5522 1b08 8091 0000 		lds r24,CR_LF
 5523 1b0c 8130      		cpi r24,lo8(1)
 5524 1b0e 01F4      		brne .+2
 5525 1b10 00C0      		rjmp .L523
 5526               	.LM838:
 5527 1b12 2092 0000 		sts CR_LF,r2
 5528               	.L422:
 5529               	.LM839:
 5530               	/* #APP */
 5531               	 ;  482 "main.c" 1
 5532 1b16 F894      		cli
 5533               	 ;  0 "" 2
 5534               	.LM840:
 5535               	/* #NOAPP */
 5536 1b18 85E0      		ldi r24,lo8(5)
 5537 1b1a 90E0      		ldi r25,hi8(5)
 5538 1b1c 6091 0000 		lds r22,CR_LF
 5539 1b20 0E94 0000 		call EEPROM_write
 5540               	.LVL557:
 5541               	.LM841:
 5542               	/* #APP */
 5543               	 ;  484 "main.c" 1
 5544 1b24 7894      		sei
 5545               	 ;  0 "" 2
 5546               	/* #NOAPP */
 5547 1b26 2091 0000 		lds r18,debug_msg
 5548 1b2a 00C0      		rjmp .L387
 5549               	.LVL558:
 5550               	.L391:
 5551               	.LM842:
 5552 1b2c 0E94 0000 		call RX_get_byte
 5553               	.LVL559:
 5554 1b30 182F      		mov r17,r24
 5555               	.LVL560:
 5556               	.LM843:
 5557 1b32 0E94 0000 		call RX_get_byte
 5558 1b36 082F      		mov r16,r24
 5559               	.LVL561:
 5560               	.LM844:
 5561 1b38 0E94 0000 		call RX_get_byte
 5562 1b3c F82E      		mov r15,r24
 5563               	.LVL562:
 5564               	.LM845:
 5565 1b3e 0E94 0000 		call RX_get_byte
 5566               	.LM846:
 5567 1b42 612F      		mov r22,r17
 5568 1b44 70E0      		ldi r23,lo8(0)
 5569 1b46 402F      		mov r20,r16
 5570 1b48 50E0      		ldi r21,lo8(0)
 5571 1b4a 2F2D      		mov r18,r15
 5572 1b4c 30E0      		ldi r19,lo8(0)
 5573 1b4e 0E94 0000 		call circle
 5574 1b52 2091 0000 		lds r18,debug_msg
 5575 1b56 00C0      		rjmp .L387
 5576               	.LVL563:
 5577               	.L372:
 5578               	.LM847:
 5579 1b58 8091 0000 		lds r24,font_space
 5580               	.LVL564:
 5581 1b5c 6091 0000 		lds r22,font_w
 5582 1b60 70E0      		ldi r23,lo8(0)
 5583 1b62 680F      		add r22,r24
 5584 1b64 711D      		adc r23,__zero_reg__
 5585 1b66 8091 0000 		lds r24,x_offset
 5586 1b6a 90E0      		ldi r25,lo8(0)
 5587               	.LVL565:
 5588 1b6c 0E94 0000 		call __divmodhi4
 5589 1b70 8093 0000 		sts x_offset,r24
 5590               	.LM848:
 5591 1b74 9091 0000 		lds r25,debug_msg
 5592 1b78 9230      		cpi r25,lo8(2)
 5593 1b7a 01F0      		breq .L477
 5594               	.L376:
 5595               	.LM849:
 5596 1b7c 8091 0000 		lds r24,CR_LF
 5597 1b80 8130      		cpi r24,lo8(1)
 5598 1b82 01F0      		breq .+2
 5599 1b84 00C0      		rjmp .L368
 5600               	.LM850:
 5601 1b86 9230      		cpi r25,lo8(2)
 5602 1b88 01F0      		breq .L476
 5603               	.L378:
 5604               	.LM851:
 5605 1b8a 7091 0000 		lds r23,y_offset
 5606 1b8e 6091 0000 		lds r22,font_h
 5607 1b92 862F      		mov r24,r22
 5608 1b94 90E0      		ldi r25,lo8(0)
 5609 1b96 472F      		mov r20,r23
 5610 1b98 50E0      		ldi r21,lo8(0)
 5611 1b9a 2227      		clr r18
 5612 1b9c 3327      		clr r19
 5613 1b9e 281B      		sub r18,r24
 5614 1ba0 390B      		sbc r19,r25
 5615 1ba2 281B      		sub r18,r24
 5616 1ba4 390B      		sbc r19,r25
 5617 1ba6 205C      		subi r18,lo8(-(64))
 5618 1ba8 3F4F      		sbci r19,hi8(-(64))
 5619 1baa 2417      		cp r18,r20
 5620 1bac 3507      		cpc r19,r21
 5621 1bae 04F0      		brlt .+2
 5622 1bb0 00C0      		rjmp .L380
 5623               	.LM852:
 5624 1bb2 872F      		mov r24,r23
 5625 1bb4 0E94 0000 		call __udivmodqi4
 5626 1bb8 9093 0000 		sts y_offset,r25
 5627 1bbc 00C0      		rjmp .L368
 5628               	.L477:
 5629               	.LBB220:
 5630               	.LBB197:
 5631               	.LM853:
 5632 1bbe 8091 C000 		lds r24,192
 5633 1bc2 85FF      		sbrs r24,5
 5634 1bc4 00C0      		rjmp .L477
 5635               	.LM854:
 5636 1bc6 5092 C600 		sts 198,r5
 5637 1bca 00C0      		rjmp .L376
 5638               	.L476:
 5639               	.LBE197:
 5640               	.LBE220:
 5641               	.LBB221:
 5642               	.LBB222:
 5643               	.LM855:
 5644 1bcc 8091 C000 		lds r24,192
 5645 1bd0 85FF      		sbrs r24,5
 5646 1bd2 00C0      		rjmp .L476
 5647               	.LM856:
 5648 1bd4 C092 C600 		sts 198,r12
 5649 1bd8 00C0      		rjmp .L378
 5650               	.LVL566:
 5651               	.L511:
 5652               	.LBE222:
 5653               	.LBE221:
 5654               	.LM857:
 5655 1bda 0E94 0000 		call del_char
 5656               	.LVL567:
 5657               	.LM858:
 5658 1bde 8091 0000 		lds r24,debug_msg
 5659 1be2 8230      		cpi r24,lo8(2)
 5660 1be4 01F0      		breq .+2
 5661 1be6 00C0      		rjmp .L368
 5662               	.L483:
 5663               	.LBB223:
 5664               	.LBB224:
 5665               	.LM859:
 5666 1be8 8091 C000 		lds r24,192
 5667 1bec 85FF      		sbrs r24,5
 5668 1bee 00C0      		rjmp .L483
 5669               	.LM860:
 5670 1bf0 88E0      		ldi r24,lo8(8)
 5671 1bf2 8093 C600 		sts 198,r24
 5672 1bf6 00C0      		rjmp .L368
 5673               	.LVL568:
 5674               	.L371:
 5675               	.LBE224:
 5676               	.LBE223:
 5677               	.LM861:
 5678 1bf8 7091 0000 		lds r23,y_offset
 5679 1bfc 6091 0000 		lds r22,font_h
 5680 1c00 862F      		mov r24,r22
 5681               	.LVL569:
 5682 1c02 90E0      		ldi r25,lo8(0)
 5683               	.LVL570:
 5684 1c04 472F      		mov r20,r23
 5685 1c06 50E0      		ldi r21,lo8(0)
 5686 1c08 2227      		clr r18
 5687 1c0a 3327      		clr r19
 5688 1c0c 281B      		sub r18,r24
 5689 1c0e 390B      		sbc r19,r25
 5690 1c10 281B      		sub r18,r24
 5691 1c12 390B      		sbc r19,r25
 5692 1c14 205C      		subi r18,lo8(-(64))
 5693 1c16 3F4F      		sbci r19,hi8(-(64))
 5694 1c18 2417      		cp r18,r20
 5695 1c1a 3507      		cpc r19,r21
 5696 1c1c 04F4      		brge .L381
 5697               	.LM862:
 5698 1c1e 872F      		mov r24,r23
 5699 1c20 0E94 0000 		call __udivmodqi4
 5700 1c24 9093 0000 		sts y_offset,r25
 5701               	.L382:
 5702               	.LM863:
 5703 1c28 8091 0000 		lds r24,debug_msg
 5704 1c2c 8230      		cpi r24,lo8(2)
 5705 1c2e 01F0      		breq .+2
 5706 1c30 00C0      		rjmp .L368
 5707               	.L475:
 5708               	.LBB225:
 5709               	.LBB194:
 5710               	.LM864:
 5711 1c32 8091 C000 		lds r24,192
 5712 1c36 85FF      		sbrs r24,5
 5713 1c38 00C0      		rjmp .L475
 5714               	.LM865:
 5715 1c3a C092 C600 		sts 198,r12
 5716 1c3e 00C0      		rjmp .L368
 5717               	.L381:
 5718               	.LBE194:
 5719               	.LBE225:
 5720               	.LM866:
 5721 1c40 670F      		add r22,r23
 5722 1c42 6093 0000 		sts y_offset,r22
 5723 1c46 00C0      		rjmp .L382
 5724               	.L380:
 5725               	.LM867:
 5726 1c48 670F      		add r22,r23
 5727 1c4a 6093 0000 		sts y_offset,r22
 5728 1c4e 00C0      		rjmp .L368
 5729               	.LVL571:
 5730               	.L432:
 5731               	.LM868:
 5732 1c50 8823      		tst r24
 5733 1c52 01F0      		breq .+2
 5734 1c54 00C0      		rjmp .L502
 5735 1c56 00C0      		rjmp .L433
 5736               	.LVL572:
 5737               	.L507:
 5738               	.LM869:
 5739 1c58 00D0      		rcall .
 5740 1c5a 00D0      		rcall .
 5741 1c5c EDB7      		in r30,__SP_L__
 5742 1c5e FEB7      		in r31,__SP_H__
 5743 1c60 3196      		adiw r30,1
 5744 1c62 ADB7      		in r26,__SP_L__
 5745 1c64 BEB7      		in r27,__SP_H__
 5746 1c66 1296      		adiw r26,1+1
 5747 1c68 9C92      		st X,r9
 5748 1c6a 8E92      		st -X,r8
 5749 1c6c 1197      		sbiw r26,1
 5750 1c6e 9283      		std Z+2,r25
 5751 1c70 1382      		std Z+3,__zero_reg__
 5752 1c72 0E94 0000 		call rprintf
 5753               	.LVL573:
 5754 1c76 0F90      		pop __tmp_reg__
 5755 1c78 0F90      		pop __tmp_reg__
 5756 1c7a 0F90      		pop __tmp_reg__
 5757 1c7c 0F90      		pop __tmp_reg__
 5758 1c7e 2091 0000 		lds r18,debug_msg
 5759 1c82 00C0      		rjmp .L387
 5760               	.LVL574:
 5761               	.L521:
 5762               	.LM870:
 5763 1c84 1092 0000 		sts aux_font,__zero_reg__
 5764               	.LM871:
 5765 1c88 B885      		ldd r27,Y+8
 5766 1c8a B093 0000 		sts font_w,r27
 5767               	.LM872:
 5768 1c8e E985      		ldd r30,Y+9
 5769 1c90 E093 0000 		sts font_h,r30
 5770               	.LM873:
 5771 1c94 FA85      		ldd r31,Y+10
 5772               	.LVL575:
 5773 1c96 F093 0000 		sts font_space,r31
 5774               	.LM874:
 5775 1c9a 2B85      		ldd r18,Y+11
 5776 1c9c 2093 0000 		sts font_bytes,r18
 5777               	.LM875:
 5778 1ca0 8C85      		ldd r24,Y+12
 5779 1ca2 9D85      		ldd r25,Y+13
 5780 1ca4 892B      		or r24,r25
 5781 1ca6 01F4      		brne .+2
 5782 1ca8 00C0      		rjmp .L428
 5783               	.LM876:
 5784 1caa 9E85      		ldd r25,Y+14
 5785 1cac 9093 0000 		sts font_bytes,r25
 5786 1cb0 00C0      		rjmp .L428
 5787               	.LVL576:
 5788               	.L522:
 5789               	.LM877:
 5790 1cb2 0FEF      		ldi r16,lo8(-1)
 5791               	.LVL577:
 5792 1cb4 00C0      		rjmp .L424
 5793               	.LVL578:
 5794               	.L523:
 5795               	.LM878:
 5796 1cb6 1092 0000 		sts CR_LF,__zero_reg__
 5797 1cba 00C0      		rjmp .L422
 5798               	.LVL579:
 5799               	.L509:
 5800               	.LM879:
 5801 1cbc 88E3      		ldi r24,lo8(56)
 5802 1cbe 68E1      		ldi r22,lo8(24)
 5803 1cc0 40E0      		ldi r20,lo8(0)
 5804 1cc2 24E0      		ldi r18,lo8(4)
 5805 1cc4 0E94 0000 		call draw_sprite
 5806 1cc8 00C0      		rjmp .L365
 5807               	.L366:
 5808               	.LM880:
 5809 1cca 8091 0000 		lds r24,baud_rate
 5810 1cce 0E94 0000 		call set_baud
 5811 1cd2 00C0      		rjmp .L367
 5812               	.LFE6:
 5814               	.global	baud_rate
 5815               		.data
 5818               	baud_rate:
 5819 0037 06        		.byte	6
 5820               	.global	RX_in
 5821               	.global	RX_in
 5822               		.section .bss
 5825               	RX_in:
 5826 0000 00        		.skip 1,0
 5827               	.global	RX_read
 5828               	.global	RX_read
 5831               	RX_read:
 5832 0001 0000      		.skip 2,0
 5833               	.global	RX_bytes
 5834               	.global	RX_bytes
 5837               	RX_bytes:
 5838 0003 00        		.skip 1,0
 5839               	.global	RX_pause
 5840               	.global	RX_pause
 5843               	RX_pause:
 5844 0004 00        		.skip 1,0
 5845               	.global	reverse
 5846               	.global	reverse
 5849               	reverse:
 5850 0005 00        		.skip 1,0
 5851               	.global	splash_screen
 5852               		.data
 5855               	splash_screen:
 5856 0038 01        		.byte	1
 5857               	.global	debug_msg
 5858               	.global	debug_msg
 5859               		.section .bss
 5862               	debug_msg:
 5863 0006 00        		.skip 1,0
 5864               	.global	BL_dutycycle
 5865               		.data
 5868               	BL_dutycycle:
 5869 0039 14        		.byte	20
 5870               	.global	RGB_red
 5873               	RGB_red:
 5874 003a 32        		.byte	50
 5875               	.global	RGB_green
 5876               	.global	RGB_green
 5877               		.section .bss
 5880               	RGB_green:
 5881 0007 00        		.skip 1,0
 5882               	.global	RGB_blue
 5883               	.global	RGB_blue
 5886               	RGB_blue:
 5887 0008 00        		.skip 1,0
 5888               	.global	RGB_counter
 5889               	.global	RGB_counter
 5892               	RGB_counter:
 5893 0009 00        		.skip 1,0
 5894               	.global	buttons
 5895               	.global	buttons
 5898               	buttons:
 5899 000a 00        		.skip 1,0
 5900               	.global	sprite
 5901               		.data
 5904               	sprite:
 5905 003b 0A        		.byte	10
 5906 003c 10        		.byte	16
 5907 003d 80        		.byte	-128
 5908 003e C0        		.byte	-64
 5909 003f 40        		.byte	64
 5910 0040 0C        		.byte	12
 5911 0041 3E        		.byte	62
 5912 0042 FE        		.byte	-2
 5913 0043 F2        		.byte	-14
 5914 0044 E0        		.byte	-32
 5915 0045 F0        		.byte	-16
 5916 0046 E0        		.byte	-32
 5917 0047 FF        		.byte	-1
 5918 0048 7F        		.byte	127
 5919 0049 3F        		.byte	63
 5920 004a 1F        		.byte	31
 5921 004b 1F        		.byte	31
 5922 004c 1F        		.byte	31
 5923 004d 1F        		.byte	31
 5924 004e 0F        		.byte	15
 5925 004f 07        		.byte	7
 5926 0050 03        		.byte	3
 5927 0051 0000 0000 		.skip 638,0
 5927      0000 0000 
 5927      0000 0000 
 5927      0000 0000 
 5927      0000 0000 
 5928               	.global	x_offset
 5929               	.global	x_offset
 5930               		.section .bss
 5933               	x_offset:
 5934 000b 00        		.skip 1,0
 5935               	.global	y_offset
 5936               	.global	y_offset
 5939               	y_offset:
 5940 000c 00        		.skip 1,0
 5941               	.global	font_mode
 5942               		.data
 5945               	font_mode:
 5946 02cf 07        		.byte	7
 5947               	.global	CR_LF
 5950               	CR_LF:
 5951 02d0 01        		.byte	1
 5952               	.global	aux_font
 5953               	.global	aux_font
 5954               		.section .bss
 5957               	aux_font:
 5958 000d 00        		.skip 1,0
 5959               		.lcomm y.2642,2
 5960               		.lcomm x.2641,2
 5961               		.lcomm height.2640,2
 5962               		.lcomm width.2639,2
 5963               		.lcomm temp_data2.2462,1
 5964               		.lcomm temp_data1.2461,1
 5965               		.lcomm temp_x.2460,1
 5966               		.lcomm temp_side.2459,1
 5967               		.lcomm temp_page.2458,1
 5968               		.section	.progmem.data,"a",@progbits
 5971               	text_array:
 5972 0000 05        		.byte	5
 5973 0001 08        		.byte	8
 5974 0002 01        		.byte	1
 5975 0003 00        		.byte	0
 5976 0004 00        		.byte	0
 5977 0005 00        		.byte	0
 5978 0006 00        		.byte	0
 5979 0007 00        		.byte	0
 5980 0008 00        		.byte	0
 5981 0009 6F        		.byte	111
 5982 000a 6F        		.byte	111
 5983 000b 00        		.byte	0
 5984 000c 00        		.byte	0
 5985 000d 00        		.byte	0
 5986 000e 07        		.byte	7
 5987 000f 00        		.byte	0
 5988 0010 07        		.byte	7
 5989 0011 00        		.byte	0
 5990 0012 14        		.byte	20
 5991 0013 7F        		.byte	127
 5992 0014 14        		.byte	20
 5993 0015 7F        		.byte	127
 5994 0016 14        		.byte	20
 5995 0017 00        		.byte	0
 5996 0018 26        		.byte	38
 5997 0019 6B        		.byte	107
 5998 001a 2A        		.byte	42
 5999 001b 10        		.byte	16
 6000 001c 43        		.byte	67
 6001 001d 33        		.byte	51
 6002 001e 08        		.byte	8
 6003 001f 64        		.byte	100
 6004 0020 63        		.byte	99
 6005 0021 32        		.byte	50
 6006 0022 4D        		.byte	77
 6007 0023 49        		.byte	73
 6008 0024 36        		.byte	54
 6009 0025 50        		.byte	80
 6010 0026 00        		.byte	0
 6011 0027 00        		.byte	0
 6012 0028 07        		.byte	7
 6013 0029 00        		.byte	0
 6014 002a 00        		.byte	0
 6015 002b 00        		.byte	0
 6016 002c 1C        		.byte	28
 6017 002d 22        		.byte	34
 6018 002e 41        		.byte	65
 6019 002f 00        		.byte	0
 6020 0030 00        		.byte	0
 6021 0031 41        		.byte	65
 6022 0032 22        		.byte	34
 6023 0033 1C        		.byte	28
 6024 0034 00        		.byte	0
 6025 0035 11        		.byte	17
 6026 0036 0A        		.byte	10
 6027 0037 1F        		.byte	31
 6028 0038 0A        		.byte	10
 6029 0039 11        		.byte	17
 6030 003a 10        		.byte	16
 6031 003b 10        		.byte	16
 6032 003c 7C        		.byte	124
 6033 003d 10        		.byte	16
 6034 003e 10        		.byte	16
 6035 003f 00        		.byte	0
 6036 0040 00        		.byte	0
 6037 0041 A0        		.byte	-96
 6038 0042 60        		.byte	96
 6039 0043 00        		.byte	0
 6040 0044 10        		.byte	16
 6041 0045 10        		.byte	16
 6042 0046 10        		.byte	16
 6043 0047 10        		.byte	16
 6044 0048 10        		.byte	16
 6045 0049 00        		.byte	0
 6046 004a 00        		.byte	0
 6047 004b 60        		.byte	96
 6048 004c 60        		.byte	96
 6049 004d 00        		.byte	0
 6050 004e 40        		.byte	64
 6051 004f 30        		.byte	48
 6052 0050 08        		.byte	8
 6053 0051 06        		.byte	6
 6054 0052 01        		.byte	1
 6055 0053 3E        		.byte	62
 6056 0054 51        		.byte	81
 6057 0055 49        		.byte	73
 6058 0056 45        		.byte	69
 6059 0057 3E        		.byte	62
 6060 0058 00        		.byte	0
 6061 0059 42        		.byte	66
 6062 005a 7F        		.byte	127
 6063 005b 40        		.byte	64
 6064 005c 00        		.byte	0
 6065 005d 42        		.byte	66
 6066 005e 61        		.byte	97
 6067 005f 51        		.byte	81
 6068 0060 49        		.byte	73
 6069 0061 46        		.byte	70
 6070 0062 22        		.byte	34
 6071 0063 41        		.byte	65
 6072 0064 49        		.byte	73
 6073 0065 49        		.byte	73
 6074 0066 36        		.byte	54
 6075 0067 08        		.byte	8
 6076 0068 0C        		.byte	12
 6077 0069 0A        		.byte	10
 6078 006a 7F        		.byte	127
 6079 006b 08        		.byte	8
 6080 006c 27        		.byte	39
 6081 006d 45        		.byte	69
 6082 006e 45        		.byte	69
 6083 006f 45        		.byte	69
 6084 0070 39        		.byte	57
 6085 0071 3C        		.byte	60
 6086 0072 4A        		.byte	74
 6087 0073 49        		.byte	73
 6088 0074 49        		.byte	73
 6089 0075 30        		.byte	48
 6090 0076 01        		.byte	1
 6091 0077 61        		.byte	97
 6092 0078 19        		.byte	25
 6093 0079 07        		.byte	7
 6094 007a 01        		.byte	1
 6095 007b 36        		.byte	54
 6096 007c 49        		.byte	73
 6097 007d 49        		.byte	73
 6098 007e 49        		.byte	73
 6099 007f 36        		.byte	54
 6100 0080 06        		.byte	6
 6101 0081 49        		.byte	73
 6102 0082 49        		.byte	73
 6103 0083 29        		.byte	41
 6104 0084 1E        		.byte	30
 6105 0085 00        		.byte	0
 6106 0086 00        		.byte	0
 6107 0087 6C        		.byte	108
 6108 0088 6C        		.byte	108
 6109 0089 00        		.byte	0
 6110 008a 00        		.byte	0
 6111 008b 00        		.byte	0
 6112 008c AC        		.byte	-84
 6113 008d 6C        		.byte	108
 6114 008e 00        		.byte	0
 6115 008f 08        		.byte	8
 6116 0090 14        		.byte	20
 6117 0091 22        		.byte	34
 6118 0092 41        		.byte	65
 6119 0093 00        		.byte	0
 6120 0094 14        		.byte	20
 6121 0095 14        		.byte	20
 6122 0096 14        		.byte	20
 6123 0097 14        		.byte	20
 6124 0098 14        		.byte	20
 6125 0099 00        		.byte	0
 6126 009a 41        		.byte	65
 6127 009b 22        		.byte	34
 6128 009c 14        		.byte	20
 6129 009d 08        		.byte	8
 6130 009e 02        		.byte	2
 6131 009f 01        		.byte	1
 6132 00a0 51        		.byte	81
 6133 00a1 09        		.byte	9
 6134 00a2 06        		.byte	6
 6135 00a3 3E        		.byte	62
 6136 00a4 41        		.byte	65
 6137 00a5 5D        		.byte	93
 6138 00a6 5D        		.byte	93
 6139 00a7 46        		.byte	70
 6140 00a8 7C        		.byte	124
 6141 00a9 12        		.byte	18
 6142 00aa 11        		.byte	17
 6143 00ab 12        		.byte	18
 6144 00ac 7C        		.byte	124
 6145 00ad 7F        		.byte	127
 6146 00ae 49        		.byte	73
 6147 00af 49        		.byte	73
 6148 00b0 49        		.byte	73
 6149 00b1 36        		.byte	54
 6150 00b2 3E        		.byte	62
 6151 00b3 41        		.byte	65
 6152 00b4 41        		.byte	65
 6153 00b5 41        		.byte	65
 6154 00b6 22        		.byte	34
 6155 00b7 7F        		.byte	127
 6156 00b8 41        		.byte	65
 6157 00b9 41        		.byte	65
 6158 00ba 41        		.byte	65
 6159 00bb 3E        		.byte	62
 6160 00bc 7F        		.byte	127
 6161 00bd 49        		.byte	73
 6162 00be 49        		.byte	73
 6163 00bf 49        		.byte	73
 6164 00c0 41        		.byte	65
 6165 00c1 7F        		.byte	127
 6166 00c2 09        		.byte	9
 6167 00c3 09        		.byte	9
 6168 00c4 09        		.byte	9
 6169 00c5 01        		.byte	1
 6170 00c6 3E        		.byte	62
 6171 00c7 41        		.byte	65
 6172 00c8 41        		.byte	65
 6173 00c9 51        		.byte	81
 6174 00ca 72        		.byte	114
 6175 00cb 7F        		.byte	127
 6176 00cc 08        		.byte	8
 6177 00cd 08        		.byte	8
 6178 00ce 08        		.byte	8
 6179 00cf 7F        		.byte	127
 6180 00d0 41        		.byte	65
 6181 00d1 41        		.byte	65
 6182 00d2 7F        		.byte	127
 6183 00d3 41        		.byte	65
 6184 00d4 41        		.byte	65
 6185 00d5 21        		.byte	33
 6186 00d6 41        		.byte	65
 6187 00d7 3F        		.byte	63
 6188 00d8 01        		.byte	1
 6189 00d9 01        		.byte	1
 6190 00da 7F        		.byte	127
 6191 00db 08        		.byte	8
 6192 00dc 14        		.byte	20
 6193 00dd 22        		.byte	34
 6194 00de 41        		.byte	65
 6195 00df 7F        		.byte	127
 6196 00e0 40        		.byte	64
 6197 00e1 40        		.byte	64
 6198 00e2 40        		.byte	64
 6199 00e3 40        		.byte	64
 6200 00e4 7F        		.byte	127
 6201 00e5 02        		.byte	2
 6202 00e6 04        		.byte	4
 6203 00e7 02        		.byte	2
 6204 00e8 7F        		.byte	127
 6205 00e9 7F        		.byte	127
 6206 00ea 06        		.byte	6
 6207 00eb 08        		.byte	8
 6208 00ec 30        		.byte	48
 6209 00ed 7F        		.byte	127
 6210 00ee 3E        		.byte	62
 6211 00ef 41        		.byte	65
 6212 00f0 41        		.byte	65
 6213 00f1 41        		.byte	65
 6214 00f2 3E        		.byte	62
 6215 00f3 7F        		.byte	127
 6216 00f4 09        		.byte	9
 6217 00f5 09        		.byte	9
 6218 00f6 09        		.byte	9
 6219 00f7 06        		.byte	6
 6220 00f8 3E        		.byte	62
 6221 00f9 41        		.byte	65
 6222 00fa 41        		.byte	65
 6223 00fb 61        		.byte	97
 6224 00fc 7E        		.byte	126
 6225 00fd 7F        		.byte	127
 6226 00fe 09        		.byte	9
 6227 00ff 19        		.byte	25
 6228 0100 29        		.byte	41
 6229 0101 46        		.byte	70
 6230 0102 26        		.byte	38
 6231 0103 49        		.byte	73
 6232 0104 49        		.byte	73
 6233 0105 49        		.byte	73
 6234 0106 32        		.byte	50
 6235 0107 01        		.byte	1
 6236 0108 01        		.byte	1
 6237 0109 7F        		.byte	127
 6238 010a 01        		.byte	1
 6239 010b 01        		.byte	1
 6240 010c 3F        		.byte	63
 6241 010d 40        		.byte	64
 6242 010e 40        		.byte	64
 6243 010f 40        		.byte	64
 6244 0110 3F        		.byte	63
 6245 0111 1F        		.byte	31
 6246 0112 20        		.byte	32
 6247 0113 40        		.byte	64
 6248 0114 20        		.byte	32
 6249 0115 1F        		.byte	31
 6250 0116 3F        		.byte	63
 6251 0117 40        		.byte	64
 6252 0118 30        		.byte	48
 6253 0119 40        		.byte	64
 6254 011a 3F        		.byte	63
 6255 011b 63        		.byte	99
 6256 011c 14        		.byte	20
 6257 011d 08        		.byte	8
 6258 011e 14        		.byte	20
 6259 011f 63        		.byte	99
 6260 0120 03        		.byte	3
 6261 0121 04        		.byte	4
 6262 0122 78        		.byte	120
 6263 0123 04        		.byte	4
 6264 0124 03        		.byte	3
 6265 0125 61        		.byte	97
 6266 0126 51        		.byte	81
 6267 0127 49        		.byte	73
 6268 0128 45        		.byte	69
 6269 0129 43        		.byte	67
 6270 012a 00        		.byte	0
 6271 012b 00        		.byte	0
 6272 012c 7F        		.byte	127
 6273 012d 41        		.byte	65
 6274 012e 00        		.byte	0
 6275 012f 01        		.byte	1
 6276 0130 06        		.byte	6
 6277 0131 08        		.byte	8
 6278 0132 30        		.byte	48
 6279 0133 40        		.byte	64
 6280 0134 00        		.byte	0
 6281 0135 00        		.byte	0
 6282 0136 41        		.byte	65
 6283 0137 7F        		.byte	127
 6284 0138 00        		.byte	0
 6285 0139 04        		.byte	4
 6286 013a 02        		.byte	2
 6287 013b 01        		.byte	1
 6288 013c 02        		.byte	2
 6289 013d 04        		.byte	4
 6290 013e 80        		.byte	-128
 6291 013f 80        		.byte	-128
 6292 0140 80        		.byte	-128
 6293 0141 80        		.byte	-128
 6294 0142 80        		.byte	-128
 6295 0143 01        		.byte	1
 6296 0144 02        		.byte	2
 6297 0145 04        		.byte	4
 6298 0146 00        		.byte	0
 6299 0147 00        		.byte	0
 6300 0148 20        		.byte	32
 6301 0149 54        		.byte	84
 6302 014a 54        		.byte	84
 6303 014b 54        		.byte	84
 6304 014c 78        		.byte	120
 6305 014d 7F        		.byte	127
 6306 014e 48        		.byte	72
 6307 014f 44        		.byte	68
 6308 0150 44        		.byte	68
 6309 0151 38        		.byte	56
 6310 0152 38        		.byte	56
 6311 0153 44        		.byte	68
 6312 0154 44        		.byte	68
 6313 0155 44        		.byte	68
 6314 0156 28        		.byte	40
 6315 0157 38        		.byte	56
 6316 0158 44        		.byte	68
 6317 0159 44        		.byte	68
 6318 015a 48        		.byte	72
 6319 015b 7F        		.byte	127
 6320 015c 38        		.byte	56
 6321 015d 54        		.byte	84
 6322 015e 54        		.byte	84
 6323 015f 54        		.byte	84
 6324 0160 18        		.byte	24
 6325 0161 08        		.byte	8
 6326 0162 7E        		.byte	126
 6327 0163 09        		.byte	9
 6328 0164 01        		.byte	1
 6329 0165 02        		.byte	2
 6330 0166 18        		.byte	24
 6331 0167 A4        		.byte	-92
 6332 0168 A4        		.byte	-92
 6333 0169 A4        		.byte	-92
 6334 016a 78        		.byte	120
 6335 016b 7F        		.byte	127
 6336 016c 08        		.byte	8
 6337 016d 08        		.byte	8
 6338 016e 08        		.byte	8
 6339 016f 70        		.byte	112
 6340 0170 00        		.byte	0
 6341 0171 48        		.byte	72
 6342 0172 7A        		.byte	122
 6343 0173 40        		.byte	64
 6344 0174 00        		.byte	0
 6345 0175 40        		.byte	64
 6346 0176 80        		.byte	-128
 6347 0177 80        		.byte	-128
 6348 0178 88        		.byte	-120
 6349 0179 7A        		.byte	122
 6350 017a 7F        		.byte	127
 6351 017b 10        		.byte	16
 6352 017c 10        		.byte	16
 6353 017d 28        		.byte	40
 6354 017e 44        		.byte	68
 6355 017f 00        		.byte	0
 6356 0180 41        		.byte	65
 6357 0181 7F        		.byte	127
 6358 0182 40        		.byte	64
 6359 0183 00        		.byte	0
 6360 0184 7C        		.byte	124
 6361 0185 04        		.byte	4
 6362 0186 38        		.byte	56
 6363 0187 04        		.byte	4
 6364 0188 78        		.byte	120
 6365 0189 7C        		.byte	124
 6366 018a 04        		.byte	4
 6367 018b 04        		.byte	4
 6368 018c 04        		.byte	4
 6369 018d 78        		.byte	120
 6370 018e 38        		.byte	56
 6371 018f 44        		.byte	68
 6372 0190 44        		.byte	68
 6373 0191 44        		.byte	68
 6374 0192 38        		.byte	56
 6375 0193 FC        		.byte	-4
 6376 0194 24        		.byte	36
 6377 0195 24        		.byte	36
 6378 0196 24        		.byte	36
 6379 0197 18        		.byte	24
 6380 0198 18        		.byte	24
 6381 0199 24        		.byte	36
 6382 019a 24        		.byte	36
 6383 019b FC        		.byte	-4
 6384 019c 80        		.byte	-128
 6385 019d 7C        		.byte	124
 6386 019e 08        		.byte	8
 6387 019f 04        		.byte	4
 6388 01a0 04        		.byte	4
 6389 01a1 08        		.byte	8
 6390 01a2 48        		.byte	72
 6391 01a3 54        		.byte	84
 6392 01a4 54        		.byte	84
 6393 01a5 54        		.byte	84
 6394 01a6 20        		.byte	32
 6395 01a7 00        		.byte	0
 6396 01a8 08        		.byte	8
 6397 01a9 3C        		.byte	60
 6398 01aa 48        		.byte	72
 6399 01ab 20        		.byte	32
 6400 01ac 3C        		.byte	60
 6401 01ad 40        		.byte	64
 6402 01ae 40        		.byte	64
 6403 01af 40        		.byte	64
 6404 01b0 7C        		.byte	124
 6405 01b1 0C        		.byte	12
 6406 01b2 30        		.byte	48
 6407 01b3 40        		.byte	64
 6408 01b4 30        		.byte	48
 6409 01b5 0C        		.byte	12
 6410 01b6 1C        		.byte	28
 6411 01b7 60        		.byte	96
 6412 01b8 18        		.byte	24
 6413 01b9 60        		.byte	96
 6414 01ba 1C        		.byte	28
 6415 01bb 44        		.byte	68
 6416 01bc 28        		.byte	40
 6417 01bd 10        		.byte	16
 6418 01be 28        		.byte	40
 6419 01bf 44        		.byte	68
 6420 01c0 1C        		.byte	28
 6421 01c1 A0        		.byte	-96
 6422 01c2 A0        		.byte	-96
 6423 01c3 A0        		.byte	-96
 6424 01c4 7C        		.byte	124
 6425 01c5 44        		.byte	68
 6426 01c6 64        		.byte	100
 6427 01c7 54        		.byte	84
 6428 01c8 4C        		.byte	76
 6429 01c9 44        		.byte	68
 6430 01ca 00        		.byte	0
 6431 01cb 08        		.byte	8
 6432 01cc 36        		.byte	54
 6433 01cd 41        		.byte	65
 6434 01ce 41        		.byte	65
 6435 01cf 20        		.byte	32
 6436 01d0 40        		.byte	64
 6437 01d1 FF        		.byte	-1
 6438 01d2 40        		.byte	64
 6439 01d3 20        		.byte	32
 6440 01d4 41        		.byte	65
 6441 01d5 41        		.byte	65
 6442 01d6 36        		.byte	54
 6443 01d7 08        		.byte	8
 6444 01d8 00        		.byte	0
 6445 01d9 10        		.byte	16
 6446 01da 08        		.byte	8
 6447 01db 18        		.byte	24
 6448 01dc 10        		.byte	16
 6449 01dd 08        		.byte	8
 6452               	aux_text_array:
 6453 01de 0A        		.byte	10
 6454 01df 10        		.byte	16
 6455 01e0 01        		.byte	1
 6456 01e1 00        		.byte	0
 6457 01e2 00        		.byte	0
 6458 01e3 00        		.byte	0
 6459 01e4 00        		.byte	0
 6460 01e5 00        		.byte	0
 6461 01e6 00        		.byte	0
 6462 01e7 00        		.byte	0
 6463 01e8 00        		.byte	0
 6464 01e9 00        		.byte	0
 6465 01ea 00        		.byte	0
 6466 01eb 00        		.byte	0
 6467 01ec 00        		.byte	0
 6468 01ed 00        		.byte	0
 6469 01ee 00        		.byte	0
 6470 01ef 00        		.byte	0
 6471 01f0 00        		.byte	0
 6472 01f1 00        		.byte	0
 6473 01f2 00        		.byte	0
 6474 01f3 00        		.byte	0
 6475 01f4 00        		.byte	0
 6476 01f5 00        		.byte	0
 6477 01f6 00        		.byte	0
 6478 01f7 00        		.byte	0
 6479 01f8 00        		.byte	0
 6480 01f9 FF        		.byte	-1
 6481 01fa FF        		.byte	-1
 6482 01fb 00        		.byte	0
 6483 01fc 00        		.byte	0
 6484 01fd 00        		.byte	0
 6485 01fe 00        		.byte	0
 6486 01ff 00        		.byte	0
 6487 0200 00        		.byte	0
 6488 0201 00        		.byte	0
 6489 0202 00        		.byte	0
 6490 0203 0C        		.byte	12
 6491 0204 0C        		.byte	12
 6492 0205 00        		.byte	0
 6493 0206 00        		.byte	0
 6494 0207 00        		.byte	0
 6495 0208 00        		.byte	0
 6496 0209 00        		.byte	0
 6497 020a 00        		.byte	0
 6498 020b 0F        		.byte	15
 6499 020c 0F        		.byte	15
 6500 020d 00        		.byte	0
 6501 020e 00        		.byte	0
 6502 020f 0F        		.byte	15
 6503 0210 0F        		.byte	15
 6504 0211 00        		.byte	0
 6505 0212 00        		.byte	0
 6506 0213 00        		.byte	0
 6507 0214 00        		.byte	0
 6508 0215 00        		.byte	0
 6509 0216 00        		.byte	0
 6510 0217 00        		.byte	0
 6511 0218 00        		.byte	0
 6512 0219 00        		.byte	0
 6513 021a 00        		.byte	0
 6514 021b 00        		.byte	0
 6515 021c 00        		.byte	0
 6516 021d 80        		.byte	-128
 6517 021e 98        		.byte	-104
 6518 021f D8        		.byte	-40
 6519 0220 FC        		.byte	-4
 6520 0221 9F        		.byte	-97
 6521 0222 99        		.byte	-103
 6522 0223 F8        		.byte	-8
 6523 0224 FF        		.byte	-1
 6524 0225 9F        		.byte	-97
 6525 0226 18        		.byte	24
 6526 0227 01        		.byte	1
 6527 0228 0D        		.byte	13
 6528 0229 0F        		.byte	15
 6529 022a 01        		.byte	1
 6530 022b 01        		.byte	1
 6531 022c 0F        		.byte	15
 6532 022d 07        		.byte	7
 6533 022e 01        		.byte	1
 6534 022f 01        		.byte	1
 6535 0230 00        		.byte	0
 6536 0231 00        		.byte	0
 6537 0232 38        		.byte	56
 6538 0233 7C        		.byte	124
 6539 0234 6C        		.byte	108
 6540 0235 FF        		.byte	-1
 6541 0236 CC        		.byte	-52
 6542 0237 CC        		.byte	-52
 6543 0238 80        		.byte	-128
 6544 0239 00        		.byte	0
 6545 023a 00        		.byte	0
 6546 023b 00        		.byte	0
 6547 023c 06        		.byte	6
 6548 023d 0C        		.byte	12
 6549 023e 0C        		.byte	12
 6550 023f 3F        		.byte	63
 6551 0240 0C        		.byte	12
 6552 0241 0F        		.byte	15
 6553 0242 07        		.byte	7
 6554 0243 00        		.byte	0
 6555 0244 00        		.byte	0
 6556 0245 8E        		.byte	-114
 6557 0246 91        		.byte	-111
 6558 0247 51        		.byte	81
 6559 0248 51        		.byte	81
 6560 0249 4E        		.byte	78
 6561 024a A0        		.byte	-96
 6562 024b A0        		.byte	-96
 6563 024c 90        		.byte	-112
 6564 024d 10        		.byte	16
 6565 024e 00        		.byte	0
 6566 024f 00        		.byte	0
 6567 0250 00        		.byte	0
 6568 0251 00        		.byte	0
 6569 0252 00        		.byte	0
 6570 0253 07        		.byte	7
 6571 0254 08        		.byte	8
 6572 0255 08        		.byte	8
 6573 0256 08        		.byte	8
 6574 0257 07        		.byte	7
 6575 0258 00        		.byte	0
 6576 0259 00        		.byte	0
 6577 025a 80        		.byte	-128
 6578 025b EE        		.byte	-18
 6579 025c 3F        		.byte	63
 6580 025d 73        		.byte	115
 6581 025e E3        		.byte	-29
 6582 025f C3        		.byte	-61
 6583 0260 06        		.byte	6
 6584 0261 C0        		.byte	-64
 6585 0262 C0        		.byte	-64
 6586 0263 00        		.byte	0
 6587 0264 03        		.byte	3
 6588 0265 07        		.byte	7
 6589 0266 0E        		.byte	14
 6590 0267 0C        		.byte	12
 6591 0268 0C        		.byte	12
 6592 0269 0F        		.byte	15
 6593 026a 0F        		.byte	15
 6594 026b 0F        		.byte	15
 6595 026c 09        		.byte	9
 6596 026d 00        		.byte	0
 6597 026e 00        		.byte	0
 6598 026f 00        		.byte	0
 6599 0270 00        		.byte	0
 6600 0271 0F        		.byte	15
 6601 0272 0F        		.byte	15
 6602 0273 00        		.byte	0
 6603 0274 00        		.byte	0
 6604 0275 00        		.byte	0
 6605 0276 00        		.byte	0
 6606 0277 00        		.byte	0
 6607 0278 00        		.byte	0
 6608 0279 00        		.byte	0
 6609 027a 00        		.byte	0
 6610 027b 00        		.byte	0
 6611 027c 00        		.byte	0
 6612 027d 00        		.byte	0
 6613 027e 00        		.byte	0
 6614 027f 00        		.byte	0
 6615 0280 00        		.byte	0
 6616 0281 00        		.byte	0
 6617 0282 00        		.byte	0
 6618 0283 00        		.byte	0
 6619 0284 F0        		.byte	-16
 6620 0285 FE        		.byte	-2
 6621 0286 0F        		.byte	15
 6622 0287 01        		.byte	1
 6623 0288 00        		.byte	0
 6624 0289 00        		.byte	0
 6625 028a 00        		.byte	0
 6626 028b 00        		.byte	0
 6627 028c 00        		.byte	0
 6628 028d 00        		.byte	0
 6629 028e 03        		.byte	3
 6630 028f 1F        		.byte	31
 6631 0290 3C        		.byte	60
 6632 0291 20        		.byte	32
 6633 0292 00        		.byte	0
 6634 0293 00        		.byte	0
 6635 0294 00        		.byte	0
 6636 0295 00        		.byte	0
 6637 0296 00        		.byte	0
 6638 0297 01        		.byte	1
 6639 0298 0F        		.byte	15
 6640 0299 FE        		.byte	-2
 6641 029a F0        		.byte	-16
 6642 029b 00        		.byte	0
 6643 029c 00        		.byte	0
 6644 029d 00        		.byte	0
 6645 029e 00        		.byte	0
 6646 029f 00        		.byte	0
 6647 02a0 00        		.byte	0
 6648 02a1 20        		.byte	32
 6649 02a2 3C        		.byte	60
 6650 02a3 1F        		.byte	31
 6651 02a4 03        		.byte	3
 6652 02a5 00        		.byte	0
 6653 02a6 00        		.byte	0
 6654 02a7 00        		.byte	0
 6655 02a8 00        		.byte	0
 6656 02a9 00        		.byte	0
 6657 02aa 24        		.byte	36
 6658 02ab 3C        		.byte	60
 6659 02ac 18        		.byte	24
 6660 02ad FF        		.byte	-1
 6661 02ae 18        		.byte	24
 6662 02af 3C        		.byte	60
 6663 02b0 24        		.byte	36
 6664 02b1 00        		.byte	0
 6665 02b2 00        		.byte	0
 6666 02b3 00        		.byte	0
 6667 02b4 00        		.byte	0
 6668 02b5 00        		.byte	0
 6669 02b6 00        		.byte	0
 6670 02b7 00        		.byte	0
 6671 02b8 00        		.byte	0
 6672 02b9 00        		.byte	0
 6673 02ba 00        		.byte	0
 6674 02bb 00        		.byte	0
 6675 02bc 00        		.byte	0
 6676 02bd 00        		.byte	0
 6677 02be C0        		.byte	-64
 6678 02bf C0        		.byte	-64
 6679 02c0 C0        		.byte	-64
 6680 02c1 F8        		.byte	-8
 6681 02c2 F8        		.byte	-8
 6682 02c3 C0        		.byte	-64
 6683 02c4 C0        		.byte	-64
 6684 02c5 C0        		.byte	-64
 6685 02c6 00        		.byte	0
 6686 02c7 00        		.byte	0
 6687 02c8 00        		.byte	0
 6688 02c9 00        		.byte	0
 6689 02ca 00        		.byte	0
 6690 02cb 07        		.byte	7
 6691 02cc 07        		.byte	7
 6692 02cd 00        		.byte	0
 6693 02ce 00        		.byte	0
 6694 02cf 00        		.byte	0
 6695 02d0 00        		.byte	0
 6696 02d1 00        		.byte	0
 6697 02d2 00        		.byte	0
 6698 02d3 00        		.byte	0
 6699 02d4 00        		.byte	0
 6700 02d5 00        		.byte	0
 6701 02d6 00        		.byte	0
 6702 02d7 00        		.byte	0
 6703 02d8 00        		.byte	0
 6704 02d9 00        		.byte	0
 6705 02da 00        		.byte	0
 6706 02db 00        		.byte	0
 6707 02dc 00        		.byte	0
 6708 02dd 00        		.byte	0
 6709 02de 20        		.byte	32
 6710 02df 3E        		.byte	62
 6711 02e0 1E        		.byte	30
 6712 02e1 00        		.byte	0
 6713 02e2 00        		.byte	0
 6714 02e3 00        		.byte	0
 6715 02e4 00        		.byte	0
 6716 02e5 00        		.byte	0
 6717 02e6 00        		.byte	0
 6718 02e7 80        		.byte	-128
 6719 02e8 80        		.byte	-128
 6720 02e9 80        		.byte	-128
 6721 02ea 80        		.byte	-128
 6722 02eb 80        		.byte	-128
 6723 02ec 00        		.byte	0
 6724 02ed 00        		.byte	0
 6725 02ee 00        		.byte	0
 6726 02ef 00        		.byte	0
 6727 02f0 00        		.byte	0
 6728 02f1 01        		.byte	1
 6729 02f2 01        		.byte	1
 6730 02f3 01        		.byte	1
 6731 02f4 01        		.byte	1
 6732 02f5 01        		.byte	1
 6733 02f6 00        		.byte	0
 6734 02f7 00        		.byte	0
 6735 02f8 00        		.byte	0
 6736 02f9 00        		.byte	0
 6737 02fa 00        		.byte	0
 6738 02fb 00        		.byte	0
 6739 02fc 00        		.byte	0
 6740 02fd 00        		.byte	0
 6741 02fe 00        		.byte	0
 6742 02ff 00        		.byte	0
 6743 0300 00        		.byte	0
 6744 0301 00        		.byte	0
 6745 0302 00        		.byte	0
 6746 0303 00        		.byte	0
 6747 0304 00        		.byte	0
 6748 0305 00        		.byte	0
 6749 0306 00        		.byte	0
 6750 0307 0E        		.byte	14
 6751 0308 0E        		.byte	14
 6752 0309 00        		.byte	0
 6753 030a 00        		.byte	0
 6754 030b 00        		.byte	0
 6755 030c 00        		.byte	0
 6756 030d 00        		.byte	0
 6757 030e 00        		.byte	0
 6758 030f 00        		.byte	0
 6759 0310 00        		.byte	0
 6760 0311 E0        		.byte	-32
 6761 0312 F8        		.byte	-8
 6762 0313 1E        		.byte	30
 6763 0314 07        		.byte	7
 6764 0315 01        		.byte	1
 6765 0316 00        		.byte	0
 6766 0317 00        		.byte	0
 6767 0318 10        		.byte	16
 6768 0319 1C        		.byte	28
 6769 031a 0F        		.byte	15
 6770 031b 03        		.byte	3
 6771 031c 00        		.byte	0
 6772 031d 00        		.byte	0
 6773 031e 00        		.byte	0
 6774 031f 00        		.byte	0
 6775 0320 00        		.byte	0
 6776 0321 00        		.byte	0
 6777 0322 F8        		.byte	-8
 6778 0323 FE        		.byte	-2
 6779 0324 07        		.byte	7
 6780 0325 63        		.byte	99
 6781 0326 63        		.byte	99
 6782 0327 07        		.byte	7
 6783 0328 FE        		.byte	-2
 6784 0329 FC        		.byte	-4
 6785 032a 00        		.byte	0
 6786 032b 00        		.byte	0
 6787 032c 01        		.byte	1
 6788 032d 07        		.byte	7
 6789 032e 0E        		.byte	14
 6790 032f 0C        		.byte	12
 6791 0330 0C        		.byte	12
 6792 0331 0E        		.byte	14
 6793 0332 07        		.byte	7
 6794 0333 03        		.byte	3
 6795 0334 00        		.byte	0
 6796 0335 00        		.byte	0
 6797 0336 00        		.byte	0
 6798 0337 06        		.byte	6
 6799 0338 03        		.byte	3
 6800 0339 FF        		.byte	-1
 6801 033a FF        		.byte	-1
 6802 033b 00        		.byte	0
 6803 033c 00        		.byte	0
 6804 033d 00        		.byte	0
 6805 033e 00        		.byte	0
 6806 033f 00        		.byte	0
 6807 0340 0C        		.byte	12
 6808 0341 0C        		.byte	12
 6809 0342 0C        		.byte	12
 6810 0343 0F        		.byte	15
 6811 0344 0F        		.byte	15
 6812 0345 0C        		.byte	12
 6813 0346 0C        		.byte	12
 6814 0347 0C        		.byte	12
 6815 0348 00        		.byte	0
 6816 0349 00        		.byte	0
 6817 034a 06        		.byte	6
 6818 034b 03        		.byte	3
 6819 034c 03        		.byte	3
 6820 034d 83        		.byte	-125
 6821 034e C3        		.byte	-61
 6822 034f 63        		.byte	99
 6823 0350 3E        		.byte	62
 6824 0351 1C        		.byte	28
 6825 0352 00        		.byte	0
 6826 0353 00        		.byte	0
 6827 0354 0C        		.byte	12
 6828 0355 0E        		.byte	14
 6829 0356 0F        		.byte	15
 6830 0357 0D        		.byte	13
 6831 0358 0C        		.byte	12
 6832 0359 0C        		.byte	12
 6833 035a 0C        		.byte	12
 6834 035b 0C        		.byte	12
 6835 035c 00        		.byte	0
 6836 035d 00        		.byte	0
 6837 035e 06        		.byte	6
 6838 035f 03        		.byte	3
 6839 0360 63        		.byte	99
 6840 0361 63        		.byte	99
 6841 0362 63        		.byte	99
 6842 0363 E3        		.byte	-29
 6843 0364 FE        		.byte	-2
 6844 0365 9C        		.byte	-100
 6845 0366 00        		.byte	0
 6846 0367 00        		.byte	0
 6847 0368 06        		.byte	6
 6848 0369 0C        		.byte	12
 6849 036a 0C        		.byte	12
 6850 036b 0C        		.byte	12
 6851 036c 0C        		.byte	12
 6852 036d 0C        		.byte	12
 6853 036e 07        		.byte	7
 6854 036f 07        		.byte	7
 6855 0370 00        		.byte	0
 6856 0371 00        		.byte	0
 6857 0372 C0        		.byte	-64
 6858 0373 E0        		.byte	-32
 6859 0374 B8        		.byte	-72
 6860 0375 8C        		.byte	-116
 6861 0376 87        		.byte	-121
 6862 0377 FF        		.byte	-1
 6863 0378 FF        		.byte	-1
 6864 0379 80        		.byte	-128
 6865 037a 00        		.byte	0
 6866 037b 00        		.byte	0
 6867 037c 01        		.byte	1
 6868 037d 01        		.byte	1
 6869 037e 01        		.byte	1
 6870 037f 01        		.byte	1
 6871 0380 01        		.byte	1
 6872 0381 0F        		.byte	15
 6873 0382 0F        		.byte	15
 6874 0383 01        		.byte	1
 6875 0384 00        		.byte	0
 6876 0385 00        		.byte	0
 6877 0386 7F        		.byte	127
 6878 0387 3F        		.byte	63
 6879 0388 33        		.byte	51
 6880 0389 33        		.byte	51
 6881 038a 33        		.byte	51
 6882 038b 73        		.byte	115
 6883 038c E3        		.byte	-29
 6884 038d C0        		.byte	-64
 6885 038e 00        		.byte	0
 6886 038f 00        		.byte	0
 6887 0390 06        		.byte	6
 6888 0391 0C        		.byte	12
 6889 0392 0C        		.byte	12
 6890 0393 0C        		.byte	12
 6891 0394 0C        		.byte	12
 6892 0395 0E        		.byte	14
 6893 0396 07        		.byte	7
 6894 0397 03        		.byte	3
 6895 0398 00        		.byte	0
 6896 0399 00        		.byte	0
 6897 039a F8        		.byte	-8
 6898 039b FE        		.byte	-2
 6899 039c 67        		.byte	103
 6900 039d 33        		.byte	51
 6901 039e 33        		.byte	51
 6902 039f 73        		.byte	115
 6903 03a0 E6        		.byte	-26
 6904 03a1 C0        		.byte	-64
 6905 03a2 00        		.byte	0
 6906 03a3 00        		.byte	0
 6907 03a4 03        		.byte	3
 6908 03a5 07        		.byte	7
 6909 03a6 0E        		.byte	14
 6910 03a7 0C        		.byte	12
 6911 03a8 0C        		.byte	12
 6912 03a9 0E        		.byte	14
 6913 03aa 07        		.byte	7
 6914 03ab 03        		.byte	3
 6915 03ac 00        		.byte	0
 6916 03ad 00        		.byte	0
 6917 03ae 03        		.byte	3
 6918 03af 03        		.byte	3
 6919 03b0 03        		.byte	3
 6920 03b1 83        		.byte	-125
 6921 03b2 F3        		.byte	-13
 6922 03b3 7F        		.byte	127
 6923 03b4 1F        		.byte	31
 6924 03b5 07        		.byte	7
 6925 03b6 00        		.byte	0
 6926 03b7 00        		.byte	0
 6927 03b8 00        		.byte	0
 6928 03b9 08        		.byte	8
 6929 03ba 0E        		.byte	14
 6930 03bb 07        		.byte	7
 6931 03bc 01        		.byte	1
 6932 03bd 00        		.byte	0
 6933 03be 00        		.byte	0
 6934 03bf 00        		.byte	0
 6935 03c0 00        		.byte	0
 6936 03c1 00        		.byte	0
 6937 03c2 9C        		.byte	-100
 6938 03c3 FE        		.byte	-2
 6939 03c4 63        		.byte	99
 6940 03c5 63        		.byte	99
 6941 03c6 63        		.byte	99
 6942 03c7 63        		.byte	99
 6943 03c8 FE        		.byte	-2
 6944 03c9 9C        		.byte	-100
 6945 03ca 00        		.byte	0
 6946 03cb 00        		.byte	0
 6947 03cc 07        		.byte	7
 6948 03cd 07        		.byte	7
 6949 03ce 0C        		.byte	12
 6950 03cf 0C        		.byte	12
 6951 03d0 0C        		.byte	12
 6952 03d1 0C        		.byte	12
 6953 03d2 07        		.byte	7
 6954 03d3 07        		.byte	7
 6955 03d4 00        		.byte	0
 6956 03d5 00        		.byte	0
 6957 03d6 3C        		.byte	60
 6958 03d7 7E        		.byte	126
 6959 03d8 E7        		.byte	-25
 6960 03d9 C3        		.byte	-61
 6961 03da C3        		.byte	-61
 6962 03db 67        		.byte	103
 6963 03dc FE        		.byte	-2
 6964 03dd FC        		.byte	-4
 6965 03de 00        		.byte	0
 6966 03df 00        		.byte	0
 6967 03e0 00        		.byte	0
 6968 03e1 06        		.byte	6
 6969 03e2 0C        		.byte	12
 6970 03e3 0C        		.byte	12
 6971 03e4 0C        		.byte	12
 6972 03e5 0E        		.byte	14
 6973 03e6 07        		.byte	7
 6974 03e7 01        		.byte	1
 6975 03e8 00        		.byte	0
 6976 03e9 00        		.byte	0
 6977 03ea 00        		.byte	0
 6978 03eb 00        		.byte	0
 6979 03ec 00        		.byte	0
 6980 03ed 70        		.byte	112
 6981 03ee 70        		.byte	112
 6982 03ef 00        		.byte	0
 6983 03f0 00        		.byte	0
 6984 03f1 00        		.byte	0
 6985 03f2 00        		.byte	0
 6986 03f3 00        		.byte	0
 6987 03f4 00        		.byte	0
 6988 03f5 00        		.byte	0
 6989 03f6 00        		.byte	0
 6990 03f7 0E        		.byte	14
 6991 03f8 0E        		.byte	14
 6992 03f9 00        		.byte	0
 6993 03fa 00        		.byte	0
 6994 03fb 00        		.byte	0
 6995 03fc 00        		.byte	0
 6996 03fd 00        		.byte	0
 6997 03fe 00        		.byte	0
 6998 03ff 00        		.byte	0
 6999 0400 00        		.byte	0
 7000 0401 70        		.byte	112
 7001 0402 70        		.byte	112
 7002 0403 00        		.byte	0
 7003 0404 00        		.byte	0
 7004 0405 00        		.byte	0
 7005 0406 00        		.byte	0
 7006 0407 00        		.byte	0
 7007 0408 00        		.byte	0
 7008 0409 00        		.byte	0
 7009 040a 20        		.byte	32
 7010 040b 3E        		.byte	62
 7011 040c 1E        		.byte	30
 7012 040d 00        		.byte	0
 7013 040e 00        		.byte	0
 7014 040f 00        		.byte	0
 7015 0410 00        		.byte	0
 7016 0411 00        		.byte	0
 7017 0412 C0        		.byte	-64
 7018 0413 C0        		.byte	-64
 7019 0414 E0        		.byte	-32
 7020 0415 20        		.byte	32
 7021 0416 30        		.byte	48
 7022 0417 30        		.byte	48
 7023 0418 10        		.byte	16
 7024 0419 18        		.byte	24
 7025 041a 00        		.byte	0
 7026 041b 00        		.byte	0
 7027 041c 00        		.byte	0
 7028 041d 00        		.byte	0
 7029 041e 01        		.byte	1
 7030 041f 01        		.byte	1
 7031 0420 03        		.byte	3
 7032 0421 03        		.byte	3
 7033 0422 02        		.byte	2
 7034 0423 06        		.byte	6
 7035 0424 00        		.byte	0
 7036 0425 00        		.byte	0
 7037 0426 30        		.byte	48
 7038 0427 30        		.byte	48
 7039 0428 30        		.byte	48
 7040 0429 30        		.byte	48
 7041 042a 30        		.byte	48
 7042 042b 30        		.byte	48
 7043 042c 30        		.byte	48
 7044 042d 30        		.byte	48
 7045 042e 00        		.byte	0
 7046 042f 00        		.byte	0
 7047 0430 03        		.byte	3
 7048 0431 03        		.byte	3
 7049 0432 03        		.byte	3
 7050 0433 03        		.byte	3
 7051 0434 03        		.byte	3
 7052 0435 03        		.byte	3
 7053 0436 03        		.byte	3
 7054 0437 03        		.byte	3
 7055 0438 00        		.byte	0
 7056 0439 00        		.byte	0
 7057 043a 18        		.byte	24
 7058 043b 10        		.byte	16
 7059 043c 30        		.byte	48
 7060 043d 30        		.byte	48
 7061 043e 20        		.byte	32
 7062 043f E0        		.byte	-32
 7063 0440 C0        		.byte	-64
 7064 0441 C0        		.byte	-64
 7065 0442 00        		.byte	0
 7066 0443 00        		.byte	0
 7067 0444 06        		.byte	6
 7068 0445 02        		.byte	2
 7069 0446 03        		.byte	3
 7070 0447 03        		.byte	3
 7071 0448 01        		.byte	1
 7072 0449 01        		.byte	1
 7073 044a 00        		.byte	0
 7074 044b 00        		.byte	0
 7075 044c 00        		.byte	0
 7076 044d 00        		.byte	0
 7077 044e 06        		.byte	6
 7078 044f 03        		.byte	3
 7079 0450 C3        		.byte	-61
 7080 0451 E3        		.byte	-29
 7081 0452 33        		.byte	51
 7082 0453 3F        		.byte	63
 7083 0454 0E        		.byte	14
 7084 0455 00        		.byte	0
 7085 0456 00        		.byte	0
 7086 0457 00        		.byte	0
 7087 0458 00        		.byte	0
 7088 0459 00        		.byte	0
 7089 045a 0D        		.byte	13
 7090 045b 0D        		.byte	13
 7091 045c 00        		.byte	0
 7092 045d 00        		.byte	0
 7093 045e 00        		.byte	0
 7094 045f 00        		.byte	0
 7095 0460 00        		.byte	0
 7096 0461 F0        		.byte	-16
 7097 0462 F8        		.byte	-8
 7098 0463 1C        		.byte	28
 7099 0464 CE        		.byte	-50
 7100 0465 E6        		.byte	-26
 7101 0466 66        		.byte	102
 7102 0467 6E        		.byte	110
 7103 0468 FC        		.byte	-4
 7104 0469 F8        		.byte	-8
 7105 046a 00        		.byte	0
 7106 046b 03        		.byte	3
 7107 046c 0F        		.byte	15
 7108 046d 1C        		.byte	28
 7109 046e 39        		.byte	57
 7110 046f 33        		.byte	51
 7111 0470 33        		.byte	51
 7112 0471 33        		.byte	51
 7113 0472 3B        		.byte	59
 7114 0473 13        		.byte	19
 7115 0474 00        		.byte	0
 7116 0475 00        		.byte	0
 7117 0476 00        		.byte	0
 7118 0477 E0        		.byte	-32
 7119 0478 FE        		.byte	-2
 7120 0479 9F        		.byte	-97
 7121 047a 9F        		.byte	-97
 7122 047b FE        		.byte	-2
 7123 047c E0        		.byte	-32
 7124 047d 00        		.byte	0
 7125 047e 00        		.byte	0
 7126 047f 00        		.byte	0
 7127 0480 0C        		.byte	12
 7128 0481 0F        		.byte	15
 7129 0482 07        		.byte	7
 7130 0483 01        		.byte	1
 7131 0484 01        		.byte	1
 7132 0485 07        		.byte	7
 7133 0486 0F        		.byte	15
 7134 0487 0C        		.byte	12
 7135 0488 00        		.byte	0
 7136 0489 00        		.byte	0
 7137 048a FF        		.byte	-1
 7138 048b FF        		.byte	-1
 7139 048c 63        		.byte	99
 7140 048d 63        		.byte	99
 7141 048e 63        		.byte	99
 7142 048f 63        		.byte	99
 7143 0490 FE        		.byte	-2
 7144 0491 9E        		.byte	-98
 7145 0492 00        		.byte	0
 7146 0493 00        		.byte	0
 7147 0494 0F        		.byte	15
 7148 0495 0F        		.byte	15
 7149 0496 0C        		.byte	12
 7150 0497 0C        		.byte	12
 7151 0498 0C        		.byte	12
 7152 0499 0C        		.byte	12
 7153 049a 0F        		.byte	15
 7154 049b 07        		.byte	7
 7155 049c 00        		.byte	0
 7156 049d 00        		.byte	0
 7157 049e F8        		.byte	-8
 7158 049f FE        		.byte	-2
 7159 04a0 06        		.byte	6
 7160 04a1 03        		.byte	3
 7161 04a2 03        		.byte	3
 7162 04a3 03        		.byte	3
 7163 04a4 03        		.byte	3
 7164 04a5 06        		.byte	6
 7165 04a6 00        		.byte	0
 7166 04a7 00        		.byte	0
 7167 04a8 01        		.byte	1
 7168 04a9 07        		.byte	7
 7169 04aa 06        		.byte	6
 7170 04ab 0C        		.byte	12
 7171 04ac 0C        		.byte	12
 7172 04ad 0C        		.byte	12
 7173 04ae 0C        		.byte	12
 7174 04af 06        		.byte	6
 7175 04b0 00        		.byte	0
 7176 04b1 00        		.byte	0
 7177 04b2 FF        		.byte	-1
 7178 04b3 FF        		.byte	-1
 7179 04b4 03        		.byte	3
 7180 04b5 03        		.byte	3
 7181 04b6 03        		.byte	3
 7182 04b7 06        		.byte	6
 7183 04b8 FE        		.byte	-2
 7184 04b9 F8        		.byte	-8
 7185 04ba 00        		.byte	0
 7186 04bb 00        		.byte	0
 7187 04bc 0F        		.byte	15
 7188 04bd 0F        		.byte	15
 7189 04be 0C        		.byte	12
 7190 04bf 0C        		.byte	12
 7191 04c0 0C        		.byte	12
 7192 04c1 06        		.byte	6
 7193 04c2 07        		.byte	7
 7194 04c3 01        		.byte	1
 7195 04c4 00        		.byte	0
 7196 04c5 00        		.byte	0
 7197 04c6 FF        		.byte	-1
 7198 04c7 FF        		.byte	-1
 7199 04c8 63        		.byte	99
 7200 04c9 63        		.byte	99
 7201 04ca 63        		.byte	99
 7202 04cb 63        		.byte	99
 7203 04cc 63        		.byte	99
 7204 04cd 03        		.byte	3
 7205 04ce 00        		.byte	0
 7206 04cf 00        		.byte	0
 7207 04d0 0F        		.byte	15
 7208 04d1 0F        		.byte	15
 7209 04d2 0C        		.byte	12
 7210 04d3 0C        		.byte	12
 7211 04d4 0C        		.byte	12
 7212 04d5 0C        		.byte	12
 7213 04d6 0C        		.byte	12
 7214 04d7 0C        		.byte	12
 7215 04d8 00        		.byte	0
 7216 04d9 00        		.byte	0
 7217 04da FF        		.byte	-1
 7218 04db FF        		.byte	-1
 7219 04dc 63        		.byte	99
 7220 04dd 63        		.byte	99
 7221 04de 63        		.byte	99
 7222 04df 63        		.byte	99
 7223 04e0 63        		.byte	99
 7224 04e1 03        		.byte	3
 7225 04e2 00        		.byte	0
 7226 04e3 00        		.byte	0
 7227 04e4 0F        		.byte	15
 7228 04e5 0F        		.byte	15
 7229 04e6 00        		.byte	0
 7230 04e7 00        		.byte	0
 7231 04e8 00        		.byte	0
 7232 04e9 00        		.byte	0
 7233 04ea 00        		.byte	0
 7234 04eb 00        		.byte	0
 7235 04ec 00        		.byte	0
 7236 04ed 00        		.byte	0
 7237 04ee F8        		.byte	-8
 7238 04ef FE        		.byte	-2
 7239 04f0 06        		.byte	6
 7240 04f1 03        		.byte	3
 7241 04f2 C3        		.byte	-61
 7242 04f3 C3        		.byte	-61
 7243 04f4 C3        		.byte	-61
 7244 04f5 C6        		.byte	-58
 7245 04f6 00        		.byte	0
 7246 04f7 00        		.byte	0
 7247 04f8 01        		.byte	1
 7248 04f9 07        		.byte	7
 7249 04fa 06        		.byte	6
 7250 04fb 0C        		.byte	12
 7251 04fc 0C        		.byte	12
 7252 04fd 0C        		.byte	12
 7253 04fe 0F        		.byte	15
 7254 04ff 07        		.byte	7
 7255 0500 00        		.byte	0
 7256 0501 00        		.byte	0
 7257 0502 FF        		.byte	-1
 7258 0503 FF        		.byte	-1
 7259 0504 60        		.byte	96
 7260 0505 60        		.byte	96
 7261 0506 60        		.byte	96
 7262 0507 60        		.byte	96
 7263 0508 FF        		.byte	-1
 7264 0509 FF        		.byte	-1
 7265 050a 00        		.byte	0
 7266 050b 00        		.byte	0
 7267 050c 0F        		.byte	15
 7268 050d 0F        		.byte	15
 7269 050e 00        		.byte	0
 7270 050f 00        		.byte	0
 7271 0510 00        		.byte	0
 7272 0511 00        		.byte	0
 7273 0512 0F        		.byte	15
 7274 0513 0F        		.byte	15
 7275 0514 00        		.byte	0
 7276 0515 00        		.byte	0
 7277 0516 00        		.byte	0
 7278 0517 03        		.byte	3
 7279 0518 03        		.byte	3
 7280 0519 FF        		.byte	-1
 7281 051a FF        		.byte	-1
 7282 051b 03        		.byte	3
 7283 051c 03        		.byte	3
 7284 051d 00        		.byte	0
 7285 051e 00        		.byte	0
 7286 051f 00        		.byte	0
 7287 0520 00        		.byte	0
 7288 0521 0C        		.byte	12
 7289 0522 0C        		.byte	12
 7290 0523 0F        		.byte	15
 7291 0524 0F        		.byte	15
 7292 0525 0C        		.byte	12
 7293 0526 0C        		.byte	12
 7294 0527 00        		.byte	0
 7295 0528 00        		.byte	0
 7296 0529 00        		.byte	0
 7297 052a 00        		.byte	0
 7298 052b 00        		.byte	0
 7299 052c 00        		.byte	0
 7300 052d 03        		.byte	3
 7301 052e 03        		.byte	3
 7302 052f 03        		.byte	3
 7303 0530 FF        		.byte	-1
 7304 0531 FF        		.byte	-1
 7305 0532 00        		.byte	0
 7306 0533 00        		.byte	0
 7307 0534 06        		.byte	6
 7308 0535 0C        		.byte	12
 7309 0536 0C        		.byte	12
 7310 0537 0C        		.byte	12
 7311 0538 0C        		.byte	12
 7312 0539 0C        		.byte	12
 7313 053a 07        		.byte	7
 7314 053b 07        		.byte	7
 7315 053c 00        		.byte	0
 7316 053d 00        		.byte	0
 7317 053e FF        		.byte	-1
 7318 053f FF        		.byte	-1
 7319 0540 70        		.byte	112
 7320 0541 78        		.byte	120
 7321 0542 FE        		.byte	-2
 7322 0543 87        		.byte	-121
 7323 0544 03        		.byte	3
 7324 0545 01        		.byte	1
 7325 0546 00        		.byte	0
 7326 0547 00        		.byte	0
 7327 0548 0F        		.byte	15
 7328 0549 0F        		.byte	15
 7329 054a 00        		.byte	0
 7330 054b 00        		.byte	0
 7331 054c 01        		.byte	1
 7332 054d 07        		.byte	7
 7333 054e 0F        		.byte	15
 7334 054f 0C        		.byte	12
 7335 0550 00        		.byte	0
 7336 0551 00        		.byte	0
 7337 0552 FF        		.byte	-1
 7338 0553 FF        		.byte	-1
 7339 0554 00        		.byte	0
 7340 0555 00        		.byte	0
 7341 0556 00        		.byte	0
 7342 0557 00        		.byte	0
 7343 0558 00        		.byte	0
 7344 0559 00        		.byte	0
 7345 055a 00        		.byte	0
 7346 055b 00        		.byte	0
 7347 055c 0F        		.byte	15
 7348 055d 0F        		.byte	15
 7349 055e 0C        		.byte	12
 7350 055f 0C        		.byte	12
 7351 0560 0C        		.byte	12
 7352 0561 0C        		.byte	12
 7353 0562 0C        		.byte	12
 7354 0563 0C        		.byte	12
 7355 0564 00        		.byte	0
 7356 0565 00        		.byte	0
 7357 0566 FF        		.byte	-1
 7358 0567 FF        		.byte	-1
 7359 0568 1F        		.byte	31
 7360 0569 F8        		.byte	-8
 7361 056a F8        		.byte	-8
 7362 056b 1F        		.byte	31
 7363 056c FF        		.byte	-1
 7364 056d FF        		.byte	-1
 7365 056e 00        		.byte	0
 7366 056f 00        		.byte	0
 7367 0570 0F        		.byte	15
 7368 0571 0F        		.byte	15
 7369 0572 00        		.byte	0
 7370 0573 00        		.byte	0
 7371 0574 00        		.byte	0
 7372 0575 00        		.byte	0
 7373 0576 0F        		.byte	15
 7374 0577 0F        		.byte	15
 7375 0578 00        		.byte	0
 7376 0579 00        		.byte	0
 7377 057a FF        		.byte	-1
 7378 057b FF        		.byte	-1
 7379 057c 0F        		.byte	15
 7380 057d 78        		.byte	120
 7381 057e E0        		.byte	-32
 7382 057f 00        		.byte	0
 7383 0580 FF        		.byte	-1
 7384 0581 FF        		.byte	-1
 7385 0582 00        		.byte	0
 7386 0583 00        		.byte	0
 7387 0584 0F        		.byte	15
 7388 0585 0F        		.byte	15
 7389 0586 00        		.byte	0
 7390 0587 00        		.byte	0
 7391 0588 01        		.byte	1
 7392 0589 0F        		.byte	15
 7393 058a 0F        		.byte	15
 7394 058b 0F        		.byte	15
 7395 058c 00        		.byte	0
 7396 058d 00        		.byte	0
 7397 058e F8        		.byte	-8
 7398 058f FE        		.byte	-2
 7399 0590 07        		.byte	7
 7400 0591 03        		.byte	3
 7401 0592 03        		.byte	3
 7402 0593 07        		.byte	7
 7403 0594 FE        		.byte	-2
 7404 0595 F8        		.byte	-8
 7405 0596 00        		.byte	0
 7406 0597 00        		.byte	0
 7407 0598 01        		.byte	1
 7408 0599 07        		.byte	7
 7409 059a 0E        		.byte	14
 7410 059b 0C        		.byte	12
 7411 059c 0C        		.byte	12
 7412 059d 0E        		.byte	14
 7413 059e 07        		.byte	7
 7414 059f 01        		.byte	1
 7415 05a0 00        		.byte	0
 7416 05a1 00        		.byte	0
 7417 05a2 FF        		.byte	-1
 7418 05a3 FF        		.byte	-1
 7419 05a4 63        		.byte	99
 7420 05a5 63        		.byte	99
 7421 05a6 63        		.byte	99
 7422 05a7 63        		.byte	99
 7423 05a8 3E        		.byte	62
 7424 05a9 3E        		.byte	62
 7425 05aa 00        		.byte	0
 7426 05ab 00        		.byte	0
 7427 05ac 0F        		.byte	15
 7428 05ad 0F        		.byte	15
 7429 05ae 00        		.byte	0
 7430 05af 00        		.byte	0
 7431 05b0 00        		.byte	0
 7432 05b1 00        		.byte	0
 7433 05b2 00        		.byte	0
 7434 05b3 00        		.byte	0
 7435 05b4 00        		.byte	0
 7436 05b5 00        		.byte	0
 7437 05b6 F8        		.byte	-8
 7438 05b7 FE        		.byte	-2
 7439 05b8 07        		.byte	7
 7440 05b9 03        		.byte	3
 7441 05ba 03        		.byte	3
 7442 05bb 07        		.byte	7
 7443 05bc FE        		.byte	-2
 7444 05bd F8        		.byte	-8
 7445 05be 00        		.byte	0
 7446 05bf 00        		.byte	0
 7447 05c0 01        		.byte	1
 7448 05c1 07        		.byte	7
 7449 05c2 0E        		.byte	14
 7450 05c3 0C        		.byte	12
 7451 05c4 0C        		.byte	12
 7452 05c5 1E        		.byte	30
 7453 05c6 37        		.byte	55
 7454 05c7 03        		.byte	3
 7455 05c8 00        		.byte	0
 7456 05c9 00        		.byte	0
 7457 05ca FF        		.byte	-1
 7458 05cb FF        		.byte	-1
 7459 05cc 63        		.byte	99
 7460 05cd 63        		.byte	99
 7461 05ce E3        		.byte	-29
 7462 05cf E3        		.byte	-29
 7463 05d0 FE        		.byte	-2
 7464 05d1 1E        		.byte	30
 7465 05d2 00        		.byte	0
 7466 05d3 00        		.byte	0
 7467 05d4 0F        		.byte	15
 7468 05d5 0F        		.byte	15
 7469 05d6 00        		.byte	0
 7470 05d7 00        		.byte	0
 7471 05d8 00        		.byte	0
 7472 05d9 01        		.byte	1
 7473 05da 0F        		.byte	15
 7474 05db 0F        		.byte	15
 7475 05dc 08        		.byte	8
 7476 05dd 00        		.byte	0
 7477 05de 1C        		.byte	28
 7478 05df 3E        		.byte	62
 7479 05e0 73        		.byte	115
 7480 05e1 63        		.byte	99
 7481 05e2 63        		.byte	99
 7482 05e3 E3        		.byte	-29
 7483 05e4 C6        		.byte	-58
 7484 05e5 80        		.byte	-128
 7485 05e6 00        		.byte	0
 7486 05e7 00        		.byte	0
 7487 05e8 06        		.byte	6
 7488 05e9 0C        		.byte	12
 7489 05ea 0C        		.byte	12
 7490 05eb 0C        		.byte	12
 7491 05ec 0C        		.byte	12
 7492 05ed 0C        		.byte	12
 7493 05ee 07        		.byte	7
 7494 05ef 07        		.byte	7
 7495 05f0 00        		.byte	0
 7496 05f1 00        		.byte	0
 7497 05f2 03        		.byte	3
 7498 05f3 03        		.byte	3
 7499 05f4 03        		.byte	3
 7500 05f5 FF        		.byte	-1
 7501 05f6 FF        		.byte	-1
 7502 05f7 03        		.byte	3
 7503 05f8 03        		.byte	3
 7504 05f9 03        		.byte	3
 7505 05fa 00        		.byte	0
 7506 05fb 00        		.byte	0
 7507 05fc 00        		.byte	0
 7508 05fd 00        		.byte	0
 7509 05fe 00        		.byte	0
 7510 05ff 0F        		.byte	15
 7511 0600 0F        		.byte	15
 7512 0601 00        		.byte	0
 7513 0602 00        		.byte	0
 7514 0603 00        		.byte	0
 7515 0604 00        		.byte	0
 7516 0605 00        		.byte	0
 7517 0606 FF        		.byte	-1
 7518 0607 FF        		.byte	-1
 7519 0608 00        		.byte	0
 7520 0609 00        		.byte	0
 7521 060a 00        		.byte	0
 7522 060b 00        		.byte	0
 7523 060c FF        		.byte	-1
 7524 060d FF        		.byte	-1
 7525 060e 00        		.byte	0
 7526 060f 00        		.byte	0
 7527 0610 03        		.byte	3
 7528 0611 07        		.byte	7
 7529 0612 0E        		.byte	14
 7530 0613 0C        		.byte	12
 7531 0614 0C        		.byte	12
 7532 0615 0E        		.byte	14
 7533 0616 07        		.byte	7
 7534 0617 03        		.byte	3
 7535 0618 00        		.byte	0
 7536 0619 00        		.byte	0
 7537 061a 03        		.byte	3
 7538 061b 7F        		.byte	127
 7539 061c FE        		.byte	-2
 7540 061d 80        		.byte	-128
 7541 061e 80        		.byte	-128
 7542 061f FE        		.byte	-2
 7543 0620 7F        		.byte	127
 7544 0621 03        		.byte	3
 7545 0622 00        		.byte	0
 7546 0623 00        		.byte	0
 7547 0624 00        		.byte	0
 7548 0625 00        		.byte	0
 7549 0626 0F        		.byte	15
 7550 0627 0F        		.byte	15
 7551 0628 0F        		.byte	15
 7552 0629 0F        		.byte	15
 7553 062a 00        		.byte	0
 7554 062b 00        		.byte	0
 7555 062c 00        		.byte	0
 7556 062d 0F        		.byte	15
 7557 062e FF        		.byte	-1
 7558 062f F0        		.byte	-16
 7559 0630 00        		.byte	0
 7560 0631 F8        		.byte	-8
 7561 0632 F8        		.byte	-8
 7562 0633 00        		.byte	0
 7563 0634 F0        		.byte	-16
 7564 0635 FF        		.byte	-1
 7565 0636 0F        		.byte	15
 7566 0637 00        		.byte	0
 7567 0638 0F        		.byte	15
 7568 0639 0F        		.byte	15
 7569 063a 0F        		.byte	15
 7570 063b 00        		.byte	0
 7571 063c 00        		.byte	0
 7572 063d 0F        		.byte	15
 7573 063e 0F        		.byte	15
 7574 063f 0F        		.byte	15
 7575 0640 00        		.byte	0
 7576 0641 00        		.byte	0
 7577 0642 01        		.byte	1
 7578 0643 07        		.byte	7
 7579 0644 9F        		.byte	-97
 7580 0645 FC        		.byte	-4
 7581 0646 FC        		.byte	-4
 7582 0647 9F        		.byte	-97
 7583 0648 07        		.byte	7
 7584 0649 01        		.byte	1
 7585 064a 00        		.byte	0
 7586 064b 00        		.byte	0
 7587 064c 08        		.byte	8
 7588 064d 0E        		.byte	14
 7589 064e 0F        		.byte	15
 7590 064f 01        		.byte	1
 7591 0650 01        		.byte	1
 7592 0651 0F        		.byte	15
 7593 0652 0E        		.byte	14
 7594 0653 08        		.byte	8
 7595 0654 00        		.byte	0
 7596 0655 01        		.byte	1
 7597 0656 07        		.byte	7
 7598 0657 1F        		.byte	31
 7599 0658 3C        		.byte	60
 7600 0659 F0        		.byte	-16
 7601 065a F0        		.byte	-16
 7602 065b 3C        		.byte	60
 7603 065c 1F        		.byte	31
 7604 065d 07        		.byte	7
 7605 065e 01        		.byte	1
 7606 065f 00        		.byte	0
 7607 0660 00        		.byte	0
 7608 0661 00        		.byte	0
 7609 0662 00        		.byte	0
 7610 0663 0F        		.byte	15
 7611 0664 0F        		.byte	15
 7612 0665 00        		.byte	0
 7613 0666 00        		.byte	0
 7614 0667 00        		.byte	0
 7615 0668 00        		.byte	0
 7616 0669 00        		.byte	0
 7617 066a 03        		.byte	3
 7618 066b 03        		.byte	3
 7619 066c C3        		.byte	-61
 7620 066d E3        		.byte	-29
 7621 066e 7B        		.byte	123
 7622 066f 3F        		.byte	63
 7623 0670 0F        		.byte	15
 7624 0671 07        		.byte	7
 7625 0672 00        		.byte	0
 7626 0673 00        		.byte	0
 7627 0674 0E        		.byte	14
 7628 0675 0F        		.byte	15
 7629 0676 0F        		.byte	15
 7630 0677 0D        		.byte	13
 7631 0678 0C        		.byte	12
 7632 0679 0C        		.byte	12
 7633 067a 0C        		.byte	12
 7634 067b 0C        		.byte	12
 7635 067c 00        		.byte	0
 7636 067d 00        		.byte	0
 7637 067e 00        		.byte	0
 7638 067f 00        		.byte	0
 7639 0680 FF        		.byte	-1
 7640 0681 FF        		.byte	-1
 7641 0682 01        		.byte	1
 7642 0683 01        		.byte	1
 7643 0684 00        		.byte	0
 7644 0685 00        		.byte	0
 7645 0686 00        		.byte	0
 7646 0687 00        		.byte	0
 7647 0688 00        		.byte	0
 7648 0689 00        		.byte	0
 7649 068a 3F        		.byte	63
 7650 068b 3F        		.byte	63
 7651 068c 20        		.byte	32
 7652 068d 20        		.byte	32
 7653 068e 00        		.byte	0
 7654 068f 00        		.byte	0
 7655 0690 00        		.byte	0
 7656 0691 00        		.byte	0
 7657 0692 01        		.byte	1
 7658 0693 07        		.byte	7
 7659 0694 1C        		.byte	28
 7660 0695 70        		.byte	112
 7661 0696 C0        		.byte	-64
 7662 0697 00        		.byte	0
 7663 0698 00        		.byte	0
 7664 0699 00        		.byte	0
 7665 069a 00        		.byte	0
 7666 069b 00        		.byte	0
 7667 069c 00        		.byte	0
 7668 069d 00        		.byte	0
 7669 069e 00        		.byte	0
 7670 069f 00        		.byte	0
 7671 06a0 01        		.byte	1
 7672 06a1 07        		.byte	7
 7673 06a2 1C        		.byte	28
 7674 06a3 10        		.byte	16
 7675 06a4 00        		.byte	0
 7676 06a5 00        		.byte	0
 7677 06a6 00        		.byte	0
 7678 06a7 01        		.byte	1
 7679 06a8 01        		.byte	1
 7680 06a9 FF        		.byte	-1
 7681 06aa FF        		.byte	-1
 7682 06ab 00        		.byte	0
 7683 06ac 00        		.byte	0
 7684 06ad 00        		.byte	0
 7685 06ae 00        		.byte	0
 7686 06af 00        		.byte	0
 7687 06b0 00        		.byte	0
 7688 06b1 20        		.byte	32
 7689 06b2 20        		.byte	32
 7690 06b3 3F        		.byte	63
 7691 06b4 3F        		.byte	63
 7692 06b5 00        		.byte	0
 7693 06b6 00        		.byte	0
 7694 06b7 00        		.byte	0
 7695 06b8 00        		.byte	0
 7696 06b9 08        		.byte	8
 7697 06ba 0C        		.byte	12
 7698 06bb 0E        		.byte	14
 7699 06bc 07        		.byte	7
 7700 06bd 03        		.byte	3
 7701 06be 07        		.byte	7
 7702 06bf 0E        		.byte	14
 7703 06c0 0C        		.byte	12
 7704 06c1 08        		.byte	8
 7705 06c2 00        		.byte	0
 7706 06c3 00        		.byte	0
 7707 06c4 00        		.byte	0
 7708 06c5 00        		.byte	0
 7709 06c6 00        		.byte	0
 7710 06c7 00        		.byte	0
 7711 06c8 00        		.byte	0
 7712 06c9 00        		.byte	0
 7713 06ca 00        		.byte	0
 7714 06cb 00        		.byte	0
 7715 06cc 00        		.byte	0
 7716 06cd 00        		.byte	0
 7717 06ce 00        		.byte	0
 7718 06cf 00        		.byte	0
 7719 06d0 00        		.byte	0
 7720 06d1 00        		.byte	0
 7721 06d2 00        		.byte	0
 7722 06d3 00        		.byte	0
 7723 06d4 00        		.byte	0
 7724 06d5 00        		.byte	0
 7725 06d6 00        		.byte	0
 7726 06d7 80        		.byte	-128
 7727 06d8 80        		.byte	-128
 7728 06d9 80        		.byte	-128
 7729 06da 80        		.byte	-128
 7730 06db 80        		.byte	-128
 7731 06dc 80        		.byte	-128
 7732 06dd 80        		.byte	-128
 7733 06de 80        		.byte	-128
 7734 06df 80        		.byte	-128
 7735 06e0 80        		.byte	-128
 7736 06e1 00        		.byte	0
 7737 06e2 00        		.byte	0
 7738 06e3 00        		.byte	0
 7739 06e4 01        		.byte	1
 7740 06e5 03        		.byte	3
 7741 06e6 02        		.byte	2
 7742 06e7 00        		.byte	0
 7743 06e8 00        		.byte	0
 7744 06e9 00        		.byte	0
 7745 06ea 00        		.byte	0
 7746 06eb 00        		.byte	0
 7747 06ec 00        		.byte	0
 7748 06ed 00        		.byte	0
 7749 06ee 00        		.byte	0
 7750 06ef 00        		.byte	0
 7751 06f0 00        		.byte	0
 7752 06f1 00        		.byte	0
 7753 06f2 00        		.byte	0
 7754 06f3 00        		.byte	0
 7755 06f4 00        		.byte	0
 7756 06f5 00        		.byte	0
 7757 06f6 00        		.byte	0
 7758 06f7 B0        		.byte	-80
 7759 06f8 98        		.byte	-104
 7760 06f9 D8        		.byte	-40
 7761 06fa D8        		.byte	-40
 7762 06fb D8        		.byte	-40
 7763 06fc F8        		.byte	-8
 7764 06fd F0        		.byte	-16
 7765 06fe 00        		.byte	0
 7766 06ff 00        		.byte	0
 7767 0700 07        		.byte	7
 7768 0701 0F        		.byte	15
 7769 0702 0D        		.byte	13
 7770 0703 0C        		.byte	12
 7771 0704 0C        		.byte	12
 7772 0705 06        		.byte	6
 7773 0706 0F        		.byte	15
 7774 0707 0F        		.byte	15
 7775 0708 00        		.byte	0
 7776 0709 00        		.byte	0
 7777 070a FF        		.byte	-1
 7778 070b FF        		.byte	-1
 7779 070c 30        		.byte	48
 7780 070d 18        		.byte	24
 7781 070e 18        		.byte	24
 7782 070f 38        		.byte	56
 7783 0710 F0        		.byte	-16
 7784 0711 E0        		.byte	-32
 7785 0712 00        		.byte	0
 7786 0713 00        		.byte	0
 7787 0714 0F        		.byte	15
 7788 0715 0F        		.byte	15
 7789 0716 06        		.byte	6
 7790 0717 0C        		.byte	12
 7791 0718 0C        		.byte	12
 7792 0719 0E        		.byte	14
 7793 071a 07        		.byte	7
 7794 071b 03        		.byte	3
 7795 071c 00        		.byte	0
 7796 071d 00        		.byte	0
 7797 071e E0        		.byte	-32
 7798 071f F0        		.byte	-16
 7799 0720 38        		.byte	56
 7800 0721 18        		.byte	24
 7801 0722 18        		.byte	24
 7802 0723 18        		.byte	24
 7803 0724 18        		.byte	24
 7804 0725 30        		.byte	48
 7805 0726 00        		.byte	0
 7806 0727 00        		.byte	0
 7807 0728 03        		.byte	3
 7808 0729 07        		.byte	7
 7809 072a 0E        		.byte	14
 7810 072b 0C        		.byte	12
 7811 072c 0C        		.byte	12
 7812 072d 0C        		.byte	12
 7813 072e 0C        		.byte	12
 7814 072f 06        		.byte	6
 7815 0730 00        		.byte	0
 7816 0731 00        		.byte	0
 7817 0732 E0        		.byte	-32
 7818 0733 F0        		.byte	-16
 7819 0734 38        		.byte	56
 7820 0735 18        		.byte	24
 7821 0736 18        		.byte	24
 7822 0737 30        		.byte	48
 7823 0738 FF        		.byte	-1
 7824 0739 FF        		.byte	-1
 7825 073a 00        		.byte	0
 7826 073b 00        		.byte	0
 7827 073c 03        		.byte	3
 7828 073d 07        		.byte	7
 7829 073e 0E        		.byte	14
 7830 073f 0C        		.byte	12
 7831 0740 0C        		.byte	12
 7832 0741 06        		.byte	6
 7833 0742 0F        		.byte	15
 7834 0743 0F        		.byte	15
 7835 0744 00        		.byte	0
 7836 0745 00        		.byte	0
 7837 0746 E0        		.byte	-32
 7838 0747 F0        		.byte	-16
 7839 0748 D8        		.byte	-40
 7840 0749 D8        		.byte	-40
 7841 074a D8        		.byte	-40
 7842 074b D8        		.byte	-40
 7843 074c F0        		.byte	-16
 7844 074d E0        		.byte	-32
 7845 074e 00        		.byte	0
 7846 074f 00        		.byte	0
 7847 0750 03        		.byte	3
 7848 0751 07        		.byte	7
 7849 0752 0E        		.byte	14
 7850 0753 0C        		.byte	12
 7851 0754 0C        		.byte	12
 7852 0755 0C        		.byte	12
 7853 0756 0C        		.byte	12
 7854 0757 06        		.byte	6
 7855 0758 00        		.byte	0
 7856 0759 00        		.byte	0
 7857 075a 18        		.byte	24
 7858 075b 18        		.byte	24
 7859 075c FE        		.byte	-2
 7860 075d FF        		.byte	-1
 7861 075e 1B        		.byte	27
 7862 075f 1B        		.byte	27
 7863 0760 1B        		.byte	27
 7864 0761 00        		.byte	0
 7865 0762 00        		.byte	0
 7866 0763 00        		.byte	0
 7867 0764 00        		.byte	0
 7868 0765 00        		.byte	0
 7869 0766 0F        		.byte	15
 7870 0767 0F        		.byte	15
 7871 0768 00        		.byte	0
 7872 0769 00        		.byte	0
 7873 076a 00        		.byte	0
 7874 076b 00        		.byte	0
 7875 076c 00        		.byte	0
 7876 076d 00        		.byte	0
 7877 076e E0        		.byte	-32
 7878 076f F0        		.byte	-16
 7879 0770 38        		.byte	56
 7880 0771 18        		.byte	24
 7881 0772 18        		.byte	24
 7882 0773 30        		.byte	48
 7883 0774 F8        		.byte	-8
 7884 0775 F8        		.byte	-8
 7885 0776 00        		.byte	0
 7886 0777 00        		.byte	0
 7887 0778 03        		.byte	3
 7888 0779 37        		.byte	55
 7889 077a 6E        		.byte	110
 7890 077b 6C        		.byte	108
 7891 077c 6C        		.byte	108
 7892 077d 66        		.byte	102
 7893 077e 7F        		.byte	127
 7894 077f 3F        		.byte	63
 7895 0780 00        		.byte	0
 7896 0781 00        		.byte	0
 7897 0782 FF        		.byte	-1
 7898 0783 FF        		.byte	-1
 7899 0784 30        		.byte	48
 7900 0785 18        		.byte	24
 7901 0786 18        		.byte	24
 7902 0787 18        		.byte	24
 7903 0788 F8        		.byte	-8
 7904 0789 F0        		.byte	-16
 7905 078a 00        		.byte	0
 7906 078b 00        		.byte	0
 7907 078c 0F        		.byte	15
 7908 078d 0F        		.byte	15
 7909 078e 00        		.byte	0
 7910 078f 00        		.byte	0
 7911 0790 00        		.byte	0
 7912 0791 00        		.byte	0
 7913 0792 0F        		.byte	15
 7914 0793 0F        		.byte	15
 7915 0794 00        		.byte	0
 7916 0795 00        		.byte	0
 7917 0796 00        		.byte	0
 7918 0797 18        		.byte	24
 7919 0798 18        		.byte	24
 7920 0799 FB        		.byte	-5
 7921 079a FB        		.byte	-5
 7922 079b 00        		.byte	0
 7923 079c 00        		.byte	0
 7924 079d 00        		.byte	0
 7925 079e 00        		.byte	0
 7926 079f 00        		.byte	0
 7927 07a0 0C        		.byte	12
 7928 07a1 0C        		.byte	12
 7929 07a2 0C        		.byte	12
 7930 07a3 0F        		.byte	15
 7931 07a4 0F        		.byte	15
 7932 07a5 0C        		.byte	12
 7933 07a6 0C        		.byte	12
 7934 07a7 0C        		.byte	12
 7935 07a8 00        		.byte	0
 7936 07a9 00        		.byte	0
 7937 07aa 00        		.byte	0
 7938 07ab 18        		.byte	24
 7939 07ac 18        		.byte	24
 7940 07ad FB        		.byte	-5
 7941 07ae FB        		.byte	-5
 7942 07af 00        		.byte	0
 7943 07b0 00        		.byte	0
 7944 07b1 00        		.byte	0
 7945 07b2 00        		.byte	0
 7946 07b3 00        		.byte	0
 7947 07b4 60        		.byte	96
 7948 07b5 60        		.byte	96
 7949 07b6 60        		.byte	96
 7950 07b7 7F        		.byte	127
 7951 07b8 3F        		.byte	63
 7952 07b9 00        		.byte	0
 7953 07ba 00        		.byte	0
 7954 07bb 00        		.byte	0
 7955 07bc 00        		.byte	0
 7956 07bd 00        		.byte	0
 7957 07be FF        		.byte	-1
 7958 07bf FF        		.byte	-1
 7959 07c0 C0        		.byte	-64
 7960 07c1 F0        		.byte	-16
 7961 07c2 B8        		.byte	-72
 7962 07c3 18        		.byte	24
 7963 07c4 08        		.byte	8
 7964 07c5 00        		.byte	0
 7965 07c6 00        		.byte	0
 7966 07c7 00        		.byte	0
 7967 07c8 0F        		.byte	15
 7968 07c9 0F        		.byte	15
 7969 07ca 00        		.byte	0
 7970 07cb 01        		.byte	1
 7971 07cc 03        		.byte	3
 7972 07cd 0F        		.byte	15
 7973 07ce 0C        		.byte	12
 7974 07cf 08        		.byte	8
 7975 07d0 00        		.byte	0
 7976 07d1 00        		.byte	0
 7977 07d2 03        		.byte	3
 7978 07d3 03        		.byte	3
 7979 07d4 FF        		.byte	-1
 7980 07d5 FF        		.byte	-1
 7981 07d6 00        		.byte	0
 7982 07d7 00        		.byte	0
 7983 07d8 00        		.byte	0
 7984 07d9 00        		.byte	0
 7985 07da 00        		.byte	0
 7986 07db 00        		.byte	0
 7987 07dc 00        		.byte	0
 7988 07dd 00        		.byte	0
 7989 07de 07        		.byte	7
 7990 07df 0F        		.byte	15
 7991 07e0 0C        		.byte	12
 7992 07e1 0C        		.byte	12
 7993 07e2 0C        		.byte	12
 7994 07e3 00        		.byte	0
 7995 07e4 00        		.byte	0
 7996 07e5 00        		.byte	0
 7997 07e6 F8        		.byte	-8
 7998 07e7 F8        		.byte	-8
 7999 07e8 18        		.byte	24
 8000 07e9 F8        		.byte	-8
 8001 07ea F0        		.byte	-16
 8002 07eb 18        		.byte	24
 8003 07ec F8        		.byte	-8
 8004 07ed F0        		.byte	-16
 8005 07ee 00        		.byte	0
 8006 07ef 00        		.byte	0
 8007 07f0 0F        		.byte	15
 8008 07f1 0F        		.byte	15
 8009 07f2 00        		.byte	0
 8010 07f3 0F        		.byte	15
 8011 07f4 0F        		.byte	15
 8012 07f5 00        		.byte	0
 8013 07f6 0F        		.byte	15
 8014 07f7 0F        		.byte	15
 8015 07f8 00        		.byte	0
 8016 07f9 00        		.byte	0
 8017 07fa F8        		.byte	-8
 8018 07fb F8        		.byte	-8
 8019 07fc 30        		.byte	48
 8020 07fd 18        		.byte	24
 8021 07fe 18        		.byte	24
 8022 07ff 18        		.byte	24
 8023 0800 F8        		.byte	-8
 8024 0801 F0        		.byte	-16
 8025 0802 00        		.byte	0
 8026 0803 00        		.byte	0
 8027 0804 0F        		.byte	15
 8028 0805 0F        		.byte	15
 8029 0806 00        		.byte	0
 8030 0807 00        		.byte	0
 8031 0808 00        		.byte	0
 8032 0809 00        		.byte	0
 8033 080a 0F        		.byte	15
 8034 080b 0F        		.byte	15
 8035 080c 00        		.byte	0
 8036 080d 00        		.byte	0
 8037 080e E0        		.byte	-32
 8038 080f F0        		.byte	-16
 8039 0810 38        		.byte	56
 8040 0811 18        		.byte	24
 8041 0812 18        		.byte	24
 8042 0813 38        		.byte	56
 8043 0814 F0        		.byte	-16
 8044 0815 E0        		.byte	-32
 8045 0816 00        		.byte	0
 8046 0817 00        		.byte	0
 8047 0818 03        		.byte	3
 8048 0819 07        		.byte	7
 8049 081a 0E        		.byte	14
 8050 081b 0C        		.byte	12
 8051 081c 0C        		.byte	12
 8052 081d 0E        		.byte	14
 8053 081e 07        		.byte	7
 8054 081f 03        		.byte	3
 8055 0820 00        		.byte	0
 8056 0821 00        		.byte	0
 8057 0822 F8        		.byte	-8
 8058 0823 F8        		.byte	-8
 8059 0824 30        		.byte	48
 8060 0825 18        		.byte	24
 8061 0826 18        		.byte	24
 8062 0827 38        		.byte	56
 8063 0828 F0        		.byte	-16
 8064 0829 E0        		.byte	-32
 8065 082a 00        		.byte	0
 8066 082b 00        		.byte	0
 8067 082c 7F        		.byte	127
 8068 082d 7F        		.byte	127
 8069 082e 06        		.byte	6
 8070 082f 0C        		.byte	12
 8071 0830 0C        		.byte	12
 8072 0831 0E        		.byte	14
 8073 0832 07        		.byte	7
 8074 0833 03        		.byte	3
 8075 0834 00        		.byte	0
 8076 0835 00        		.byte	0
 8077 0836 E0        		.byte	-32
 8078 0837 F0        		.byte	-16
 8079 0838 38        		.byte	56
 8080 0839 18        		.byte	24
 8081 083a 18        		.byte	24
 8082 083b 30        		.byte	48
 8083 083c F8        		.byte	-8
 8084 083d F8        		.byte	-8
 8085 083e 00        		.byte	0
 8086 083f 00        		.byte	0
 8087 0840 03        		.byte	3
 8088 0841 07        		.byte	7
 8089 0842 0E        		.byte	14
 8090 0843 0C        		.byte	12
 8091 0844 0C        		.byte	12
 8092 0845 06        		.byte	6
 8093 0846 7F        		.byte	127
 8094 0847 7F        		.byte	127
 8095 0848 00        		.byte	0
 8096 0849 00        		.byte	0
 8097 084a 00        		.byte	0
 8098 084b F8        		.byte	-8
 8099 084c F8        		.byte	-8
 8100 084d 30        		.byte	48
 8101 084e 18        		.byte	24
 8102 084f 18        		.byte	24
 8103 0850 18        		.byte	24
 8104 0851 18        		.byte	24
 8105 0852 00        		.byte	0
 8106 0853 00        		.byte	0
 8107 0854 00        		.byte	0
 8108 0855 0F        		.byte	15
 8109 0856 0F        		.byte	15
 8110 0857 00        		.byte	0
 8111 0858 00        		.byte	0
 8112 0859 00        		.byte	0
 8113 085a 00        		.byte	0
 8114 085b 00        		.byte	0
 8115 085c 00        		.byte	0
 8116 085d 00        		.byte	0
 8117 085e 70        		.byte	112
 8118 085f F8        		.byte	-8
 8119 0860 D8        		.byte	-40
 8120 0861 D8        		.byte	-40
 8121 0862 D8        		.byte	-40
 8122 0863 D8        		.byte	-40
 8123 0864 98        		.byte	-104
 8124 0865 30        		.byte	48
 8125 0866 00        		.byte	0
 8126 0867 00        		.byte	0
 8127 0868 06        		.byte	6
 8128 0869 0C        		.byte	12
 8129 086a 0C        		.byte	12
 8130 086b 0C        		.byte	12
 8131 086c 0C        		.byte	12
 8132 086d 0D        		.byte	13
 8133 086e 0F        		.byte	15
 8134 086f 07        		.byte	7
 8135 0870 00        		.byte	0
 8136 0871 00        		.byte	0
 8137 0872 18        		.byte	24
 8138 0873 18        		.byte	24
 8139 0874 FE        		.byte	-2
 8140 0875 FE        		.byte	-2
 8141 0876 18        		.byte	24
 8142 0877 18        		.byte	24
 8143 0878 18        		.byte	24
 8144 0879 00        		.byte	0
 8145 087a 00        		.byte	0
 8146 087b 00        		.byte	0
 8147 087c 00        		.byte	0
 8148 087d 00        		.byte	0
 8149 087e 07        		.byte	7
 8150 087f 0F        		.byte	15
 8151 0880 0C        		.byte	12
 8152 0881 0C        		.byte	12
 8153 0882 0C        		.byte	12
 8154 0883 00        		.byte	0
 8155 0884 00        		.byte	0
 8156 0885 00        		.byte	0
 8157 0886 F8        		.byte	-8
 8158 0887 F8        		.byte	-8
 8159 0888 00        		.byte	0
 8160 0889 00        		.byte	0
 8161 088a 00        		.byte	0
 8162 088b 00        		.byte	0
 8163 088c F8        		.byte	-8
 8164 088d F8        		.byte	-8
 8165 088e 00        		.byte	0
 8166 088f 00        		.byte	0
 8167 0890 07        		.byte	7
 8168 0891 0F        		.byte	15
 8169 0892 0C        		.byte	12
 8170 0893 0C        		.byte	12
 8171 0894 0C        		.byte	12
 8172 0895 06        		.byte	6
 8173 0896 0F        		.byte	15
 8174 0897 0F        		.byte	15
 8175 0898 00        		.byte	0
 8176 0899 00        		.byte	0
 8177 089a 18        		.byte	24
 8178 089b F8        		.byte	-8
 8179 089c F0        		.byte	-16
 8180 089d 00        		.byte	0
 8181 089e 00        		.byte	0
 8182 089f F0        		.byte	-16
 8183 08a0 F8        		.byte	-8
 8184 08a1 18        		.byte	24
 8185 08a2 00        		.byte	0
 8186 08a3 00        		.byte	0
 8187 08a4 00        		.byte	0
 8188 08a5 00        		.byte	0
 8189 08a6 07        		.byte	7
 8190 08a7 0F        		.byte	15
 8191 08a8 0F        		.byte	15
 8192 08a9 07        		.byte	7
 8193 08aa 00        		.byte	0
 8194 08ab 00        		.byte	0
 8195 08ac 00        		.byte	0
 8196 08ad 38        		.byte	56
 8197 08ae F8        		.byte	-8
 8198 08af 80        		.byte	-128
 8199 08b0 00        		.byte	0
 8200 08b1 E0        		.byte	-32
 8201 08b2 E0        		.byte	-32
 8202 08b3 00        		.byte	0
 8203 08b4 80        		.byte	-128
 8204 08b5 F8        		.byte	-8
 8205 08b6 38        		.byte	56
 8206 08b7 00        		.byte	0
 8207 08b8 03        		.byte	3
 8208 08b9 0F        		.byte	15
 8209 08ba 0F        		.byte	15
 8210 08bb 01        		.byte	1
 8211 08bc 01        		.byte	1
 8212 08bd 0F        		.byte	15
 8213 08be 0F        		.byte	15
 8214 08bf 03        		.byte	3
 8215 08c0 00        		.byte	0
 8216 08c1 00        		.byte	0
 8217 08c2 08        		.byte	8
 8218 08c3 18        		.byte	24
 8219 08c4 78        		.byte	120
 8220 08c5 E0        		.byte	-32
 8221 08c6 E0        		.byte	-32
 8222 08c7 78        		.byte	120
 8223 08c8 18        		.byte	24
 8224 08c9 08        		.byte	8
 8225 08ca 00        		.byte	0
 8226 08cb 00        		.byte	0
 8227 08cc 08        		.byte	8
 8228 08cd 0C        		.byte	12
 8229 08ce 0F        		.byte	15
 8230 08cf 03        		.byte	3
 8231 08d0 03        		.byte	3
 8232 08d1 0F        		.byte	15
 8233 08d2 0C        		.byte	12
 8234 08d3 08        		.byte	8
 8235 08d4 00        		.byte	0
 8236 08d5 00        		.byte	0
 8237 08d6 08        		.byte	8
 8238 08d7 78        		.byte	120
 8239 08d8 F8        		.byte	-8
 8240 08d9 C0        		.byte	-64
 8241 08da 80        		.byte	-128
 8242 08db F8        		.byte	-8
 8243 08dc F8        		.byte	-8
 8244 08dd 18        		.byte	24
 8245 08de 00        		.byte	0
 8246 08df 00        		.byte	0
 8247 08e0 00        		.byte	0
 8248 08e1 60        		.byte	96
 8249 08e2 61        		.byte	97
 8250 08e3 7F        		.byte	127
 8251 08e4 1F        		.byte	31
 8252 08e5 07        		.byte	7
 8253 08e6 00        		.byte	0
 8254 08e7 00        		.byte	0
 8255 08e8 00        		.byte	0
 8256 08e9 00        		.byte	0
 8257 08ea 18        		.byte	24
 8258 08eb 18        		.byte	24
 8259 08ec 18        		.byte	24
 8260 08ed 98        		.byte	-104
 8261 08ee D8        		.byte	-40
 8262 08ef 78        		.byte	120
 8263 08f0 38        		.byte	56
 8264 08f1 18        		.byte	24
 8265 08f2 00        		.byte	0
 8266 08f3 00        		.byte	0
 8267 08f4 0C        		.byte	12
 8268 08f5 0E        		.byte	14
 8269 08f6 0F        		.byte	15
 8270 08f7 0D        		.byte	13
 8271 08f8 0C        		.byte	12
 8272 08f9 0C        		.byte	12
 8273 08fa 0C        		.byte	12
 8274 08fb 0C        		.byte	12
 8275 08fc 00        		.byte	0
 8276 08fd 00        		.byte	0
 8277 08fe 00        		.byte	0
 8278 08ff 80        		.byte	-128
 8279 0900 80        		.byte	-128
 8280 0901 7E        		.byte	126
 8281 0902 7F        		.byte	127
 8282 0903 01        		.byte	1
 8283 0904 01        		.byte	1
 8284 0905 00        		.byte	0
 8285 0906 00        		.byte	0
 8286 0907 00        		.byte	0
 8287 0908 00        		.byte	0
 8288 0909 00        		.byte	0
 8289 090a 00        		.byte	0
 8290 090b 3F        		.byte	63
 8291 090c 7F        		.byte	127
 8292 090d 40        		.byte	64
 8293 090e 40        		.byte	64
 8294 090f 00        		.byte	0
 8295 0910 00        		.byte	0
 8296 0911 10        		.byte	16
 8297 0912 18        		.byte	24
 8298 0913 1C        		.byte	28
 8299 0914 1E        		.byte	30
 8300 0915 FF        		.byte	-1
 8301 0916 FF        		.byte	-1
 8302 0917 1E        		.byte	30
 8303 0918 1C        		.byte	28
 8304 0919 18        		.byte	24
 8305 091a 10        		.byte	16
 8306 091b 00        		.byte	0
 8307 091c 00        		.byte	0
 8308 091d 00        		.byte	0
 8309 091e 00        		.byte	0
 8310 091f FF        		.byte	-1
 8311 0920 FF        		.byte	-1
 8312 0921 00        		.byte	0
 8313 0922 00        		.byte	0
 8314 0923 00        		.byte	0
 8315 0924 00        		.byte	0
 8316 0925 00        		.byte	0
 8317 0926 00        		.byte	0
 8318 0927 01        		.byte	1
 8319 0928 01        		.byte	1
 8320 0929 7F        		.byte	127
 8321 092a 7E        		.byte	126
 8322 092b 80        		.byte	-128
 8323 092c 80        		.byte	-128
 8324 092d 00        		.byte	0
 8325 092e 00        		.byte	0
 8326 092f 00        		.byte	0
 8327 0930 00        		.byte	0
 8328 0931 40        		.byte	64
 8329 0932 40        		.byte	64
 8330 0933 7F        		.byte	127
 8331 0934 3F        		.byte	63
 8332 0935 00        		.byte	0
 8333 0936 00        		.byte	0
 8334 0937 00        		.byte	0
 8335 0938 00        		.byte	0
 8336 0939 00        		.byte	0
 8337 093a C0        		.byte	-64
 8338 093b 60        		.byte	96
 8339 093c 60        		.byte	96
 8340 093d 60        		.byte	96
 8341 093e C0        		.byte	-64
 8342 093f C0        		.byte	-64
 8343 0940 C0        		.byte	-64
 8344 0941 60        		.byte	96
 8345 0942 00        		.byte	0
 8346 0943 00        		.byte	0
 8347 0944 00        		.byte	0
 8348 0945 00        		.byte	0
 8349 0946 00        		.byte	0
 8350 0947 00        		.byte	0
 8351 0948 00        		.byte	0
 8352 0949 00        		.byte	0
 8353 094a 00        		.byte	0
 8354 094b 00        		.byte	0
 8355 094c 00        		.byte	0
 8356               		.comm RX_array,20,1
 8357               		.comm buffer,256,1
 8358               		.comm debounce,8,1
 8359               		.comm font_bytes,1,1
 8360               		.comm font_w,1,1
 8361               		.comm font_h,1,1
 8362               		.comm font_space,1,1
 8627               	.Letext0:
DEFINED SYMBOLS
                            *ABS*:0000000000000000 main.c
     /tmp/cc57R35o.s:2      *ABS*:000000000000003f __SREG__
     /tmp/cc57R35o.s:3      *ABS*:000000000000003e __SP_H__
     /tmp/cc57R35o.s:4      *ABS*:000000000000003d __SP_L__
     /tmp/cc57R35o.s:5      *ABS*:0000000000000034 __CCP__
     /tmp/cc57R35o.s:6      *ABS*:0000000000000000 __tmp_reg__
     /tmp/cc57R35o.s:7      *ABS*:0000000000000001 __zero_reg__
     /tmp/cc57R35o.s:18     .text:0000000000000000 __vector_20
     /tmp/cc57R35o.s:5825   .bss:0000000000000000 RX_in
                            *COM*:0000000000000014 RX_array
     /tmp/cc57R35o.s:5837   .bss:0000000000000003 RX_bytes
     /tmp/cc57R35o.s:5843   .bss:0000000000000004 RX_pause
     /tmp/cc57R35o.s:99     .text:0000000000000072 __vector_16
     /tmp/cc57R35o.s:5868   .data:0000000000000039 BL_dutycycle
     /tmp/cc57R35o.s:156    .text:00000000000000bc ioinit
     /tmp/cc57R35o.s:193    .text:00000000000000e2 delay_us
     /tmp/cc57R35o.s:234    .text:0000000000000108 delay_ms
     /tmp/cc57R35o.s:275    .text:0000000000000134 USART_Init
     /tmp/cc57R35o.s:309    .text:0000000000000152 RX_get_byte
     /tmp/cc57R35o.s:5831   .bss:0000000000000001 RX_read
     /tmp/cc57R35o.s:385    .text:00000000000001b6 put_char
     /tmp/cc57R35o.s:407    .text:00000000000001c6 delay
     /tmp/cc57R35o.s:433    .text:00000000000001d2 write_command_LCD
     /tmp/cc57R35o.s:552    .text:0000000000000226 write_data_LCD
     /tmp/cc57R35o.s:671    .text:000000000000027a write_block
     /tmp/cc57R35o.s:997    .text:00000000000003a8 read_data_LCD
     /tmp/cc57R35o.s:1127   .text:00000000000003fa read_block
     /tmp/cc57R35o.s:1499   .text:000000000000054a clear_screen
     /tmp/cc57R35o.s:5849   .bss:0000000000000005 reverse
     /tmp/cc57R35o.s:5933   .bss:000000000000000b x_offset
     /tmp/cc57R35o.s:5939   .bss:000000000000000c y_offset
                            *COM*:0000000000000100 buffer
     /tmp/cc57R35o.s:1682   .text:0000000000000608 bitblt
     /tmp/cc57R35o.s:2313   .text:0000000000000994 print_char
                            *COM*:0000000000000001 font_bytes
     /tmp/cc57R35o.s:5957   .bss:000000000000000d aux_font
     /tmp/cc57R35o.s:5971   .progmem.data:0000000000000000 text_array
                            *COM*:0000000000000001 font_w
                            *COM*:0000000000000001 font_h
     /tmp/cc57R35o.s:5945   .data:00000000000002cf font_mode
                            *COM*:0000000000000001 font_space
     /tmp/cc57R35o.s:6452   .progmem.data:00000000000001de aux_text_array
     /tmp/cc57R35o.s:2624   .text:0000000000000b4a read_byte
     /tmp/cc57R35o.s:2650   .text:0000000000000b60 pixel
     /tmp/cc57R35o.s:5965   .bss:0000000000000019 temp_side.2459
     /tmp/cc57R35o.s:5964   .bss:0000000000000018 temp_x.2460
     /tmp/cc57R35o.s:5966   .bss:000000000000001a temp_page.2458
     /tmp/cc57R35o.s:5963   .bss:0000000000000017 temp_data1.2461
     /tmp/cc57R35o.s:5962   .bss:0000000000000016 temp_data2.2462
     /tmp/cc57R35o.s:2787   .text:0000000000000c36 line
     /tmp/cc57R35o.s:3068   .text:0000000000000d94 circle
     /tmp/cc57R35o.s:3287   .text:0000000000000ee0 EEPROM_write
     /tmp/cc57R35o.s:3313   .text:0000000000000ef0 EEPROM_read
     /tmp/cc57R35o.s:3338   .text:0000000000000efe set_backlight
     /tmp/cc57R35o.s:3393   .text:0000000000000f3c draw_block
     /tmp/cc57R35o.s:5961   .bss:0000000000000014 width.2639
     /tmp/cc57R35o.s:5959   .bss:0000000000000010 x.2641
     /tmp/cc57R35o.s:5960   .bss:0000000000000012 height.2640
                             .bss:000000000000000e y.2642
     /tmp/cc57R35o.s:3519   .text:0000000000000ff8 del_char
     /tmp/cc57R35o.s:3610   .text:0000000000001092 box
     /tmp/cc57R35o.s:3672   .text:00000000000010e6 draw_sprite
     /tmp/cc57R35o.s:5904   .data:000000000000003b sprite
     /tmp/cc57R35o.s:3717   .text:000000000000111c set_baud
     /tmp/cc57R35o.s:3792   .text:0000000000001172 LCD_reset
     /tmp/cc57R35o.s:3850   .text:00000000000011bc main
     /tmp/cc57R35o.s:5818   .data:0000000000000037 baud_rate
     /tmp/cc57R35o.s:5855   .data:0000000000000038 splash_screen
     /tmp/cc57R35o.s:5862   .bss:0000000000000006 debug_msg
     /tmp/cc57R35o.s:5950   .data:00000000000002d0 CR_LF
                            *COM*:0000000000000008 debounce
     /tmp/cc57R35o.s:5898   .bss:000000000000000a buttons
     /tmp/cc57R35o.s:5892   .bss:0000000000000009 RGB_counter
     /tmp/cc57R35o.s:5873   .data:000000000000003a RGB_red
     /tmp/cc57R35o.s:5880   .bss:0000000000000007 RGB_green
     /tmp/cc57R35o.s:5886   .bss:0000000000000008 RGB_blue

UNDEFINED SYMBOLS
__divmodhi4
__udivmodqi4
rprintf_devopen
rprintf
__do_copy_data
__do_clear_bss
