
main.elf:     file format elf32-avr

Sections:
Idx Name          Size      VMA       LMA       File off  Algn
  0 .data         000002d2  00800100  00002aca  00002b5e  2**0
                  CONTENTS, ALLOC, LOAD, DATA
  1 .text         00002aca  00000000  00000000  00000094  2**1
                  CONTENTS, ALLOC, LOAD, READONLY, CODE
  2 .bss          0000013d  008003d2  008003d2  00002e30  2**0
                  ALLOC
  3 .stab         000006b4  00000000  00000000  00002e30  2**2
                  CONTENTS, READONLY, DEBUGGING
  4 .stabstr      00000054  00000000  00000000  000034e4  2**0
                  CONTENTS, READONLY, DEBUGGING
  5 .debug_aranges 00000040  00000000  00000000  00003538  2**0
                  CONTENTS, READONLY, DEBUGGING
  6 .debug_pubnames 0000035c  00000000  00000000  00003578  2**0
                  CONTENTS, READONLY, DEBUGGING
  7 .debug_info   0000185e  00000000  00000000  000038d4  2**0
                  CONTENTS, READONLY, DEBUGGING
  8 .debug_abbrev 000003b6  00000000  00000000  00005132  2**0
                  CONTENTS, READONLY, DEBUGGING
  9 .debug_line   00001ff6  00000000  00000000  000054e8  2**0
                  CONTENTS, READONLY, DEBUGGING
 10 .debug_frame  00000240  00000000  00000000  000074e0  2**2
                  CONTENTS, READONLY, DEBUGGING
 11 .debug_str    0000047a  00000000  00000000  00007720  2**0
                  CONTENTS, READONLY, DEBUGGING
 12 .debug_loc    00002383  00000000  00000000  00007b9a  2**0
                  CONTENTS, READONLY, DEBUGGING
 13 .debug_ranges 00000048  00000000  00000000  00009f1d  2**0
                  CONTENTS, READONLY, DEBUGGING

Disassembly of section .text:

00000000 <__vectors>:
       0:	0c 94 03 05 	jmp	0xa06	; 0xa06 <__ctors_end>
       4:	0c 94 20 05 	jmp	0xa40	; 0xa40 <__bad_interrupt>
       8:	0c 94 20 05 	jmp	0xa40	; 0xa40 <__bad_interrupt>
       c:	0c 94 20 05 	jmp	0xa40	; 0xa40 <__bad_interrupt>
      10:	0c 94 20 05 	jmp	0xa40	; 0xa40 <__bad_interrupt>
      14:	0c 94 20 05 	jmp	0xa40	; 0xa40 <__bad_interrupt>
      18:	0c 94 20 05 	jmp	0xa40	; 0xa40 <__bad_interrupt>
      1c:	0c 94 20 05 	jmp	0xa40	; 0xa40 <__bad_interrupt>
      20:	0c 94 20 05 	jmp	0xa40	; 0xa40 <__bad_interrupt>
      24:	0c 94 20 05 	jmp	0xa40	; 0xa40 <__bad_interrupt>
      28:	0c 94 20 05 	jmp	0xa40	; 0xa40 <__bad_interrupt>
      2c:	0c 94 20 05 	jmp	0xa40	; 0xa40 <__bad_interrupt>
      30:	0c 94 20 05 	jmp	0xa40	; 0xa40 <__bad_interrupt>
      34:	0c 94 20 05 	jmp	0xa40	; 0xa40 <__bad_interrupt>
      38:	0c 94 20 05 	jmp	0xa40	; 0xa40 <__bad_interrupt>
      3c:	0c 94 20 05 	jmp	0xa40	; 0xa40 <__bad_interrupt>
      40:	0c 94 5b 05 	jmp	0xab6	; 0xab6 <__vector_16>
      44:	0c 94 20 05 	jmp	0xa40	; 0xa40 <__bad_interrupt>
      48:	0c 94 20 05 	jmp	0xa40	; 0xa40 <__bad_interrupt>
      4c:	0c 94 20 05 	jmp	0xa40	; 0xa40 <__bad_interrupt>
      50:	0c 94 22 05 	jmp	0xa44	; 0xa44 <__vector_20>
      54:	0c 94 20 05 	jmp	0xa40	; 0xa40 <__bad_interrupt>
      58:	0c 94 20 05 	jmp	0xa40	; 0xa40 <__bad_interrupt>
      5c:	0c 94 20 05 	jmp	0xa40	; 0xa40 <__bad_interrupt>
      60:	0c 94 20 05 	jmp	0xa40	; 0xa40 <__bad_interrupt>
      64:	0c 94 20 05 	jmp	0xa40	; 0xa40 <__bad_interrupt>
      68:	0c 94 20 05 	jmp	0xa40	; 0xa40 <__bad_interrupt>
      6c:	0c 94 20 05 	jmp	0xa40	; 0xa40 <__bad_interrupt>
      70:	fd 11       	cpse	r31, r13
      72:	18 12       	cpse	r1, r24
      74:	07 12       	cpse	r0, r23
      76:	b8 12       	cpse	r11, r24
      78:	a6 12       	cpse	r10, r22
      7a:	8c 12       	cpse	r8, r28
      7c:	87 12       	cpse	r8, r23
      7e:	70 12       	cpse	r7, r16
      80:	4a 12       	cpse	r4, r26
      82:	45 10       	cpse	r4, r5
      84:	40 12       	cpse	r4, r16
      86:	2c 12       	cpse	r2, r28
      88:	e7 11       	cpse	r30, r7
      8a:	cd 11       	cpse	r28, r13
      8c:	45 10       	cpse	r4, r5
      8e:	b9 11       	cpse	r27, r9
      90:	aa 11       	cpse	r26, r10
      92:	45 10       	cpse	r4, r5
      94:	92 11       	cpse	r25, r2
      96:	45 10       	cpse	r4, r5
      98:	7f 11       	cpse	r23, r15
      9a:	71 11       	cpse	r23, r1
      9c:	58 11       	cpse	r21, r8
      9e:	45 10       	cpse	r4, r5
      a0:	4c 11       	cpse	r20, r12
      a2:	40 11       	cpse	r20, r0
      a4:	34 11       	cpse	r19, r4
      a6:	69 10       	cpse	r6, r9
      a8:	72 10       	cpse	r7, r2
      aa:	97 10       	cpse	r9, r7
      ac:	f4 10       	cpse	r15, r4
      ae:	a8 10       	cpse	r10, r8
      b0:	2b 11       	cpse	r18, r11
      b2:	22 11       	cpse	r18, r2
      b4:	13 11       	cpse	r17, r3
      b6:	0a 11       	cpse	r16, r10

000000b8 <text_array>:
      b8:	05 08 01 00 00 00 00 00 00 6f 6f 00 00 00 07 00     .........oo.....
      c8:	07 00 14 7f 14 7f 14 00 26 6b 2a 10 43 33 08 64     ........&k*.C3.d
      d8:	63 32 4d 49 36 50 00 00 07 00 00 00 1c 22 41 00     c2MI6P......."A.
      e8:	00 41 22 1c 00 11 0a 1f 0a 11 10 10 7c 10 10 00     .A".........|...
      f8:	00 a0 60 00 10 10 10 10 10 00 00 60 60 00 40 30     ..`........``.@0
     108:	08 06 01 3e 51 49 45 3e 00 42 7f 40 00 42 61 51     ...>QIE>.B.@.BaQ
     118:	49 46 22 41 49 49 36 08 0c 0a 7f 08 27 45 45 45     IF"AII6.....'EEE
     128:	39 3c 4a 49 49 30 01 61 19 07 01 36 49 49 49 36     9<JII0.a...6III6
     138:	06 49 49 29 1e 00 00 6c 6c 00 00 00 ac 6c 00 08     .II)...ll....l..
     148:	14 22 41 00 14 14 14 14 14 00 41 22 14 08 02 01     ."A.......A"....
     158:	51 09 06 3e 41 5d 5d 46 7c 12 11 12 7c 7f 49 49     Q..>A]]F|...|.II
     168:	49 36 3e 41 41 41 22 7f 41 41 41 3e 7f 49 49 49     I6>AAA".AAA>.III
     178:	41 7f 09 09 09 01 3e 41 41 51 72 7f 08 08 08 7f     A.....>AAQr.....
     188:	41 41 7f 41 41 21 41 3f 01 01 7f 08 14 22 41 7f     AA.AA!A?....."A.
     198:	40 40 40 40 7f 02 04 02 7f 7f 06 08 30 7f 3e 41     @@@@........0.>A
     1a8:	41 41 3e 7f 09 09 09 06 3e 41 41 61 7e 7f 09 19     AA>.....>AAa~...
     1b8:	29 46 26 49 49 49 32 01 01 7f 01 01 3f 40 40 40     )F&III2.....?@@@
     1c8:	3f 1f 20 40 20 1f 3f 40 30 40 3f 63 14 08 14 63     ?. @ .?@0@?c...c
     1d8:	03 04 78 04 03 61 51 49 45 43 00 00 7f 41 00 01     ..x..aQIEC...A..
     1e8:	06 08 30 40 00 00 41 7f 00 04 02 01 02 04 80 80     ..0@..A.........
     1f8:	80 80 80 01 02 04 00 00 20 54 54 54 78 7f 48 44     ........ TTTx.HD
     208:	44 38 38 44 44 44 28 38 44 44 48 7f 38 54 54 54     D88DDD(8DDH.8TTT
     218:	18 08 7e 09 01 02 18 a4 a4 a4 78 7f 08 08 08 70     ..~.......x....p
     228:	00 48 7a 40 00 40 80 80 88 7a 7f 10 10 28 44 00     .Hz@.@...z...(D.
     238:	41 7f 40 00 7c 04 38 04 78 7c 04 04 04 78 38 44     A.@.|.8.x|...x8D
     248:	44 44 38 fc 24 24 24 18 18 24 24 fc 80 7c 08 04     DD8.$$$..$$..|..
     258:	04 08 48 54 54 54 20 00 08 3c 48 20 3c 40 40 40     ..HTTT ..<H <@@@
     268:	7c 0c 30 40 30 0c 1c 60 18 60 1c 44 28 10 28 44     |.0@0..`.`.D(.(D
     278:	1c a0 a0 a0 7c 44 64 54 4c 44 00 08 36 41 41 20     ....|DdTLD..6AA 
     288:	40 ff 40 20 41 41 36 08 00 10 08 18 10 08           @.@ AA6.......

00000296 <aux_text_array>:
     296:	0a 10 01 00 00 00 00 00 00 00 00 00 00 00 00 00     ................
	...
     2ae:	00 00 00 ff ff 00 00 00 00 00 00 00 00 0c 0c 00     ................
     2be:	00 00 00 00 00 0f 0f 00 00 0f 0f 00 00 00 00 00     ................
     2ce:	00 00 00 00 00 00 00 80 98 d8 fc 9f 99 f8 ff 9f     ................
     2de:	18 01 0d 0f 01 01 0f 07 01 01 00 00 38 7c 6c ff     ............8|l.
     2ee:	cc cc 80 00 00 00 06 0c 0c 3f 0c 0f 07 00 00 8e     .........?......
     2fe:	91 51 51 4e a0 a0 90 10 00 00 00 00 00 07 08 08     .QQN............
     30e:	08 07 00 00 80 ee 3f 73 e3 c3 06 c0 c0 00 03 07     ......?s........
     31e:	0e 0c 0c 0f 0f 0f 09 00 00 00 00 0f 0f 00 00 00     ................
	...
     33a:	00 00 f0 fe 0f 01 00 00 00 00 00 00 03 1f 3c 20     ..............< 
     34a:	00 00 00 00 00 01 0f fe f0 00 00 00 00 00 00 20     ............... 
     35a:	3c 1f 03 00 00 00 00 00 24 3c 18 ff 18 3c 24 00     <.......$<...<$.
	...
     376:	c0 c0 c0 f8 f8 c0 c0 c0 00 00 00 00 00 07 07 00     ................
	...
     396:	20 3e 1e 00 00 00 00 00 00 80 80 80 80 80 00 00      >..............
     3a6:	00 00 00 01 01 01 01 01 00 00 00 00 00 00 00 00     ................
	...
     3be:	00 0e 0e 00 00 00 00 00 00 00 00 e0 f8 1e 07 01     ................
     3ce:	00 00 10 1c 0f 03 00 00 00 00 00 00 f8 fe 07 63     ...............c
     3de:	63 07 fe fc 00 00 01 07 0e 0c 0c 0e 07 03 00 00     c...............
     3ee:	00 06 03 ff ff 00 00 00 00 00 0c 0c 0c 0f 0f 0c     ................
     3fe:	0c 0c 00 00 06 03 03 83 c3 63 3e 1c 00 00 0c 0e     .........c>.....
     40e:	0f 0d 0c 0c 0c 0c 00 00 06 03 63 63 63 e3 fe 9c     ..........ccc...
     41e:	00 00 06 0c 0c 0c 0c 0c 07 07 00 00 c0 e0 b8 8c     ................
     42e:	87 ff ff 80 00 00 01 01 01 01 01 0f 0f 01 00 00     ................
     43e:	7f 3f 33 33 33 73 e3 c0 00 00 06 0c 0c 0c 0c 0e     .?333s..........
     44e:	07 03 00 00 f8 fe 67 33 33 73 e6 c0 00 00 03 07     ......g33s......
     45e:	0e 0c 0c 0e 07 03 00 00 03 03 03 83 f3 7f 1f 07     ................
     46e:	00 00 00 08 0e 07 01 00 00 00 00 00 9c fe 63 63     ..............cc
     47e:	63 63 fe 9c 00 00 07 07 0c 0c 0c 0c 07 07 00 00     cc..............
     48e:	3c 7e e7 c3 c3 67 fe fc 00 00 00 06 0c 0c 0c 0e     <~...g..........
     49e:	07 01 00 00 00 00 00 70 70 00 00 00 00 00 00 00     .......pp.......
     4ae:	00 0e 0e 00 00 00 00 00 00 00 00 70 70 00 00 00     ...........pp...
     4be:	00 00 00 00 20 3e 1e 00 00 00 00 00 c0 c0 e0 20     .... >......... 
     4ce:	30 30 10 18 00 00 00 00 01 01 03 03 02 06 00 00     00..............
     4de:	30 30 30 30 30 30 30 30 00 00 03 03 03 03 03 03     00000000........
     4ee:	03 03 00 00 18 10 30 30 20 e0 c0 c0 00 00 06 02     ......00 .......
     4fe:	03 03 01 01 00 00 00 00 06 03 c3 e3 33 3f 0e 00     ............3?..
     50e:	00 00 00 00 0d 0d 00 00 00 00 00 f0 f8 1c ce e6     ................
     51e:	66 6e fc f8 00 03 0f 1c 39 33 33 33 3b 13 00 00     fn......9333;...
     52e:	00 e0 fe 9f 9f fe e0 00 00 00 0c 0f 07 01 01 07     ................
     53e:	0f 0c 00 00 ff ff 63 63 63 63 fe 9e 00 00 0f 0f     ......cccc......
     54e:	0c 0c 0c 0c 0f 07 00 00 f8 fe 06 03 03 03 03 06     ................
     55e:	00 00 01 07 06 0c 0c 0c 0c 06 00 00 ff ff 03 03     ................
     56e:	03 06 fe f8 00 00 0f 0f 0c 0c 0c 06 07 01 00 00     ................
     57e:	ff ff 63 63 63 63 63 03 00 00 0f 0f 0c 0c 0c 0c     ..ccccc.........
     58e:	0c 0c 00 00 ff ff 63 63 63 63 63 03 00 00 0f 0f     ......ccccc.....
	...
     5a6:	f8 fe 06 03 c3 c3 c3 c6 00 00 01 07 06 0c 0c 0c     ................
     5b6:	0f 07 00 00 ff ff 60 60 60 60 ff ff 00 00 0f 0f     ......````......
     5c6:	00 00 00 00 0f 0f 00 00 00 03 03 ff ff 03 03 00     ................
     5d6:	00 00 00 0c 0c 0f 0f 0c 0c 00 00 00 00 00 00 03     ................
     5e6:	03 03 ff ff 00 00 06 0c 0c 0c 0c 0c 07 07 00 00     ................
     5f6:	ff ff 70 78 fe 87 03 01 00 00 0f 0f 00 00 01 07     ..px............
     606:	0f 0c 00 00 ff ff 00 00 00 00 00 00 00 00 0f 0f     ................
     616:	0c 0c 0c 0c 0c 0c 00 00 ff ff 1f f8 f8 1f ff ff     ................
     626:	00 00 0f 0f 00 00 00 00 0f 0f 00 00 ff ff 0f 78     ...............x
     636:	e0 00 ff ff 00 00 0f 0f 00 00 01 0f 0f 0f 00 00     ................
     646:	f8 fe 07 03 03 07 fe f8 00 00 01 07 0e 0c 0c 0e     ................
     656:	07 01 00 00 ff ff 63 63 63 63 3e 3e 00 00 0f 0f     ......cccc>>....
	...
     66e:	f8 fe 07 03 03 07 fe f8 00 00 01 07 0e 0c 0c 1e     ................
     67e:	37 03 00 00 ff ff 63 63 e3 e3 fe 1e 00 00 0f 0f     7.....cc........
     68e:	00 00 00 01 0f 0f 08 00 1c 3e 73 63 63 e3 c6 80     .........>scc...
     69e:	00 00 06 0c 0c 0c 0c 0c 07 07 00 00 03 03 03 ff     ................
     6ae:	ff 03 03 03 00 00 00 00 00 0f 0f 00 00 00 00 00     ................
     6be:	ff ff 00 00 00 00 ff ff 00 00 03 07 0e 0c 0c 0e     ................
     6ce:	07 03 00 00 03 7f fe 80 80 fe 7f 03 00 00 00 00     ................
     6de:	0f 0f 0f 0f 00 00 00 0f ff f0 00 f8 f8 00 f0 ff     ................
     6ee:	0f 00 0f 0f 0f 00 00 0f 0f 0f 00 00 01 07 9f fc     ................
     6fe:	fc 9f 07 01 00 00 08 0e 0f 01 01 0f 0e 08 00 01     ................
     70e:	07 1f 3c f0 f0 3c 1f 07 01 00 00 00 00 0f 0f 00     ..<..<..........
     71e:	00 00 00 00 03 03 c3 e3 7b 3f 0f 07 00 00 0e 0f     ........{?......
     72e:	0f 0d 0c 0c 0c 0c 00 00 00 00 ff ff 01 01 00 00     ................
     73e:	00 00 00 00 3f 3f 20 20 00 00 00 00 01 07 1c 70     ....??  .......p
     74e:	c0 00 00 00 00 00 00 00 00 00 01 07 1c 10 00 00     ................
     75e:	00 01 01 ff ff 00 00 00 00 00 00 20 20 3f 3f 00     ...........  ??.
     76e:	00 00 00 08 0c 0e 07 03 07 0e 0c 08 00 00 00 00     ................
	...
     78e:	00 80 80 80 80 80 80 80 80 80 80 00 00 00 01 03     ................
     79e:	02 00 00 00 00 00 00 00 00 00 00 00 00 00 00 00     ................
     7ae:	00 b0 98 d8 d8 d8 f8 f0 00 00 07 0f 0d 0c 0c 06     ................
     7be:	0f 0f 00 00 ff ff 30 18 18 38 f0 e0 00 00 0f 0f     ......0..8......
     7ce:	06 0c 0c 0e 07 03 00 00 e0 f0 38 18 18 18 18 30     ..........8....0
     7de:	00 00 03 07 0e 0c 0c 0c 0c 06 00 00 e0 f0 38 18     ..............8.
     7ee:	18 30 ff ff 00 00 03 07 0e 0c 0c 06 0f 0f 00 00     .0..............
     7fe:	e0 f0 d8 d8 d8 d8 f0 e0 00 00 03 07 0e 0c 0c 0c     ................
     80e:	0c 06 00 00 18 18 fe ff 1b 1b 1b 00 00 00 00 00     ................
     81e:	0f 0f 00 00 00 00 00 00 e0 f0 38 18 18 30 f8 f8     ..........8..0..
     82e:	00 00 03 37 6e 6c 6c 66 7f 3f 00 00 ff ff 30 18     ...7nllf.?....0.
     83e:	18 18 f8 f0 00 00 0f 0f 00 00 00 00 0f 0f 00 00     ................
     84e:	00 18 18 fb fb 00 00 00 00 00 0c 0c 0c 0f 0f 0c     ................
     85e:	0c 0c 00 00 00 18 18 fb fb 00 00 00 00 00 60 60     ..............``
     86e:	60 7f 3f 00 00 00 00 00 ff ff c0 f0 b8 18 08 00     `.?.............
     87e:	00 00 0f 0f 00 01 03 0f 0c 08 00 00 03 03 ff ff     ................
	...
     896:	07 0f 0c 0c 0c 00 00 00 f8 f8 18 f8 f0 18 f8 f0     ................
     8a6:	00 00 0f 0f 00 0f 0f 00 0f 0f 00 00 f8 f8 30 18     ..............0.
     8b6:	18 18 f8 f0 00 00 0f 0f 00 00 00 00 0f 0f 00 00     ................
     8c6:	e0 f0 38 18 18 38 f0 e0 00 00 03 07 0e 0c 0c 0e     ..8..8..........
     8d6:	07 03 00 00 f8 f8 30 18 18 38 f0 e0 00 00 7f 7f     ......0..8......
     8e6:	06 0c 0c 0e 07 03 00 00 e0 f0 38 18 18 30 f8 f8     ..........8..0..
     8f6:	00 00 03 07 0e 0c 0c 06 7f 7f 00 00 00 f8 f8 30     ...............0
     906:	18 18 18 18 00 00 00 0f 0f 00 00 00 00 00 00 00     ................
     916:	70 f8 d8 d8 d8 d8 98 30 00 00 06 0c 0c 0c 0c 0d     p......0........
     926:	0f 07 00 00 18 18 fe fe 18 18 18 00 00 00 00 00     ................
     936:	07 0f 0c 0c 0c 00 00 00 f8 f8 00 00 00 00 f8 f8     ................
     946:	00 00 07 0f 0c 0c 0c 06 0f 0f 00 00 18 f8 f0 00     ................
     956:	00 f0 f8 18 00 00 00 00 07 0f 0f 07 00 00 00 38     ...............8
     966:	f8 80 00 e0 e0 00 80 f8 38 00 03 0f 0f 01 01 0f     ........8.......
     976:	0f 03 00 00 08 18 78 e0 e0 78 18 08 00 00 08 0c     ......x..x......
     986:	0f 03 03 0f 0c 08 00 00 08 78 f8 c0 80 f8 f8 18     .........x......
     996:	00 00 00 60 61 7f 1f 07 00 00 00 00 18 18 18 98     ...`a...........
     9a6:	d8 78 38 18 00 00 0c 0e 0f 0d 0c 0c 0c 0c 00 00     .x8.............
     9b6:	00 80 80 7e 7f 01 01 00 00 00 00 00 00 3f 7f 40     ...~.........?.@
     9c6:	40 00 00 10 18 1c 1e ff ff 1e 1c 18 10 00 00 00     @...............
     9d6:	00 ff ff 00 00 00 00 00 00 01 01 7f 7e 80 80 00     ............~...
     9e6:	00 00 00 40 40 7f 3f 00 00 00 00 00 c0 60 60 60     ...@@.?......```
     9f6:	c0 c0 c0 60 00 00 00 00 00 00 00 00 00 00 00 00     ...`............

00000a06 <__ctors_end>:
     a06:	11 24       	eor	r1, r1
     a08:	1f be       	out	0x3f, r1	; 63
     a0a:	cf ef       	ldi	r28, 0xFF	; 255
     a0c:	d0 e1       	ldi	r29, 0x10	; 16
     a0e:	de bf       	out	0x3e, r29	; 62
     a10:	cd bf       	out	0x3d, r28	; 61

00000a12 <__do_copy_data>:
     a12:	13 e0       	ldi	r17, 0x03	; 3
     a14:	a0 e0       	ldi	r26, 0x00	; 0
     a16:	b1 e0       	ldi	r27, 0x01	; 1
     a18:	ea ec       	ldi	r30, 0xCA	; 202
     a1a:	fa e2       	ldi	r31, 0x2A	; 42
     a1c:	02 c0       	rjmp	.+4      	; 0xa22 <.do_copy_data_start>

00000a1e <.do_copy_data_loop>:
     a1e:	05 90       	lpm	r0, Z+
     a20:	0d 92       	st	X+, r0

00000a22 <.do_copy_data_start>:
     a22:	a2 3d       	cpi	r26, 0xD2	; 210
     a24:	b1 07       	cpc	r27, r17
     a26:	d9 f7       	brne	.-10     	; 0xa1e <.do_copy_data_loop>

00000a28 <__do_clear_bss>:
     a28:	15 e0       	ldi	r17, 0x05	; 5
     a2a:	a2 ed       	ldi	r26, 0xD2	; 210
     a2c:	b3 e0       	ldi	r27, 0x03	; 3
     a2e:	01 c0       	rjmp	.+2      	; 0xa32 <.do_clear_bss_start>

00000a30 <.do_clear_bss_loop>:
     a30:	1d 92       	st	X+, r1

00000a32 <.do_clear_bss_start>:
     a32:	af 30       	cpi	r26, 0x0F	; 15
     a34:	b1 07       	cpc	r27, r17
     a36:	e1 f7       	brne	.-8      	; 0xa30 <.do_clear_bss_loop>
     a38:	0e 94 00 0e 	call	0x1c00	; 0x1c00 <main>
     a3c:	0c 94 63 15 	jmp	0x2ac6	; 0x2ac6 <_exit>

00000a40 <__bad_interrupt>:
     a40:	0c 94 00 00 	jmp	0	; 0x0 <__vectors>

00000a44 <__vector_20>:

//this include file stores all the revelant aux font data. you can make new ones with the bmp2header_font utility in the utilities folder
#include "aux_font.h"			  			  

ISR (SIG_USART_RECV)//USART Receive Interrupt
{
     a44:	1f 92       	push	r1
     a46:	0f 92       	push	r0
     a48:	0f b6       	in	r0, 0x3f	; 63
     a4a:	0f 92       	push	r0
     a4c:	11 24       	eor	r1, r1
     a4e:	8f 93       	push	r24
     a50:	9f 93       	push	r25
     a52:	ef 93       	push	r30
     a54:	ff 93       	push	r31
	cli();//Disable Interrupts
     a56:	f8 94       	cli

	RX_array[RX_in++] = UDR0;	//get recieved byte
     a58:	80 91 d2 03 	lds	r24, 0x03D2
     a5c:	90 91 c6 00 	lds	r25, 0x00C6
     a60:	e8 2f       	mov	r30, r24
     a62:	f0 e0       	ldi	r31, 0x00	; 0
     a64:	e7 50       	subi	r30, 0x07	; 7
     a66:	fc 4f       	sbci	r31, 0xFC	; 252
     a68:	90 83       	st	Z, r25
     a6a:	8f 5f       	subi	r24, 0xFF	; 255
     a6c:	80 93 d2 03 	sts	0x03D2, r24
	if (RX_in >= RX_BUFFER_SIZE) RX_in = 0;	//wrap RX_in	
     a70:	80 91 d2 03 	lds	r24, 0x03D2
     a74:	84 31       	cpi	r24, 0x14	; 20
     a76:	10 f0       	brcs	.+4      	; 0xa7c <__vector_20+0x38>
     a78:	10 92 d2 03 	sts	0x03D2, r1
	RX_bytes++;			//keep count of bytes recieved
     a7c:	80 91 d5 03 	lds	r24, 0x03D5
     a80:	8f 5f       	subi	r24, 0xFF	; 255
     a82:	80 93 d5 03 	sts	0x03D5, r24
	
	//test for buffer close to full
	if (RX_bytes > (unsigned char)(RX_BUFFER_SIZE *.75))
     a86:	80 91 d5 03 	lds	r24, 0x03D5
     a8a:	80 31       	cpi	r24, 0x10	; 16
     a8c:	50 f0       	brcs	.+20     	; 0xaa2 <__vector_20+0x5e>
}

void put_char(char byte)
{
	/* Wait for empty transmit buffer */
	while ( !( UCSR0A & (1<<UDRE0)) );
     a8e:	80 91 c0 00 	lds	r24, 0x00C0
     a92:	85 ff       	sbrs	r24, 5
     a94:	fc cf       	rjmp	.-8      	; 0xa8e <__vector_20+0x4a>
	/* Put data into buffer, sends the data */
	UDR0 = byte;
     a96:	83 e1       	ldi	r24, 0x13	; 19
     a98:	80 93 c6 00 	sts	0x00C6, r24
	
	//test for buffer close to full
	if (RX_bytes > (unsigned char)(RX_BUFFER_SIZE *.75))
	{
		put_char(XOFF);		//send XOFF
		RX_pause=1;		//flag reception suspended
     a9c:	81 e0       	ldi	r24, 0x01	; 1
     a9e:	80 93 d6 03 	sts	0x03D6, r24
	}
	
	sei();//Enable Interrupts	
     aa2:	78 94       	sei
}
     aa4:	ff 91       	pop	r31
     aa6:	ef 91       	pop	r30
     aa8:	9f 91       	pop	r25
     aaa:	8f 91       	pop	r24
     aac:	0f 90       	pop	r0
     aae:	0f be       	out	0x3f, r0	; 63
     ab0:	0f 90       	pop	r0
     ab2:	1f 90       	pop	r1
     ab4:	18 95       	reti

00000ab6 <__vector_16>:

ISR (TIMER0_COMPA_vect) //
{
     ab6:	1f 92       	push	r1
     ab8:	0f 92       	push	r0
     aba:	0f b6       	in	r0, 0x3f	; 63
     abc:	0f 92       	push	r0
     abe:	11 24       	eor	r1, r1
     ac0:	8f 93       	push	r24
     ac2:	9f 93       	push	r25
	unsigned char y;
	
	//cli();//Disable Interrupts
	
	TCCR0B = 0;
     ac4:	15 bc       	out	0x25, r1	; 37
	TIMSK0 = 0;//disable timer ints
     ac6:	10 92 6e 00 	sts	0x006E, r1
	
	TIFR0 = 0x02;//clear the interrupt
     aca:	82 e0       	ldi	r24, 0x02	; 2
     acc:	85 bb       	out	0x15, r24	; 21


	TCNT0 = 0;
     ace:	16 bc       	out	0x26, r1	; 38
		
	y = PINA;
	if (y & (1<<BL_EN))		//if on turn off
     ad0:	04 99       	sbic	0x00, 4	; 0
     ad2:	0f c0       	rjmp	.+30     	; 0xaf2 <__vector_16+0x3c>
		OCR0A =100 - BL_dutycycle;
	}
	
	else //off, turn on
	{
		PORTA |= (1<<BL_EN);
     ad4:	14 9a       	sbi	0x02, 4	; 2
		OCR0A = BL_dutycycle;
     ad6:	80 91 39 01 	lds	r24, 0x0139
     ada:	87 bd       	out	0x27, r24	; 39
	}
	
	
	TIMSK0 = 0x02;	//enable OCR0A
     adc:	82 e0       	ldi	r24, 0x02	; 2
     ade:	80 93 6e 00 	sts	0x006E, r24
	TCCR0B = 0x02;
     ae2:	85 bd       	out	0x25, r24	; 37
}
     ae4:	9f 91       	pop	r25
     ae6:	8f 91       	pop	r24
     ae8:	0f 90       	pop	r0
     aea:	0f be       	out	0x3f, r0	; 63
     aec:	0f 90       	pop	r0
     aee:	1f 90       	pop	r1
     af0:	18 95       	reti
	TCNT0 = 0;
		
	y = PINA;
	if (y & (1<<BL_EN))		//if on turn off
	{
		PORTA &= (~(1<<BL_EN));
     af2:	14 98       	cbi	0x02, 4	; 2
		OCR0A =100 - BL_dutycycle;
     af4:	84 e6       	ldi	r24, 0x64	; 100
     af6:	90 91 39 01 	lds	r25, 0x0139
     afa:	89 1b       	sub	r24, r25
     afc:	87 bd       	out	0x27, r24	; 39
     afe:	ee cf       	rjmp	.-36     	; 0xadc <__vector_16+0x26>

00000b00 <ioinit>:
void ioinit (void)
{
	
    //1 = output, 0 = input
   
	DDRB = 0b00000000; //PB0-PB4 are read buttons and are inputs
     b00:	14 b8       	out	0x04, r1	; 4
	DDRC = 0b00000000; //PC0-PC7 are the data bus.
     b02:	17 b8       	out	0x07, r1	; 7
	
	PORTA= 0b11110000;	
     b04:	80 ef       	ldi	r24, 0xF0	; 240
     b06:	82 b9       	out	0x02, r24	; 2
	DDRA = 0b11110000;	//7-4 drive led's 2-0 read buttons
     b08:	81 b9       	out	0x01, r24	; 1
	
	DDRD = 0b11111110;	//7-2 are LCD control lines 1 is usart tx, 0 is usart RX
     b0a:	8e ef       	ldi	r24, 0xFE	; 254
     b0c:	8a b9       	out	0x0a, r24	; 10
	PORTD = LCD_IDLE;
     b0e:	80 e2       	ldi	r24, 0x20	; 32
     b10:	8b b9       	out	0x0b, r24	; 11
		
	//Init timer 2
    	TCCR2B = (1<<CS21); //Set Prescaler to 8. CS21=1
     b12:	82 e0       	ldi	r24, 0x02	; 2
     b14:	80 93 b1 00 	sts	0x00B1, r24

	//Set up Timer 0
	TCCR0A = 0x02;//CTC mode
     b18:	84 bd       	out	0x24, r24	; 36
	
	TIMSK0 = 0x02;//enable OCR0A
     b1a:	80 93 6e 00 	sts	0x006E, r24
	
	OCR0A = BL_dutycycle;
     b1e:	80 91 39 01 	lds	r24, 0x0139
     b22:	87 bd       	out	0x27, r24	; 39

}
     b24:	08 95       	ret

00000b26 <delay_us>:
//General short delays
void delay_us(uint8_t x)
{
	char temp;
	
	if (x == 0) temp = 1;
     b26:	88 23       	and	r24, r24
     b28:	71 f4       	brne	.+28     	; 0xb46 <delay_us+0x20>
     b2a:	9f ef       	ldi	r25, 0xFF	; 255
	else temp = x;
	
	TIFR2 |= 0x01;			//Clear any interrupt flags on Timer2
     b2c:	b8 9a       	sbi	0x17, 0	; 23
    
    TCNT2 = 256 - temp; 		//256 - 125 = 131 : Preload timer 2 for x clicks. Should be 1us per click
     b2e:	90 93 b2 00 	sts	0x00B2, r25

	while(!(TIFR2 & 0x01));
     b32:	b8 9b       	sbis	0x17, 0	; 23
     b34:	fe cf       	rjmp	.-4      	; 0xb32 <delay_us+0xc>
	
	if (x == 0) return;		//this is for display timing	
     b36:	88 23       	and	r24, r24
     b38:	29 f0       	breq	.+10     	; 0xb44 <delay_us+0x1e>
	
	//The prescaler doesn't allow for a setting of 16, just 8 or 32. So, we do this twice.
	TIFR2 |= 0x01;
     b3a:	b8 9a       	sbi	0x17, 0	; 23
    
    TCNT2 = 256 - temp; 		//256 - 125 = 131 : Preload timer 2 for x clicks. Should be 1us per click
     b3c:	90 93 b2 00 	sts	0x00B2, r25

	while(!(TIFR2 & 0x01));
     b40:	b8 9b       	sbis	0x17, 0	; 23
     b42:	fe cf       	rjmp	.-4      	; 0xb40 <delay_us+0x1a>
     b44:	08 95       	ret
//General short delays
void delay_us(uint8_t x)
{
	char temp;
	
	if (x == 0) temp = 1;
     b46:	98 2f       	mov	r25, r24
     b48:	91 95       	neg	r25
     b4a:	f0 cf       	rjmp	.-32     	; 0xb2c <delay_us+0x6>

00000b4c <delay_ms>:

}

//General short delays
void delay_ms(uint16_t x)
{
     b4c:	cf 93       	push	r28
     b4e:	df 93       	push	r29
     b50:	ec 01       	movw	r28, r24
	for (; x > 0 ; x--)
     b52:	00 97       	sbiw	r24, 0x00	; 0
     b54:	71 f0       	breq	.+28     	; 0xb72 <delay_ms+0x26>
    {
        delay_us(250);
     b56:	8a ef       	ldi	r24, 0xFA	; 250
     b58:	0e 94 93 05 	call	0xb26	; 0xb26 <delay_us>
        delay_us(250);
     b5c:	8a ef       	ldi	r24, 0xFA	; 250
     b5e:	0e 94 93 05 	call	0xb26	; 0xb26 <delay_us>
        delay_us(250);
     b62:	8a ef       	ldi	r24, 0xFA	; 250
     b64:	0e 94 93 05 	call	0xb26	; 0xb26 <delay_us>
        delay_us(250);
     b68:	8a ef       	ldi	r24, 0xFA	; 250
     b6a:	0e 94 93 05 	call	0xb26	; 0xb26 <delay_us>
}

//General short delays
void delay_ms(uint16_t x)
{
	for (; x > 0 ; x--)
     b6e:	21 97       	sbiw	r28, 0x01	; 1
     b70:	91 f7       	brne	.-28     	; 0xb56 <delay_ms+0xa>
        delay_us(250);
        delay_us(250);
        delay_us(250);
    }
	
}
     b72:	df 91       	pop	r29
     b74:	cf 91       	pop	r28
     b76:	08 95       	ret

00000b78 <USART_Init>:
}

void USART_Init( unsigned int ubrr)
{
	// Set baud rate 
	UBRR0H = (unsigned char)(ubrr>>8);
     b78:	90 93 c5 00 	sts	0x00C5, r25
	UBRR0L = (unsigned char)ubrr;
     b7c:	80 93 c4 00 	sts	0x00C4, r24
	
	// Enable receiver and transmitter 
	UCSR0A = (1<<U2X0);
     b80:	82 e0       	ldi	r24, 0x02	; 2
     b82:	80 93 c0 00 	sts	0x00C0, r24
	UCSR0B = (1<<RXCIE0)|(1<<RXEN0)|(1<<TXEN0);	//Enable Interrupts on receive character
     b86:	88 e9       	ldi	r24, 0x98	; 152
     b88:	80 93 c1 00 	sts	0x00C1, r24
	
	UCSR0C = (1<<UCSZ00)|(1<<UCSZ01);
     b8c:	86 e0       	ldi	r24, 0x06	; 6
     b8e:	80 93 c2 00 	sts	0x00C2, r24
	sei();
     b92:	78 94       	sei
}
     b94:	08 95       	ret

00000b96 <RX_get_byte>:

char RX_get_byte(void)	//retrieves a character from the RX_buffer and does book-keeping
{
	char x;

	while(RX_bytes==0);				//wait for data to be available
     b96:	80 91 d5 03 	lds	r24, 0x03D5
     b9a:	88 23       	and	r24, r24
     b9c:	e1 f3       	breq	.-8      	; 0xb96 <RX_get_byte>
	x = RX_array[RX_read++];			//get char from buffer and increment read pointer
     b9e:	80 91 d3 03 	lds	r24, 0x03D3
     ba2:	90 91 d4 03 	lds	r25, 0x03D4
     ba6:	fc 01       	movw	r30, r24
     ba8:	e7 50       	subi	r30, 0x07	; 7
     baa:	fc 4f       	sbci	r31, 0xFC	; 252
     bac:	e0 81       	ld	r30, Z
     bae:	01 96       	adiw	r24, 0x01	; 1
     bb0:	90 93 d4 03 	sts	0x03D4, r25
     bb4:	80 93 d3 03 	sts	0x03D3, r24
	if(RX_read >= RX_BUFFER_SIZE) RX_read = 0;	//if the read pointer reaches the end of the buffer, wrap back to the beginning
     bb8:	44 97       	sbiw	r24, 0x14	; 20
     bba:	20 f0       	brcs	.+8      	; 0xbc4 <RX_get_byte+0x2e>
     bbc:	10 92 d4 03 	sts	0x03D4, r1
     bc0:	10 92 d3 03 	sts	0x03D3, r1
	cli();						//interrupts must be disabled when changing RX_bytes, since it can be chabged here and in the ISR
     bc4:	f8 94       	cli
	RX_bytes--;
     bc6:	80 91 d5 03 	lds	r24, 0x03D5
     bca:	81 50       	subi	r24, 0x01	; 1
     bcc:	80 93 d5 03 	sts	0x03D5, r24
	sei();
     bd0:	78 94       	sei
	
	//check to see if we need to re-enable reception 

	if (RX_pause==1)		//if USART reception is suspended
     bd2:	80 91 d6 03 	lds	r24, 0x03D6
     bd6:	81 30       	cpi	r24, 0x01	; 1
     bd8:	11 f0       	breq	.+4      	; 0xbde <RX_get_byte+0x48>
		{
			put_char(XON);	//resume reception
			RX_pause=0;	//flag it
		}	
	return x;
}
     bda:	8e 2f       	mov	r24, r30
     bdc:	08 95       	ret
	sei();
	
	//check to see if we need to re-enable reception 

	if (RX_pause==1)		//if USART reception is suspended
		if (RX_bytes < (unsigned char)(RX_BUFFER_SIZE *.25) )		//if RX_buffer is suitably empty
     bde:	80 91 d5 03 	lds	r24, 0x03D5
     be2:	85 30       	cpi	r24, 0x05	; 5
     be4:	d0 f7       	brcc	.-12     	; 0xbda <RX_get_byte+0x44>
}

void put_char(char byte)
{
	/* Wait for empty transmit buffer */
	while ( !( UCSR0A & (1<<UDRE0)) );
     be6:	80 91 c0 00 	lds	r24, 0x00C0
     bea:	85 ff       	sbrs	r24, 5
     bec:	fc cf       	rjmp	.-8      	; 0xbe6 <RX_get_byte+0x50>
	/* Put data into buffer, sends the data */
	UDR0 = byte;
     bee:	81 e1       	ldi	r24, 0x11	; 17
     bf0:	80 93 c6 00 	sts	0x00C6, r24

	if (RX_pause==1)		//if USART reception is suspended
		if (RX_bytes < (unsigned char)(RX_BUFFER_SIZE *.25) )		//if RX_buffer is suitably empty
		{
			put_char(XON);	//resume reception
			RX_pause=0;	//flag it
     bf4:	10 92 d6 03 	sts	0x03D6, r1
     bf8:	f0 cf       	rjmp	.-32     	; 0xbda <RX_get_byte+0x44>

00000bfa <put_char>:
		}	
	return x;
}

void put_char(char byte)
{
     bfa:	98 2f       	mov	r25, r24
	/* Wait for empty transmit buffer */
	while ( !( UCSR0A & (1<<UDRE0)) );
     bfc:	80 91 c0 00 	lds	r24, 0x00C0
     c00:	85 ff       	sbrs	r24, 5
     c02:	fc cf       	rjmp	.-8      	; 0xbfc <put_char+0x2>
	/* Put data into buffer, sends the data */
	UDR0 = byte;
     c04:	90 93 c6 00 	sts	0x00C6, r25
}
     c08:	08 95       	ret

00000c0a <delay>:

//delay for display timing
void delay(void)
{
     c0a:	80 e0       	ldi	r24, 0x00	; 0
	char y;
	
	for(y = 0; y < 38; y++)
	{
		asm volatile ("nop");
     c0c:	00 00       	nop
//delay for display timing
void delay(void)
{
	char y;
	
	for(y = 0; y < 38; y++)
     c0e:	8f 5f       	subi	r24, 0xFF	; 255
     c10:	86 32       	cpi	r24, 0x26	; 38
     c12:	e1 f7       	brne	.-8      	; 0xc0c <delay+0x2>
	{
		asm volatile ("nop");
		
	}	
}
     c14:	08 95       	ret

00000c16 <write_command_LCD>:
	}
}

//write_command_LCD
void write_command_LCD(char byte, char chip)
{
     c16:	98 2f       	mov	r25, r24
	//byte is the command to write, chip determines which chips get written to 1=1,2=2, anything else=both

	DDRC = 0xFF; //data bus is output.
     c18:	8f ef       	ldi	r24, 0xFF	; 255
     c1a:	87 b9       	out	0x07, r24	; 7
	
	if (chip==1) 
     c1c:	61 30       	cpi	r22, 0x01	; 1
     c1e:	11 f1       	breq	.+68     	; 0xc64 <write_command_LCD+0x4e>
		LCD_CONTROL = LCD_COMMAND1;
	else if (chip == 2)
     c20:	62 30       	cpi	r22, 0x02	; 2
     c22:	e9 f0       	breq	.+58     	; 0xc5e <write_command_LCD+0x48>
		LCD_CONTROL = LCD_COMMAND2;
	     else
		LCD_CONTROL = LCD_COMMAND12;
     c24:	80 ee       	ldi	r24, 0xE0	; 224
     c26:	8b b9       	out	0x0b, r24	; 11
 	
	set_data(byte);
     c28:	98 b9       	out	0x08, r25	; 8
     c2a:	80 e0       	ldi	r24, 0x00	; 0
{
	char y;
	
	for(y = 0; y < 38; y++)
	{
		asm volatile ("nop");
     c2c:	00 00       	nop
//delay for display timing
void delay(void)
{
	char y;
	
	for(y = 0; y < 38; y++)
     c2e:	8f 5f       	subi	r24, 0xFF	; 255
     c30:	86 32       	cpi	r24, 0x26	; 38
     c32:	e1 f7       	brne	.-8      	; 0xc2c <write_command_LCD+0x16>
	     else
		LCD_CONTROL = LCD_COMMAND12;
 	
	set_data(byte);
	delay();
	CLK_LCD;
     c34:	5a 9a       	sbi	0x0b, 2	; 11
     c36:	80 e0       	ldi	r24, 0x00	; 0
{
	char y;
	
	for(y = 0; y < 38; y++)
	{
		asm volatile ("nop");
     c38:	00 00       	nop
//delay for display timing
void delay(void)
{
	char y;
	
	for(y = 0; y < 38; y++)
     c3a:	8f 5f       	subi	r24, 0xFF	; 255
     c3c:	86 32       	cpi	r24, 0x26	; 38
     c3e:	e1 f7       	brne	.-8      	; 0xc38 <write_command_LCD+0x22>
	     else
		LCD_CONTROL = LCD_COMMAND12;
 	
	set_data(byte);
	delay();
	CLK_LCD;
     c40:	5a 98       	cbi	0x0b, 2	; 11
     c42:	80 e0       	ldi	r24, 0x00	; 0
{
	char y;
	
	for(y = 0; y < 38; y++)
	{
		asm volatile ("nop");
     c44:	00 00       	nop
//delay for display timing
void delay(void)
{
	char y;
	
	for(y = 0; y < 38; y++)
     c46:	8f 5f       	subi	r24, 0xFF	; 255
     c48:	86 32       	cpi	r24, 0x26	; 38
     c4a:	e1 f7       	brne	.-8      	; 0xc44 <write_command_LCD+0x2e>
 	
	set_data(byte);
	delay();
	CLK_LCD;

	LCD_CONTROL = LCD_IDLE;	
     c4c:	80 e2       	ldi	r24, 0x20	; 32
     c4e:	8b b9       	out	0x0b, r24	; 11
     c50:	80 e0       	ldi	r24, 0x00	; 0
{
	char y;
	
	for(y = 0; y < 38; y++)
	{
		asm volatile ("nop");
     c52:	00 00       	nop
//delay for display timing
void delay(void)
{
	char y;
	
	for(y = 0; y < 38; y++)
     c54:	8f 5f       	subi	r24, 0xFF	; 255
     c56:	86 32       	cpi	r24, 0x26	; 38
     c58:	e1 f7       	brne	.-8      	; 0xc52 <write_command_LCD+0x3c>
	CLK_LCD;

	LCD_CONTROL = LCD_IDLE;	
	delay();

	DDRC = 0x00;	//data bus back to input
     c5a:	17 b8       	out	0x07, r1	; 7
}
     c5c:	08 95       	ret
	DDRC = 0xFF; //data bus is output.
	
	if (chip==1) 
		LCD_CONTROL = LCD_COMMAND1;
	else if (chip == 2)
		LCD_CONTROL = LCD_COMMAND2;
     c5e:	80 e6       	ldi	r24, 0x60	; 96
     c60:	8b b9       	out	0x0b, r24	; 11
     c62:	e2 cf       	rjmp	.-60     	; 0xc28 <write_command_LCD+0x12>
	//byte is the command to write, chip determines which chips get written to 1=1,2=2, anything else=both

	DDRC = 0xFF; //data bus is output.
	
	if (chip==1) 
		LCD_CONTROL = LCD_COMMAND1;
     c64:	80 ea       	ldi	r24, 0xA0	; 160
     c66:	8b b9       	out	0x0b, r24	; 11
     c68:	df cf       	rjmp	.-66     	; 0xc28 <write_command_LCD+0x12>

00000c6a <write_data_LCD>:
	DDRC = 0x00;	//data bus back to input
}
 
//write_data_LCD
void write_data_LCD(char byte, char chip)
{
     c6a:	98 2f       	mov	r25, r24
	//byte is the data to write, chip determines which chips get written to 1=1,2=2 anything else=both
	
	DDRC = 0xFF; //data bus output.	
     c6c:	8f ef       	ldi	r24, 0xFF	; 255
     c6e:	87 b9       	out	0x07, r24	; 7

	if (chip==1) 
     c70:	61 30       	cpi	r22, 0x01	; 1
     c72:	11 f1       	breq	.+68     	; 0xcb8 <write_data_LCD+0x4e>
		LCD_CONTROL = LCD_DATA1;
	else if (chip == 2)
     c74:	62 30       	cpi	r22, 0x02	; 2
     c76:	e9 f0       	breq	.+58     	; 0xcb2 <write_data_LCD+0x48>
		LCD_CONTROL = LCD_DATA2;
	     else
		LCD_CONTROL = LCD_DATA12;
     c78:	88 ee       	ldi	r24, 0xE8	; 232
     c7a:	8b b9       	out	0x0b, r24	; 11

	set_data(byte);
     c7c:	98 b9       	out	0x08, r25	; 8
     c7e:	80 e0       	ldi	r24, 0x00	; 0
{
	char y;
	
	for(y = 0; y < 38; y++)
	{
		asm volatile ("nop");
     c80:	00 00       	nop
//delay for display timing
void delay(void)
{
	char y;
	
	for(y = 0; y < 38; y++)
     c82:	8f 5f       	subi	r24, 0xFF	; 255
     c84:	86 32       	cpi	r24, 0x26	; 38
     c86:	e1 f7       	brne	.-8      	; 0xc80 <write_data_LCD+0x16>
		LCD_CONTROL = LCD_DATA12;

	set_data(byte);
	delay();

	CLK_LCD;
     c88:	5a 9a       	sbi	0x0b, 2	; 11
     c8a:	80 e0       	ldi	r24, 0x00	; 0
{
	char y;
	
	for(y = 0; y < 38; y++)
	{
		asm volatile ("nop");
     c8c:	00 00       	nop
//delay for display timing
void delay(void)
{
	char y;
	
	for(y = 0; y < 38; y++)
     c8e:	8f 5f       	subi	r24, 0xFF	; 255
     c90:	86 32       	cpi	r24, 0x26	; 38
     c92:	e1 f7       	brne	.-8      	; 0xc8c <write_data_LCD+0x22>
		LCD_CONTROL = LCD_DATA12;

	set_data(byte);
	delay();

	CLK_LCD;
     c94:	5a 98       	cbi	0x0b, 2	; 11
     c96:	80 e0       	ldi	r24, 0x00	; 0
{
	char y;
	
	for(y = 0; y < 38; y++)
	{
		asm volatile ("nop");
     c98:	00 00       	nop
//delay for display timing
void delay(void)
{
	char y;
	
	for(y = 0; y < 38; y++)
     c9a:	8f 5f       	subi	r24, 0xFF	; 255
     c9c:	86 32       	cpi	r24, 0x26	; 38
     c9e:	e1 f7       	brne	.-8      	; 0xc98 <write_data_LCD+0x2e>

	set_data(byte);
	delay();

	CLK_LCD;
	LCD_CONTROL = LCD_IDLE;	
     ca0:	80 e2       	ldi	r24, 0x20	; 32
     ca2:	8b b9       	out	0x0b, r24	; 11
     ca4:	80 e0       	ldi	r24, 0x00	; 0
{
	char y;
	
	for(y = 0; y < 38; y++)
	{
		asm volatile ("nop");
     ca6:	00 00       	nop
//delay for display timing
void delay(void)
{
	char y;
	
	for(y = 0; y < 38; y++)
     ca8:	8f 5f       	subi	r24, 0xFF	; 255
     caa:	86 32       	cpi	r24, 0x26	; 38
     cac:	e1 f7       	brne	.-8      	; 0xca6 <write_data_LCD+0x3c>

	CLK_LCD;
	LCD_CONTROL = LCD_IDLE;	
	delay();
	
	DDRC = 0x00;	//data bus input
     cae:	17 b8       	out	0x07, r1	; 7
}
     cb0:	08 95       	ret
	DDRC = 0xFF; //data bus output.	

	if (chip==1) 
		LCD_CONTROL = LCD_DATA1;
	else if (chip == 2)
		LCD_CONTROL = LCD_DATA2;
     cb2:	88 e6       	ldi	r24, 0x68	; 104
     cb4:	8b b9       	out	0x0b, r24	; 11
     cb6:	e2 cf       	rjmp	.-60     	; 0xc7c <write_data_LCD+0x12>
	//byte is the data to write, chip determines which chips get written to 1=1,2=2 anything else=both
	
	DDRC = 0xFF; //data bus output.	

	if (chip==1) 
		LCD_CONTROL = LCD_DATA1;
     cb8:	88 ea       	ldi	r24, 0xA8	; 168
     cba:	8b b9       	out	0x0b, r24	; 11
     cbc:	df cf       	rjmp	.-66     	; 0xc7c <write_data_LCD+0x12>

00000cbe <write_block>:


//this writes a block of contiguous bytes to a single page
//automatically takes care of crossing from one chip to the next
void write_block(char x, char page, char length, char* buf)
{
     cbe:	cf 92       	push	r12
     cc0:	df 92       	push	r13
     cc2:	ff 92       	push	r15
     cc4:	0f 93       	push	r16
     cc6:	1f 93       	push	r17
     cc8:	df 93       	push	r29
     cca:	cf 93       	push	r28
     ccc:	0f 92       	push	r0
     cce:	cd b7       	in	r28, 0x3d	; 61
     cd0:	de b7       	in	r29, 0x3e	; 62
     cd2:	08 2f       	mov	r16, r24
     cd4:	86 2f       	mov	r24, r22
     cd6:	14 2f       	mov	r17, r20
     cd8:	69 01       	movw	r12, r18
	char side;
	char i, s, n1, n2, o;

	side=1;
	o=0;			//offset in data
	set_page(page);		//set proper page
     cda:	88 6b       	ori	r24, 0xB8	; 184
     cdc:	60 e0       	ldi	r22, 0x00	; 0
     cde:	0e 94 0b 06 	call	0xc16	; 0xc16 <write_command_LCD>
	if (x>63)		//account for x being larger than 63 
     ce2:	00 34       	cpi	r16, 0x40	; 64
     ce4:	08 f0       	brcs	.+2      	; 0xce8 <write_block+0x2a>
     ce6:	49 c0       	rjmp	.+146    	; 0xd7a <write_block+0xbc>
     ce8:	81 e0       	ldi	r24, 0x01	; 1
     cea:	89 83       	std	Y+1, r24	; 0x01
	{
		x-= 64;
		side=2;
	}

	s = (64-x);		//distance to edge
     cec:	40 e4       	ldi	r20, 0x40	; 64
     cee:	40 1b       	sub	r20, r16

	if (length>s)		
     cf0:	41 17       	cp	r20, r17
     cf2:	08 f4       	brcc	.+2      	; 0xcf6 <write_block+0x38>
     cf4:	3e c0       	rjmp	.+124    	; 0xd72 <write_block+0xb4>
     cf6:	ff 24       	eor	r15, r15
	{
		n1=length;
		n2=0;
	}

	set_x(x);
     cf8:	80 2f       	mov	r24, r16
     cfa:	80 64       	ori	r24, 0x40	; 64
     cfc:	60 e0       	ldi	r22, 0x00	; 0
     cfe:	0e 94 0b 06 	call	0xc16	; 0xc16 <write_command_LCD>

	DDRC = 0xFF; //data bus output.	
     d02:	8f ef       	ldi	r24, 0xFF	; 255
     d04:	87 b9       	out	0x07, r24	; 7

	//write the data
	if  (side==1) 					//select proper chip
     d06:	f9 81       	ldd	r31, Y+1	; 0x01
     d08:	f1 30       	cpi	r31, 0x01	; 1
     d0a:	09 f4       	brne	.+2      	; 0xd0e <write_block+0x50>
     d0c:	68 c0       	rjmp	.+208    	; 0xdde <write_block+0x120>
		LCD_CONTROL = LCD_DATA1;	
	else
		LCD_CONTROL = LCD_DATA2;
     d0e:	88 e6       	ldi	r24, 0x68	; 104
     d10:	8b b9       	out	0x0b, r24	; 11


	for(i=0;i<n1;i++)
     d12:	11 23       	and	r17, r17
     d14:	d9 f0       	breq	.+54     	; 0xd4c <write_block+0x8e>

	//write the data
	if  (side==1) 					//select proper chip
		LCD_CONTROL = LCD_DATA1;	
	else
		LCD_CONTROL = LCD_DATA2;
     d16:	4c 2d       	mov	r20, r12
     d18:	c6 01       	movw	r24, r12
     d1a:	fc 01       	movw	r30, r24


	for(i=0;i<n1;i++)
	{
		set_data(buf[o++]);			//put data on bus
     d1c:	80 81       	ld	r24, Z
     d1e:	88 b9       	out	0x08, r24	; 8
     d20:	80 e0       	ldi	r24, 0x00	; 0
{
	char y;
	
	for(y = 0; y < 38; y++)
	{
		asm volatile ("nop");
     d22:	00 00       	nop
//delay for display timing
void delay(void)
{
	char y;
	
	for(y = 0; y < 38; y++)
     d24:	8f 5f       	subi	r24, 0xFF	; 255
     d26:	86 32       	cpi	r24, 0x26	; 38
     d28:	e1 f7       	brne	.-8      	; 0xd22 <write_block+0x64>

	for(i=0;i<n1;i++)
	{
		set_data(buf[o++]);			//put data on bus
		delay();
		CLK_LCD;				//clock it in
     d2a:	5a 9a       	sbi	0x0b, 2	; 11
     d2c:	80 e0       	ldi	r24, 0x00	; 0
{
	char y;
	
	for(y = 0; y < 38; y++)
	{
		asm volatile ("nop");
     d2e:	00 00       	nop
//delay for display timing
void delay(void)
{
	char y;
	
	for(y = 0; y < 38; y++)
     d30:	8f 5f       	subi	r24, 0xFF	; 255
     d32:	86 32       	cpi	r24, 0x26	; 38
     d34:	e1 f7       	brne	.-8      	; 0xd2e <write_block+0x70>

	for(i=0;i<n1;i++)
	{
		set_data(buf[o++]);			//put data on bus
		delay();
		CLK_LCD;				//clock it in
     d36:	5a 98       	cbi	0x0b, 2	; 11
     d38:	80 e0       	ldi	r24, 0x00	; 0
{
	char y;
	
	for(y = 0; y < 38; y++)
	{
		asm volatile ("nop");
     d3a:	00 00       	nop
//delay for display timing
void delay(void)
{
	char y;
	
	for(y = 0; y < 38; y++)
     d3c:	8f 5f       	subi	r24, 0xFF	; 255
     d3e:	86 32       	cpi	r24, 0x26	; 38
     d40:	e1 f7       	brne	.-8      	; 0xd3a <write_block+0x7c>
     d42:	31 96       	adiw	r30, 0x01	; 1
		LCD_CONTROL = LCD_DATA1;	
	else
		LCD_CONTROL = LCD_DATA2;


	for(i=0;i<n1;i++)
     d44:	8e 2f       	mov	r24, r30
     d46:	84 1b       	sub	r24, r20
     d48:	81 17       	cp	r24, r17
     d4a:	40 f3       	brcs	.-48     	; 0xd1c <write_block+0x5e>
		set_data(buf[o++]);			//put data on bus
		delay();
		CLK_LCD;				//clock it in
	}

	LCD_CONTROL = LCD_IDLE;	
     d4c:	80 e2       	ldi	r24, 0x20	; 32
     d4e:	8b b9       	out	0x0b, r24	; 11
     d50:	80 e0       	ldi	r24, 0x00	; 0
{
	char y;
	
	for(y = 0; y < 38; y++)
	{
		asm volatile ("nop");
     d52:	00 00       	nop
//delay for display timing
void delay(void)
{
	char y;
	
	for(y = 0; y < 38; y++)
     d54:	8f 5f       	subi	r24, 0xFF	; 255
     d56:	86 32       	cpi	r24, 0x26	; 38
     d58:	e1 f7       	brne	.-8      	; 0xd52 <write_block+0x94>
	}

	LCD_CONTROL = LCD_IDLE;	
	delay();

	if(n2>0)
     d5a:	ff 20       	and	r15, r15
     d5c:	91 f4       	brne	.+36     	; 0xd82 <write_block+0xc4>
		LCD_CONTROL = LCD_IDLE;	
		delay();

	}//if n2>0

	DDRC = 0x00;	//data bus input
     d5e:	17 b8       	out	0x07, r1	; 7
}
     d60:	0f 90       	pop	r0
     d62:	cf 91       	pop	r28
     d64:	df 91       	pop	r29
     d66:	1f 91       	pop	r17
     d68:	0f 91       	pop	r16
     d6a:	ff 90       	pop	r15
     d6c:	df 90       	pop	r13
     d6e:	cf 90       	pop	r12
     d70:	08 95       	ret
	s = (64-x);		//distance to edge

	if (length>s)		
	{
		n1=s;		//how much to read in the first loop
		n2=length-s;	//how much to read in the second loop
     d72:	f1 2e       	mov	r15, r17
     d74:	f4 1a       	sub	r15, r20
     d76:	14 2f       	mov	r17, r20
     d78:	bf cf       	rjmp	.-130    	; 0xcf8 <write_block+0x3a>
	side=1;
	o=0;			//offset in data
	set_page(page);		//set proper page
	if (x>63)		//account for x being larger than 63 
	{
		x-= 64;
     d7a:	00 54       	subi	r16, 0x40	; 64
     d7c:	e2 e0       	ldi	r30, 0x02	; 2
     d7e:	e9 83       	std	Y+1, r30	; 0x01
     d80:	b5 cf       	rjmp	.-150    	; 0xcec <write_block+0x2e>
	LCD_CONTROL = LCD_IDLE;	
	delay();

	if(n2>0)
	{
		set_x(0);
     d82:	80 e4       	ldi	r24, 0x40	; 64
     d84:	60 e0       	ldi	r22, 0x00	; 0
     d86:	0e 94 0b 06 	call	0xc16	; 0xc16 <write_command_LCD>

		DDRC = 0xFF; //data bus output.	
     d8a:	8f ef       	ldi	r24, 0xFF	; 255
     d8c:	87 b9       	out	0x07, r24	; 7

		if  (side==1) 				//select proper chip(opposite of before, since we ran over)
     d8e:	89 81       	ldd	r24, Y+1	; 0x01
     d90:	81 30       	cpi	r24, 0x01	; 1
     d92:	41 f1       	breq	.+80     	; 0xde4 <write_block+0x126>
			LCD_CONTROL = LCD_DATA2;	
		else
			LCD_CONTROL = LCD_DATA1;
     d94:	88 ea       	ldi	r24, 0xA8	; 168
     d96:	8b b9       	out	0x0b, r24	; 11
     d98:	90 e0       	ldi	r25, 0x00	; 0


		for(i=0;i<n2;i++)
		{
			set_data(buf[o++]);		//put data on bus
     d9a:	f6 01       	movw	r30, r12
     d9c:	e1 0f       	add	r30, r17
     d9e:	f1 1d       	adc	r31, r1
     da0:	80 81       	ld	r24, Z
     da2:	88 b9       	out	0x08, r24	; 8
     da4:	1f 5f       	subi	r17, 0xFF	; 255
     da6:	80 e0       	ldi	r24, 0x00	; 0
{
	char y;
	
	for(y = 0; y < 38; y++)
	{
		asm volatile ("nop");
     da8:	00 00       	nop
//delay for display timing
void delay(void)
{
	char y;
	
	for(y = 0; y < 38; y++)
     daa:	8f 5f       	subi	r24, 0xFF	; 255
     dac:	86 32       	cpi	r24, 0x26	; 38
     dae:	e1 f7       	brne	.-8      	; 0xda8 <write_block+0xea>

		for(i=0;i<n2;i++)
		{
			set_data(buf[o++]);		//put data on bus
			delay();
			CLK_LCD;			//clock it in
     db0:	5a 9a       	sbi	0x0b, 2	; 11
     db2:	80 e0       	ldi	r24, 0x00	; 0
{
	char y;
	
	for(y = 0; y < 38; y++)
	{
		asm volatile ("nop");
     db4:	00 00       	nop
//delay for display timing
void delay(void)
{
	char y;
	
	for(y = 0; y < 38; y++)
     db6:	8f 5f       	subi	r24, 0xFF	; 255
     db8:	86 32       	cpi	r24, 0x26	; 38
     dba:	e1 f7       	brne	.-8      	; 0xdb4 <write_block+0xf6>

		for(i=0;i<n2;i++)
		{
			set_data(buf[o++]);		//put data on bus
			delay();
			CLK_LCD;			//clock it in
     dbc:	5a 98       	cbi	0x0b, 2	; 11
     dbe:	80 e0       	ldi	r24, 0x00	; 0
{
	char y;
	
	for(y = 0; y < 38; y++)
	{
		asm volatile ("nop");
     dc0:	00 00       	nop
//delay for display timing
void delay(void)
{
	char y;
	
	for(y = 0; y < 38; y++)
     dc2:	8f 5f       	subi	r24, 0xFF	; 255
     dc4:	86 32       	cpi	r24, 0x26	; 38
     dc6:	e1 f7       	brne	.-8      	; 0xdc0 <write_block+0x102>
			LCD_CONTROL = LCD_DATA2;	
		else
			LCD_CONTROL = LCD_DATA1;


		for(i=0;i<n2;i++)
     dc8:	9f 5f       	subi	r25, 0xFF	; 255
     dca:	9f 15       	cp	r25, r15
     dcc:	30 f3       	brcs	.-52     	; 0xd9a <write_block+0xdc>
			set_data(buf[o++]);		//put data on bus
			delay();
			CLK_LCD;			//clock it in
		}
	
		LCD_CONTROL = LCD_IDLE;	
     dce:	80 e2       	ldi	r24, 0x20	; 32
     dd0:	8b b9       	out	0x0b, r24	; 11
     dd2:	80 e0       	ldi	r24, 0x00	; 0
{
	char y;
	
	for(y = 0; y < 38; y++)
	{
		asm volatile ("nop");
     dd4:	00 00       	nop
//delay for display timing
void delay(void)
{
	char y;
	
	for(y = 0; y < 38; y++)
     dd6:	8f 5f       	subi	r24, 0xFF	; 255
     dd8:	86 32       	cpi	r24, 0x26	; 38
     dda:	e1 f7       	brne	.-8      	; 0xdd4 <write_block+0x116>
     ddc:	c0 cf       	rjmp	.-128    	; 0xd5e <write_block+0xa0>

	DDRC = 0xFF; //data bus output.	

	//write the data
	if  (side==1) 					//select proper chip
		LCD_CONTROL = LCD_DATA1;	
     dde:	88 ea       	ldi	r24, 0xA8	; 168
     de0:	8b b9       	out	0x0b, r24	; 11
     de2:	97 cf       	rjmp	.-210    	; 0xd12 <write_block+0x54>
		set_x(0);

		DDRC = 0xFF; //data bus output.	

		if  (side==1) 				//select proper chip(opposite of before, since we ran over)
			LCD_CONTROL = LCD_DATA2;	
     de4:	88 e6       	ldi	r24, 0x68	; 104
     de6:	8b b9       	out	0x0b, r24	; 11
     de8:	90 e0       	ldi	r25, 0x00	; 0
     dea:	d7 cf       	rjmp	.-82     	; 0xd9a <write_block+0xdc>

00000dec <read_data_LCD>:
char read_data_LCD(char chip)
{
	char data1;
	//chip determines which chip to read from
		
	if  (chip==1) 				//select proper chip
     dec:	81 30       	cpi	r24, 0x01	; 1
     dee:	21 f1       	breq	.+72     	; 0xe38 <read_data_LCD+0x4c>
		LCD_CONTROL = LCD_READ1;	
	else
		LCD_CONTROL = LCD_READ2;
     df0:	88 e7       	ldi	r24, 0x78	; 120
     df2:	8b b9       	out	0x0b, r24	; 11
	
	CLK_LCD;				//dummy clk
     df4:	5a 9a       	sbi	0x0b, 2	; 11
     df6:	80 e0       	ldi	r24, 0x00	; 0
{
	char y;
	
	for(y = 0; y < 38; y++)
	{
		asm volatile ("nop");
     df8:	00 00       	nop
//delay for display timing
void delay(void)
{
	char y;
	
	for(y = 0; y < 38; y++)
     dfa:	8f 5f       	subi	r24, 0xFF	; 255
     dfc:	86 32       	cpi	r24, 0x26	; 38
     dfe:	e1 f7       	brne	.-8      	; 0xdf8 <read_data_LCD+0xc>
	if  (chip==1) 				//select proper chip
		LCD_CONTROL = LCD_READ1;	
	else
		LCD_CONTROL = LCD_READ2;
	
	CLK_LCD;				//dummy clk
     e00:	5a 98       	cbi	0x0b, 2	; 11
     e02:	80 e0       	ldi	r24, 0x00	; 0
{
	char y;
	
	for(y = 0; y < 38; y++)
	{
		asm volatile ("nop");
     e04:	00 00       	nop
//delay for display timing
void delay(void)
{
	char y;
	
	for(y = 0; y < 38; y++)
     e06:	8f 5f       	subi	r24, 0xFF	; 255
     e08:	86 32       	cpi	r24, 0x26	; 38
     e0a:	e1 f7       	brne	.-8      	; 0xe04 <read_data_LCD+0x18>
		LCD_CONTROL = LCD_READ2;
	
	CLK_LCD;				//dummy clk
	

	LCD_CONTROL |= (1 << EN);
     e0c:	5a 9a       	sbi	0x0b, 2	; 11
     e0e:	80 e0       	ldi	r24, 0x00	; 0
{
	char y;
	
	for(y = 0; y < 38; y++)
	{
		asm volatile ("nop");
     e10:	00 00       	nop
//delay for display timing
void delay(void)
{
	char y;
	
	for(y = 0; y < 38; y++)
     e12:	8f 5f       	subi	r24, 0xFF	; 255
     e14:	86 32       	cpi	r24, 0x26	; 38
     e16:	e1 f7       	brne	.-8      	; 0xe10 <read_data_LCD+0x24>
	

	LCD_CONTROL |= (1 << EN);
	delay();

	data1 = PINC;				//read data
     e18:	96 b1       	in	r25, 0x06	; 6
	
	LCD_CONTROL &= ~(1 << EN);
     e1a:	5a 98       	cbi	0x0b, 2	; 11
     e1c:	80 e0       	ldi	r24, 0x00	; 0
{
	char y;
	
	for(y = 0; y < 38; y++)
	{
		asm volatile ("nop");
     e1e:	00 00       	nop
//delay for display timing
void delay(void)
{
	char y;
	
	for(y = 0; y < 38; y++)
     e20:	8f 5f       	subi	r24, 0xFF	; 255
     e22:	86 32       	cpi	r24, 0x26	; 38
     e24:	e1 f7       	brne	.-8      	; 0xe1e <read_data_LCD+0x32>
	data1 = PINC;				//read data
	
	LCD_CONTROL &= ~(1 << EN);
	delay();

	LCD_CONTROL = LCD_IDLE;	
     e26:	80 e2       	ldi	r24, 0x20	; 32
     e28:	8b b9       	out	0x0b, r24	; 11
     e2a:	80 e0       	ldi	r24, 0x00	; 0
{
	char y;
	
	for(y = 0; y < 38; y++)
	{
		asm volatile ("nop");
     e2c:	00 00       	nop
//delay for display timing
void delay(void)
{
	char y;
	
	for(y = 0; y < 38; y++)
     e2e:	8f 5f       	subi	r24, 0xFF	; 255
     e30:	86 32       	cpi	r24, 0x26	; 38
     e32:	e1 f7       	brne	.-8      	; 0xe2c <read_data_LCD+0x40>

	LCD_CONTROL = LCD_IDLE;	
	delay();

	return data1;
}
     e34:	89 2f       	mov	r24, r25
     e36:	08 95       	ret
{
	char data1;
	//chip determines which chip to read from
		
	if  (chip==1) 				//select proper chip
		LCD_CONTROL = LCD_READ1;	
     e38:	88 eb       	ldi	r24, 0xB8	; 184
     e3a:	8b b9       	out	0x0b, r24	; 11
     e3c:	db cf       	rjmp	.-74     	; 0xdf4 <read_data_LCD+0x8>

00000e3e <read_block>:
}

//reads [length] display bytes from page [page] starting at horizontal value [x] and puts the values in buf
//automatically accounts for crossing chips 
void read_block(char x, char page, char length, char* buf)
{
     e3e:	cf 92       	push	r12
     e40:	df 92       	push	r13
     e42:	ff 92       	push	r15
     e44:	0f 93       	push	r16
     e46:	1f 93       	push	r17
     e48:	df 93       	push	r29
     e4a:	cf 93       	push	r28
     e4c:	0f 92       	push	r0
     e4e:	cd b7       	in	r28, 0x3d	; 61
     e50:	de b7       	in	r29, 0x3e	; 62
     e52:	08 2f       	mov	r16, r24
     e54:	86 2f       	mov	r24, r22
     e56:	14 2f       	mov	r17, r20
     e58:	69 01       	movw	r12, r18
	char side;
	char c,s, n1, n2, o;

	side=1;
	o=0;				//offset in data
	set_page(page);			//set proper page
     e5a:	88 6b       	ori	r24, 0xB8	; 184
     e5c:	60 e0       	ldi	r22, 0x00	; 0
     e5e:	0e 94 0b 06 	call	0xc16	; 0xc16 <write_command_LCD>
	if (x>63)			//account for x being larger than 63 
     e62:	00 34       	cpi	r16, 0x40	; 64
     e64:	08 f0       	brcs	.+2      	; 0xe68 <read_block+0x2a>
     e66:	58 c0       	rjmp	.+176    	; 0xf18 <read_block+0xda>
     e68:	81 e0       	ldi	r24, 0x01	; 1
     e6a:	89 83       	std	Y+1, r24	; 0x01
	{
		x-= 64;
		side=2;
	}

	s = (64-x);			//distance to edge
     e6c:	40 e4       	ldi	r20, 0x40	; 64
     e6e:	40 1b       	sub	r20, r16

	if (length>s)		
     e70:	41 17       	cp	r20, r17
     e72:	08 f4       	brcc	.+2      	; 0xe76 <read_block+0x38>
     e74:	42 c0       	rjmp	.+132    	; 0xefa <read_block+0xbc>
     e76:	ff 24       	eor	r15, r15
	{
		n1=length;
		n2=0;
	}

	set_x(x);			//set x	
     e78:	80 2f       	mov	r24, r16
     e7a:	80 64       	ori	r24, 0x40	; 64
     e7c:	60 e0       	ldi	r22, 0x00	; 0
     e7e:	0e 94 0b 06 	call	0xc16	; 0xc16 <write_command_LCD>
				
	if  (side==1) 			//select proper chip
     e82:	f9 81       	ldd	r31, Y+1	; 0x01
     e84:	f1 30       	cpi	r31, 0x01	; 1
     e86:	09 f4       	brne	.+2      	; 0xe8a <read_block+0x4c>
     e88:	44 c0       	rjmp	.+136    	; 0xf12 <read_block+0xd4>
		LCD_CONTROL = LCD_READ1;	
	else
		LCD_CONTROL = LCD_READ2;
     e8a:	88 e7       	ldi	r24, 0x78	; 120
     e8c:	8b b9       	out	0x0b, r24	; 11

	CLK_LCD;			//dummy clk
     e8e:	5a 9a       	sbi	0x0b, 2	; 11
     e90:	80 e0       	ldi	r24, 0x00	; 0
{
	char y;
	
	for(y = 0; y < 38; y++)
	{
		asm volatile ("nop");
     e92:	00 00       	nop
//delay for display timing
void delay(void)
{
	char y;
	
	for(y = 0; y < 38; y++)
     e94:	8f 5f       	subi	r24, 0xFF	; 255
     e96:	86 32       	cpi	r24, 0x26	; 38
     e98:	e1 f7       	brne	.-8      	; 0xe92 <read_block+0x54>
	if  (side==1) 			//select proper chip
		LCD_CONTROL = LCD_READ1;	
	else
		LCD_CONTROL = LCD_READ2;

	CLK_LCD;			//dummy clk
     e9a:	5a 98       	cbi	0x0b, 2	; 11
     e9c:	80 e0       	ldi	r24, 0x00	; 0
{
	char y;
	
	for(y = 0; y < 38; y++)
	{
		asm volatile ("nop");
     e9e:	00 00       	nop
//delay for display timing
void delay(void)
{
	char y;
	
	for(y = 0; y < 38; y++)
     ea0:	8f 5f       	subi	r24, 0xFF	; 255
     ea2:	86 32       	cpi	r24, 0x26	; 38
     ea4:	e1 f7       	brne	.-8      	; 0xe9e <read_block+0x60>
		LCD_CONTROL = LCD_READ2;

	CLK_LCD;			//dummy clk
	

	for(c=0;c < n1;c++)		//loop for all the bytes	
     ea6:	11 23       	and	r17, r17
     ea8:	b1 f0       	breq	.+44     	; 0xed6 <read_block+0x98>
     eaa:	4c 2d       	mov	r20, r12
     eac:	c6 01       	movw	r24, r12
     eae:	fc 01       	movw	r30, r24
		{
			LCD_CONTROL |= (1 << EN);
     eb0:	5a 9a       	sbi	0x0b, 2	; 11
     eb2:	80 e0       	ldi	r24, 0x00	; 0
{
	char y;
	
	for(y = 0; y < 38; y++)
	{
		asm volatile ("nop");
     eb4:	00 00       	nop
//delay for display timing
void delay(void)
{
	char y;
	
	for(y = 0; y < 38; y++)
     eb6:	8f 5f       	subi	r24, 0xFF	; 255
     eb8:	86 32       	cpi	r24, 0x26	; 38
     eba:	e1 f7       	brne	.-8      	; 0xeb4 <read_block+0x76>
	for(c=0;c < n1;c++)		//loop for all the bytes	
		{
			LCD_CONTROL |= (1 << EN);
			delay();

			buf[o++] = PINC; //read data
     ebc:	86 b1       	in	r24, 0x06	; 6
     ebe:	80 83       	st	Z, r24

			LCD_CONTROL &= ~(1 << EN);
     ec0:	5a 98       	cbi	0x0b, 2	; 11
     ec2:	80 e0       	ldi	r24, 0x00	; 0
{
	char y;
	
	for(y = 0; y < 38; y++)
	{
		asm volatile ("nop");
     ec4:	00 00       	nop
//delay for display timing
void delay(void)
{
	char y;
	
	for(y = 0; y < 38; y++)
     ec6:	8f 5f       	subi	r24, 0xFF	; 255
     ec8:	86 32       	cpi	r24, 0x26	; 38
     eca:	e1 f7       	brne	.-8      	; 0xec4 <read_block+0x86>
     ecc:	31 96       	adiw	r30, 0x01	; 1
		LCD_CONTROL = LCD_READ2;

	CLK_LCD;			//dummy clk
	

	for(c=0;c < n1;c++)		//loop for all the bytes	
     ece:	8e 2f       	mov	r24, r30
     ed0:	84 1b       	sub	r24, r20
     ed2:	81 17       	cp	r24, r17
     ed4:	68 f3       	brcs	.-38     	; 0xeb0 <read_block+0x72>
			LCD_CONTROL &= ~(1 << EN);
			delay();

		}

	LCD_CONTROL = LCD_IDLE;	
     ed6:	80 e2       	ldi	r24, 0x20	; 32
     ed8:	8b b9       	out	0x0b, r24	; 11
     eda:	80 e0       	ldi	r24, 0x00	; 0
{
	char y;
	
	for(y = 0; y < 38; y++)
	{
		asm volatile ("nop");
     edc:	00 00       	nop
//delay for display timing
void delay(void)
{
	char y;
	
	for(y = 0; y < 38; y++)
     ede:	8f 5f       	subi	r24, 0xFF	; 255
     ee0:	86 32       	cpi	r24, 0x26	; 38
     ee2:	e1 f7       	brne	.-8      	; 0xedc <read_block+0x9e>
		}

	LCD_CONTROL = LCD_IDLE;	
	delay();	

	if (n2>0)
     ee4:	ff 20       	and	r15, r15
     ee6:	e1 f4       	brne	.+56     	; 0xf20 <read_block+0xe2>
			}

		LCD_CONTROL = LCD_IDLE;	
		delay();	
	}//if n2>0
}
     ee8:	0f 90       	pop	r0
     eea:	cf 91       	pop	r28
     eec:	df 91       	pop	r29
     eee:	1f 91       	pop	r17
     ef0:	0f 91       	pop	r16
     ef2:	ff 90       	pop	r15
     ef4:	df 90       	pop	r13
     ef6:	cf 90       	pop	r12
     ef8:	08 95       	ret
	s = (64-x);			//distance to edge

	if (length>s)		
	{
		n1=s;			//how much to read in the first loop
		n2=length-s;		//how much to read in the second loop
     efa:	f1 2e       	mov	r15, r17
     efc:	f4 1a       	sub	r15, r20
     efe:	14 2f       	mov	r17, r20
	{
		n1=length;
		n2=0;
	}

	set_x(x);			//set x	
     f00:	80 2f       	mov	r24, r16
     f02:	80 64       	ori	r24, 0x40	; 64
     f04:	60 e0       	ldi	r22, 0x00	; 0
     f06:	0e 94 0b 06 	call	0xc16	; 0xc16 <write_command_LCD>
				
	if  (side==1) 			//select proper chip
     f0a:	f9 81       	ldd	r31, Y+1	; 0x01
     f0c:	f1 30       	cpi	r31, 0x01	; 1
     f0e:	09 f0       	breq	.+2      	; 0xf12 <read_block+0xd4>
     f10:	bc cf       	rjmp	.-136    	; 0xe8a <read_block+0x4c>
		LCD_CONTROL = LCD_READ1;	
     f12:	88 eb       	ldi	r24, 0xB8	; 184
     f14:	8b b9       	out	0x0b, r24	; 11
     f16:	bb cf       	rjmp	.-138    	; 0xe8e <read_block+0x50>
	side=1;
	o=0;				//offset in data
	set_page(page);			//set proper page
	if (x>63)			//account for x being larger than 63 
	{
		x-= 64;
     f18:	00 54       	subi	r16, 0x40	; 64
     f1a:	e2 e0       	ldi	r30, 0x02	; 2
     f1c:	e9 83       	std	Y+1, r30	; 0x01
     f1e:	a6 cf       	rjmp	.-180    	; 0xe6c <read_block+0x2e>
	LCD_CONTROL = LCD_IDLE;	
	delay();	

	if (n2>0)
	{	
		set_x(0);			// we got here because we overran the previous side. always start @ 0
     f20:	80 e4       	ldi	r24, 0x40	; 64
     f22:	60 e0       	ldi	r22, 0x00	; 0
     f24:	0e 94 0b 06 	call	0xc16	; 0xc16 <write_command_LCD>
		if  (side==1) 			//select proper chip, note this is opposite of normal because this read catches overrun from previous side
     f28:	89 81       	ldd	r24, Y+1	; 0x01
     f2a:	81 30       	cpi	r24, 0x01	; 1
     f2c:	69 f1       	breq	.+90     	; 0xf88 <read_block+0x14a>
			LCD_CONTROL = LCD_READ2;	
		else
			LCD_CONTROL = LCD_READ1;
     f2e:	88 eb       	ldi	r24, 0xB8	; 184
     f30:	8b b9       	out	0x0b, r24	; 11
		
		CLK_LCD;			//dummy clk
     f32:	5a 9a       	sbi	0x0b, 2	; 11
     f34:	80 e0       	ldi	r24, 0x00	; 0
{
	char y;
	
	for(y = 0; y < 38; y++)
	{
		asm volatile ("nop");
     f36:	00 00       	nop
//delay for display timing
void delay(void)
{
	char y;
	
	for(y = 0; y < 38; y++)
     f38:	8f 5f       	subi	r24, 0xFF	; 255
     f3a:	86 32       	cpi	r24, 0x26	; 38
     f3c:	e1 f7       	brne	.-8      	; 0xf36 <read_block+0xf8>
		if  (side==1) 			//select proper chip, note this is opposite of normal because this read catches overrun from previous side
			LCD_CONTROL = LCD_READ2;	
		else
			LCD_CONTROL = LCD_READ1;
		
		CLK_LCD;			//dummy clk
     f3e:	5a 98       	cbi	0x0b, 2	; 11
     f40:	80 e0       	ldi	r24, 0x00	; 0
{
	char y;
	
	for(y = 0; y < 38; y++)
	{
		asm volatile ("nop");
     f42:	00 00       	nop
//delay for display timing
void delay(void)
{
	char y;
	
	for(y = 0; y < 38; y++)
     f44:	8f 5f       	subi	r24, 0xFF	; 255
     f46:	86 32       	cpi	r24, 0x26	; 38
     f48:	e1 f7       	brne	.-8      	; 0xf42 <read_block+0x104>
     f4a:	90 e0       	ldi	r25, 0x00	; 0
     f4c:	29 2f       	mov	r18, r25
     f4e:	21 0f       	add	r18, r17
		CLK_LCD;			//dummy clk
		

		for(c=0;c < n2;c++)		//loop for all the bytes	
			{
				LCD_CONTROL |= (1 << EN);
     f50:	5a 9a       	sbi	0x0b, 2	; 11
     f52:	80 e0       	ldi	r24, 0x00	; 0
{
	char y;
	
	for(y = 0; y < 38; y++)
	{
		asm volatile ("nop");
     f54:	00 00       	nop
//delay for display timing
void delay(void)
{
	char y;
	
	for(y = 0; y < 38; y++)
     f56:	8f 5f       	subi	r24, 0xFF	; 255
     f58:	86 32       	cpi	r24, 0x26	; 38
     f5a:	e1 f7       	brne	.-8      	; 0xf54 <read_block+0x116>
		for(c=0;c < n2;c++)		//loop for all the bytes	
			{
				LCD_CONTROL |= (1 << EN);
				delay();

				buf[o++] = PINC;	//read data
     f5c:	86 b1       	in	r24, 0x06	; 6
     f5e:	f6 01       	movw	r30, r12
     f60:	e2 0f       	add	r30, r18
     f62:	f1 1d       	adc	r31, r1
     f64:	80 83       	st	Z, r24

				LCD_CONTROL &= ~(1 << EN);
     f66:	5a 98       	cbi	0x0b, 2	; 11
     f68:	80 e0       	ldi	r24, 0x00	; 0
{
	char y;
	
	for(y = 0; y < 38; y++)
	{
		asm volatile ("nop");
     f6a:	00 00       	nop
//delay for display timing
void delay(void)
{
	char y;
	
	for(y = 0; y < 38; y++)
     f6c:	8f 5f       	subi	r24, 0xFF	; 255
     f6e:	86 32       	cpi	r24, 0x26	; 38
     f70:	e1 f7       	brne	.-8      	; 0xf6a <read_block+0x12c>
			LCD_CONTROL = LCD_READ1;
		
		CLK_LCD;			//dummy clk
		

		for(c=0;c < n2;c++)		//loop for all the bytes	
     f72:	9f 5f       	subi	r25, 0xFF	; 255
     f74:	9f 15       	cp	r25, r15
     f76:	50 f3       	brcs	.-44     	; 0xf4c <read_block+0x10e>
				LCD_CONTROL &= ~(1 << EN);
				delay();

			}

		LCD_CONTROL = LCD_IDLE;	
     f78:	80 e2       	ldi	r24, 0x20	; 32
     f7a:	8b b9       	out	0x0b, r24	; 11
     f7c:	80 e0       	ldi	r24, 0x00	; 0
{
	char y;
	
	for(y = 0; y < 38; y++)
	{
		asm volatile ("nop");
     f7e:	00 00       	nop
//delay for display timing
void delay(void)
{
	char y;
	
	for(y = 0; y < 38; y++)
     f80:	8f 5f       	subi	r24, 0xFF	; 255
     f82:	86 32       	cpi	r24, 0x26	; 38
     f84:	e1 f7       	brne	.-8      	; 0xf7e <read_block+0x140>
     f86:	b0 cf       	rjmp	.-160    	; 0xee8 <read_block+0xaa>

	if (n2>0)
	{	
		set_x(0);			// we got here because we overran the previous side. always start @ 0
		if  (side==1) 			//select proper chip, note this is opposite of normal because this read catches overrun from previous side
			LCD_CONTROL = LCD_READ2;	
     f88:	88 e7       	ldi	r24, 0x78	; 120
     f8a:	8b b9       	out	0x0b, r24	; 11
     f8c:	d2 cf       	rjmp	.-92     	; 0xf32 <read_block+0xf4>

00000f8e <clear_screen>:
		
	}	
}

void clear_screen(char option)
{
     f8e:	ef 92       	push	r14
     f90:	ff 92       	push	r15
     f92:	0f 93       	push	r16
     f94:	1f 93       	push	r17
	char x, y;

	if (option==0)	//actual erase of screen
     f96:	88 23       	and	r24, r24
     f98:	d9 f5       	brne	.+118    	; 0x1010 <clear_screen+0x82>
     f9a:	10 e0       	ldi	r17, 0x00	; 0
			set_x(0x00);
			
			//y address increments after every write
			//write data
			//need to set data bus to outputs
			DDRC = 0xFF; 
     f9c:	0f ef       	ldi	r16, 0xFF	; 255
		
			if (reverse == 1) set_data(0xFF);	//since data never changes when clearing the screen, set it once and do a bunch of clocks
			else set_data(0);

			LCD_CONTROL = LCD_DATA12;		//write data to both chips
     f9e:	98 ee       	ldi	r25, 0xE8	; 232
     fa0:	f9 2e       	mov	r15, r25
			for (y = 0; y < 64; y++)		//clock for all 64 horizontal positions
			{
				delay();
				CLK_LCD;
			}
			LCD_CONTROL = LCD_IDLE;
     fa2:	80 e2       	ldi	r24, 0x20	; 32
     fa4:	e8 2e       	mov	r14, r24
	{		
		
		for (x = 0; x < 8; x++)
		{
			//set x address (page)
			set_page(x);
     fa6:	81 2f       	mov	r24, r17
     fa8:	88 6b       	ori	r24, 0xB8	; 184
     faa:	60 e0       	ldi	r22, 0x00	; 0
     fac:	0e 94 0b 06 	call	0xc16	; 0xc16 <write_command_LCD>
			
			//Set y address to zero
			set_x(0x00);
     fb0:	80 e4       	ldi	r24, 0x40	; 64
     fb2:	60 e0       	ldi	r22, 0x00	; 0
     fb4:	0e 94 0b 06 	call	0xc16	; 0xc16 <write_command_LCD>
			
			//y address increments after every write
			//write data
			//need to set data bus to outputs
			DDRC = 0xFF; 
     fb8:	07 b9       	out	0x07, r16	; 7
		
			if (reverse == 1) set_data(0xFF);	//since data never changes when clearing the screen, set it once and do a bunch of clocks
     fba:	80 91 d7 03 	lds	r24, 0x03D7
     fbe:	81 30       	cpi	r24, 0x01	; 1
     fc0:	29 f1       	breq	.+74     	; 0x100c <clear_screen+0x7e>
			else set_data(0);
     fc2:	18 b8       	out	0x08, r1	; 8

			LCD_CONTROL = LCD_DATA12;		//write data to both chips
     fc4:	fb b8       	out	0x0b, r15	; 11
     fc6:	90 e0       	ldi	r25, 0x00	; 0
			for (y = 0; y < 64; y++)		//clock for all 64 horizontal positions
     fc8:	80 e0       	ldi	r24, 0x00	; 0
{
	char y;
	
	for(y = 0; y < 38; y++)
	{
		asm volatile ("nop");
     fca:	00 00       	nop
//delay for display timing
void delay(void)
{
	char y;
	
	for(y = 0; y < 38; y++)
     fcc:	8f 5f       	subi	r24, 0xFF	; 255
     fce:	86 32       	cpi	r24, 0x26	; 38
     fd0:	e1 f7       	brne	.-8      	; 0xfca <clear_screen+0x3c>

			LCD_CONTROL = LCD_DATA12;		//write data to both chips
			for (y = 0; y < 64; y++)		//clock for all 64 horizontal positions
			{
				delay();
				CLK_LCD;
     fd2:	5a 9a       	sbi	0x0b, 2	; 11
     fd4:	80 e0       	ldi	r24, 0x00	; 0
{
	char y;
	
	for(y = 0; y < 38; y++)
	{
		asm volatile ("nop");
     fd6:	00 00       	nop
//delay for display timing
void delay(void)
{
	char y;
	
	for(y = 0; y < 38; y++)
     fd8:	8f 5f       	subi	r24, 0xFF	; 255
     fda:	86 32       	cpi	r24, 0x26	; 38
     fdc:	e1 f7       	brne	.-8      	; 0xfd6 <clear_screen+0x48>

			LCD_CONTROL = LCD_DATA12;		//write data to both chips
			for (y = 0; y < 64; y++)		//clock for all 64 horizontal positions
			{
				delay();
				CLK_LCD;
     fde:	5a 98       	cbi	0x0b, 2	; 11
     fe0:	80 e0       	ldi	r24, 0x00	; 0
{
	char y;
	
	for(y = 0; y < 38; y++)
	{
		asm volatile ("nop");
     fe2:	00 00       	nop
//delay for display timing
void delay(void)
{
	char y;
	
	for(y = 0; y < 38; y++)
     fe4:	8f 5f       	subi	r24, 0xFF	; 255
     fe6:	86 32       	cpi	r24, 0x26	; 38
     fe8:	e1 f7       	brne	.-8      	; 0xfe2 <clear_screen+0x54>
		
			if (reverse == 1) set_data(0xFF);	//since data never changes when clearing the screen, set it once and do a bunch of clocks
			else set_data(0);

			LCD_CONTROL = LCD_DATA12;		//write data to both chips
			for (y = 0; y < 64; y++)		//clock for all 64 horizontal positions
     fea:	9f 5f       	subi	r25, 0xFF	; 255
     fec:	90 34       	cpi	r25, 0x40	; 64
     fee:	61 f7       	brne	.-40     	; 0xfc8 <clear_screen+0x3a>
			{
				delay();
				CLK_LCD;
			}
			LCD_CONTROL = LCD_IDLE;
     ff0:	eb b8       	out	0x0b, r14	; 11

			//set the data bus back to inputs
			DDRC = 0;
     ff2:	17 b8       	out	0x07, r1	; 7

			x_offset = 0;
     ff4:	10 92 dd 03 	sts	0x03DD, r1

			y_offset = 0;
     ff8:	10 92 de 03 	sts	0x03DE, r1
	char x, y;

	if (option==0)	//actual erase of screen
	{		
		
		for (x = 0; x < 8; x++)
     ffc:	1f 5f       	subi	r17, 0xFF	; 255
     ffe:	18 30       	cpi	r17, 0x08	; 8
    1000:	91 f6       	brne	.-92     	; 0xfa6 <clear_screen+0x18>
			for (x=0;x<128;x++)
				buffer[x]=~buffer[x];	//invert the data
			write_block(0,y,128,buffer);	//write data back to screen
		}
	}//end if(option)
}
    1002:	1f 91       	pop	r17
    1004:	0f 91       	pop	r16
    1006:	ff 90       	pop	r15
    1008:	ef 90       	pop	r14
    100a:	08 95       	ret
			//y address increments after every write
			//write data
			//need to set data bus to outputs
			DDRC = 0xFF; 
		
			if (reverse == 1) set_data(0xFF);	//since data never changes when clearing the screen, set it once and do a bunch of clocks
    100c:	08 b9       	out	0x08, r16	; 8
    100e:	da cf       	rjmp	.-76     	; 0xfc4 <clear_screen+0x36>
	char x, y;

	if (option==0)	//actual erase of screen
	{		
		
		for (x = 0; x < 8; x++)
    1010:	10 e0       	ldi	r17, 0x00	; 0
	}//end normal clear
	else	//reverse mode switch, do a logical inversion of the screen
	{
		for(y=0;y<8;y++)	//loop for each page
		{
			read_block(0,y,128,buffer);	//read in display data
    1012:	80 e0       	ldi	r24, 0x00	; 0
    1014:	61 2f       	mov	r22, r17
    1016:	40 e8       	ldi	r20, 0x80	; 128
    1018:	2e e0       	ldi	r18, 0x0E	; 14
    101a:	34 e0       	ldi	r19, 0x04	; 4
    101c:	0e 94 1f 07 	call	0xe3e	; 0xe3e <read_block>
    1020:	90 e0       	ldi	r25, 0x00	; 0
			for (x=0;x<128;x++)
				buffer[x]=~buffer[x];	//invert the data
    1022:	e9 2f       	mov	r30, r25
    1024:	f0 e0       	ldi	r31, 0x00	; 0
    1026:	e2 5f       	subi	r30, 0xF2	; 242
    1028:	fb 4f       	sbci	r31, 0xFB	; 251
    102a:	80 81       	ld	r24, Z
    102c:	80 95       	com	r24
    102e:	80 83       	st	Z, r24
	else	//reverse mode switch, do a logical inversion of the screen
	{
		for(y=0;y<8;y++)	//loop for each page
		{
			read_block(0,y,128,buffer);	//read in display data
			for (x=0;x<128;x++)
    1030:	9f 5f       	subi	r25, 0xFF	; 255
    1032:	90 38       	cpi	r25, 0x80	; 128
    1034:	b1 f7       	brne	.-20     	; 0x1022 <clear_screen+0x94>
				buffer[x]=~buffer[x];	//invert the data
			write_block(0,y,128,buffer);	//write data back to screen
    1036:	80 e0       	ldi	r24, 0x00	; 0
    1038:	61 2f       	mov	r22, r17
    103a:	40 e8       	ldi	r20, 0x80	; 128
    103c:	2e e0       	ldi	r18, 0x0E	; 14
    103e:	34 e0       	ldi	r19, 0x04	; 4
    1040:	0e 94 5f 06 	call	0xcbe	; 0xcbe <write_block>
			y_offset = 0;
		}//end page loop normal clear
	}//end normal clear
	else	//reverse mode switch, do a logical inversion of the screen
	{
		for(y=0;y<8;y++)	//loop for each page
    1044:	1f 5f       	subi	r17, 0xFF	; 255
    1046:	18 30       	cpi	r17, 0x08	; 8
    1048:	21 f7       	brne	.-56     	; 0x1012 <clear_screen+0x84>
    104a:	db cf       	rjmp	.-74     	; 0x1002 <clear_screen+0x74>

0000104c <bitblt>:
//width is width in pixels
//height is height in pixels
//mode determines how the bits in the image combine with the bits already present on the display 
//mode 0=AND, 1=NAND, 2=OR, 3=NOR, 4=XOR, 5=NXOR, 6=fill(used for block erase, data[0] sets fill byte), 7=copy(overwrites background)
void bitblt(char x, char y, char width, char height, char mode, char* data)
{
    104c:	2f 92       	push	r2
    104e:	3f 92       	push	r3
    1050:	4f 92       	push	r4
    1052:	5f 92       	push	r5
    1054:	6f 92       	push	r6
    1056:	7f 92       	push	r7
    1058:	8f 92       	push	r8
    105a:	9f 92       	push	r9
    105c:	af 92       	push	r10
    105e:	bf 92       	push	r11
    1060:	cf 92       	push	r12
    1062:	df 92       	push	r13
    1064:	ef 92       	push	r14
    1066:	ff 92       	push	r15
    1068:	0f 93       	push	r16
    106a:	1f 93       	push	r17
    106c:	df 93       	push	r29
    106e:	cf 93       	push	r28
    1070:	cd b7       	in	r28, 0x3d	; 61
    1072:	de b7       	in	r29, 0x3e	; 62
    1074:	2e 97       	sbiw	r28, 0x0e	; 14
    1076:	0f b6       	in	r0, 0x3f	; 63
    1078:	f8 94       	cli
    107a:	de bf       	out	0x3e, r29	; 62
    107c:	0f be       	out	0x3f, r0	; 63
    107e:	cd bf       	out	0x3d, r28	; 61
    1080:	88 87       	std	Y+8, r24	; 0x08
    1082:	34 2e       	mov	r3, r20
    1084:	a2 2e       	mov	r10, r18
    1086:	b0 2e       	mov	r11, r16
    1088:	87 01       	movw	r16, r14
	unsigned char row, column, shift, shift2, mask1, mask2, n, n2, temp, RX_temp;
	int offset, offset2;

	//make sure legal dimensions
	if ((height<1) || (height >64))
    108a:	82 2f       	mov	r24, r18
    108c:	81 50       	subi	r24, 0x01	; 1
    108e:	80 34       	cpi	r24, 0x40	; 64
    1090:	38 f1       	brcs	.+78     	; 0x10e0 <bitblt+0x94>
	{
		for(row=0;row<height;row++)			//loop for all the data that's coming
    1092:	22 23       	and	r18, r18
    1094:	61 f0       	breq	.+24     	; 0x10ae <bitblt+0x62>
    1096:	10 e0       	ldi	r17, 0x00	; 0
			for(column=0;column<width;column++)
    1098:	33 20       	and	r3, r3
    109a:	31 f0       	breq	.+12     	; 0x10a8 <bitblt+0x5c>
	int offset, offset2;

	//make sure legal dimensions
	if ((height<1) || (height >64))
	{
		for(row=0;row<height;row++)			//loop for all the data that's coming
    109c:	00 e0       	ldi	r16, 0x00	; 0
			for(column=0;column<width;column++)
				RX_get_byte();			//read it, but do nothing
    109e:	0e 94 cb 05 	call	0xb96	; 0xb96 <RX_get_byte>

	//make sure legal dimensions
	if ((height<1) || (height >64))
	{
		for(row=0;row<height;row++)			//loop for all the data that's coming
			for(column=0;column<width;column++)
    10a2:	0f 5f       	subi	r16, 0xFF	; 255
    10a4:	03 15       	cp	r16, r3
    10a6:	d8 f3       	brcs	.-10     	; 0x109e <bitblt+0x52>
	int offset, offset2;

	//make sure legal dimensions
	if ((height<1) || (height >64))
	{
		for(row=0;row<height;row++)			//loop for all the data that's coming
    10a8:	1f 5f       	subi	r17, 0xFF	; 255
    10aa:	1a 15       	cp	r17, r10
    10ac:	a8 f3       	brcs	.-22     	; 0x1098 <bitblt+0x4c>
				if ((mode % 2 == 1) && (mode < 6))
					buffer[column] = ~buffer[column];	//if we wanted an inverted operation, do it
			}//end column loop
		write_block(x,(row+(y/8)),width,buffer);	//write new row to display
	}//row loop
}
    10ae:	2e 96       	adiw	r28, 0x0e	; 14
    10b0:	0f b6       	in	r0, 0x3f	; 63
    10b2:	f8 94       	cli
    10b4:	de bf       	out	0x3e, r29	; 62
    10b6:	0f be       	out	0x3f, r0	; 63
    10b8:	cd bf       	out	0x3d, r28	; 61
    10ba:	cf 91       	pop	r28
    10bc:	df 91       	pop	r29
    10be:	1f 91       	pop	r17
    10c0:	0f 91       	pop	r16
    10c2:	ff 90       	pop	r15
    10c4:	ef 90       	pop	r14
    10c6:	df 90       	pop	r13
    10c8:	cf 90       	pop	r12
    10ca:	bf 90       	pop	r11
    10cc:	af 90       	pop	r10
    10ce:	9f 90       	pop	r9
    10d0:	8f 90       	pop	r8
    10d2:	7f 90       	pop	r7
    10d4:	6f 90       	pop	r6
    10d6:	5f 90       	pop	r5
    10d8:	4f 90       	pop	r4
    10da:	3f 90       	pop	r3
    10dc:	2f 90       	pop	r2
    10de:	08 95       	ret
		for(row=0;row<height;row++)			//loop for all the data that's coming
			for(column=0;column<width;column++)
				RX_get_byte();			//read it, but do nothing
		return;
	}
	if ((width<1) || (width > 128))
    10e0:	84 2f       	mov	r24, r20
    10e2:	81 50       	subi	r24, 0x01	; 1
    10e4:	87 fd       	sbrc	r24, 7
    10e6:	66 c1       	rjmp	.+716    	; 0x13b4 <__stack+0x2b5>
		for(row=0;row<height;row++)			//loop for all the data that's coming
			for(column=0;column<width;column++)
				RX_get_byte();			//read it, but do nothing
		return;	
	}
	shift = y % 8;				//calculate how much to shift the data bytes to line them up with the pages
    10e8:	86 2f       	mov	r24, r22
    10ea:	87 70       	andi	r24, 0x07	; 7
	shift2 = 8 - shift;
    10ec:	58 e0       	ldi	r21, 0x08	; 8
    10ee:	25 2e       	mov	r2, r21
    10f0:	28 1a       	sub	r2, r24
	n = ((height-1+shift)/8)+1;		//number of pages(rows) the image occupies(need to loop through all of these, each gets pixels changed)
    10f2:	30 e0       	ldi	r19, 0x00	; 0
    10f4:	c8 2e       	mov	r12, r24
    10f6:	dd 24       	eor	r13, r13
    10f8:	08 94       	sec
    10fa:	c1 08       	sbc	r12, r1
    10fc:	d1 08       	sbc	r13, r1
    10fe:	c6 01       	movw	r24, r12
    1100:	82 0f       	add	r24, r18
    1102:	93 1f       	adc	r25, r19
    1104:	08 94       	sec
    1106:	c1 1c       	adc	r12, r1
    1108:	d1 1c       	adc	r13, r1
    110a:	97 fd       	sbrc	r25, 7
    110c:	63 c1       	rjmp	.+710    	; 0x13d4 <__stack+0x2d5>
    110e:	95 95       	asr	r25
    1110:	87 95       	ror	r24
    1112:	95 95       	asr	r25
    1114:	87 95       	ror	r24
    1116:	95 95       	asr	r25
    1118:	87 95       	ror	r24
    111a:	48 2f       	mov	r20, r24
    111c:	4f 5f       	subi	r20, 0xFF	; 255
    111e:	4c 83       	std	Y+4, r20	; 0x04
	n2 = height/8;				//number of rows in image
    1120:	a6 94       	lsr	r10
    1122:	a6 94       	lsr	r10
    1124:	a6 94       	lsr	r10
    1126:	ab 82       	std	Y+3, r10	; 0x03
	if (height % 8 != 0)
    1128:	c9 01       	movw	r24, r18
    112a:	87 70       	andi	r24, 0x07	; 7
    112c:	90 70       	andi	r25, 0x00	; 0
    112e:	89 2b       	or	r24, r25
    1130:	19 f0       	breq	.+6      	; 0x1138 <__stack+0x39>
		n2++;
    1132:	8a 2d       	mov	r24, r10
    1134:	8f 5f       	subi	r24, 0xFF	; 255
    1136:	8b 83       	std	Y+3, r24	; 0x03
	
	mask1 =	0xFF << shift;			//mask1 needs to have 0's for each pixel in the top row NOT occupied by new image data	
    1138:	4f ef       	ldi	r20, 0xFF	; 255
    113a:	50 e0       	ldi	r21, 0x00	; 0
    113c:	ca 01       	movw	r24, r20
    113e:	0c 2c       	mov	r0, r12
    1140:	02 c0       	rjmp	.+4      	; 0x1146 <__stack+0x47>
    1142:	88 0f       	add	r24, r24
    1144:	99 1f       	adc	r25, r25
    1146:	0a 94       	dec	r0
    1148:	e2 f7       	brpl	.-8      	; 0x1142 <__stack+0x43>
    114a:	8e 83       	std	Y+6, r24	; 0x06
	mask2 = 0xFF >> (8-( (height+y) % 8) );	//mask2 needs to have 0's for each pixel in the bottom row NOT occupied by new image data
    114c:	26 0f       	add	r18, r22
    114e:	31 1d       	adc	r19, r1
    1150:	27 70       	andi	r18, 0x07	; 7
    1152:	30 70       	andi	r19, 0x00	; 0
	
	if ( ((height+y) % 8) == 0)
    1154:	21 15       	cp	r18, r1
    1156:	31 05       	cpc	r19, r1
    1158:	09 f0       	breq	.+2      	; 0x115c <__stack+0x5d>
    115a:	21 c1       	rjmp	.+578    	; 0x139e <__stack+0x29f>
    115c:	9f ef       	ldi	r25, 0xFF	; 255
    115e:	9d 83       	std	Y+5, r25	; 0x05
		mask2=0xff;			//special case of exact fit in last row
		
		offset=0;			//start at the beginning of data
		offset2=-width;			//offset2 points a the previous row
    1160:	83 2d       	mov	r24, r3
    1162:	90 e0       	ldi	r25, 0x00	; 0
    1164:	ee 24       	eor	r14, r14
    1166:	ff 24       	eor	r15, r15
    1168:	e8 1a       	sub	r14, r24
    116a:	f9 0a       	sbc	r15, r25
    116c:	66 95       	lsr	r22
    116e:	66 95       	lsr	r22
    1170:	66 95       	lsr	r22
    1172:	69 83       	std	Y+1, r22	; 0x01
    1174:	1c 86       	std	Y+12, r1	; 0x0c
    1176:	1b 86       	std	Y+11, r1	; 0x0b
    1178:	66 24       	eor	r6, r6
    117a:	77 24       	eor	r7, r7
		//it is necessary to have 2 rows of data, current and previous to do bitblt
		//since 0<width<128 (display is only 128 wide), we can use the second 128 bytes in buffer to hold the previous row

		read_block(x,(row+(y/8)),width,buffer);				//read the row in(background image data)

			for(column=0;column<width;column++)			//loop for columns
    117c:	8b 2c       	mov	r8, r11
    117e:	99 24       	eor	r9, r9
    1180:	a1 e0       	ldi	r26, 0x01	; 1
    1182:	8a 22       	and	r8, r26
    1184:	99 24       	eor	r9, r9
				if (row == 0)		//some special treatment for first and last rows
				{
					//if this is the first row, we need to mask off the blank pixels at the top of the row(these pix have random data)
					temp &= mask1; //mask1 has shift blank pixels starting from LSB (LSB is the top of the stripe) 
				}
				else if (row == (n-1))
    1186:	bc 81       	ldd	r27, Y+4	; 0x04
    1188:	4b 2e       	mov	r4, r27
    118a:	55 24       	eor	r5, r5
    118c:	08 94       	sec
    118e:	41 08       	sbc	r4, r1
    1190:	51 08       	sbc	r5, r1
				 default:
					
					if (row == 0)
						buffer[column] &= ~mask1;	//first row, clear bottom bits of the background
					else if (row == (n-1))
						buffer[column] &= ~mask2;	//last row, clear top bits of background
    1192:	ed 81       	ldd	r30, Y+5	; 0x05
    1194:	e0 95       	com	r30
    1196:	e9 87       	std	Y+9, r30	; 0x09
				 case 6:	//for copy and fill, we don't want the background bits to interfere with the image, so we clear them
				 case 7:
				 default:
					
					if (row == 0)
						buffer[column] &= ~mask1;	//first row, clear bottom bits of the background
    1198:	fe 81       	ldd	r31, Y+6	; 0x06
    119a:	f0 95       	com	r31
    119c:	fa 87       	std	Y+10, r31	; 0x0a
//width is width in pixels
//height is height in pixels
//mode determines how the bits in the image combine with the bits already present on the display 
//mode 0=AND, 1=NAND, 2=OR, 3=NOR, 4=XOR, 5=NXOR, 6=fill(used for block erase, data[0] sets fill byte), 7=copy(overwrites background)
void bitblt(char x, char y, char width, char height, char mode, char* data)
{
    119e:	a6 2c       	mov	r10, r6
    11a0:	29 81       	ldd	r18, Y+1	; 0x01
    11a2:	26 0d       	add	r18, r6
    11a4:	2f 83       	std	Y+7, r18	; 0x07
	{
		//if NULL was passed for data, take it from the serial port. 
		//it is necessary to have 2 rows of data, current and previous to do bitblt
		//since 0<width<128 (display is only 128 wide), we can use the second 128 bytes in buffer to hold the previous row

		read_block(x,(row+(y/8)),width,buffer);				//read the row in(background image data)
    11a6:	88 85       	ldd	r24, Y+8	; 0x08
    11a8:	62 2f       	mov	r22, r18
    11aa:	43 2d       	mov	r20, r3
    11ac:	2e e0       	ldi	r18, 0x0E	; 14
    11ae:	34 e0       	ldi	r19, 0x04	; 4
    11b0:	0e 94 1f 07 	call	0xe3e	; 0xe3e <read_block>

			for(column=0;column<width;column++)			//loop for columns
    11b4:	33 20       	and	r3, r3
    11b6:	09 f4       	brne	.+2      	; 0x11ba <__stack+0xbb>
    11b8:	e3 c0       	rjmp	.+454    	; 0x1380 <__stack+0x281>
    11ba:	6e e8       	ldi	r22, 0x8E	; 142
    11bc:	74 e0       	ldi	r23, 0x04	; 4
    11be:	40 e0       	ldi	r20, 0x00	; 0
    11c0:	50 e0       	ldi	r21, 0x00	; 0
    11c2:	20 c0       	rjmp	.+64     	; 0x1204 <__stack+0x105>
					temp = ( (data[0] << shift) | (data[0] >> shift2) );				

				if (row == 0)		//some special treatment for first and last rows
				{
					//if this is the first row, we need to mask off the blank pixels at the top of the row(these pix have random data)
					temp &= mask1; //mask1 has shift blank pixels starting from LSB (LSB is the top of the stripe) 
    11c4:	be 81       	ldd	r27, Y+6	; 0x06
    11c6:	2b 23       	and	r18, r27
					//if this is the last row, we need to maks off the blank pixels at the bottom of the image
					temp &= mask2; //mask2 has blank pixels starting at MSB (MSB is the bottom of the stripe)
				}
								
				//combine image data with background
				switch(mode)	
    11c8:	f3 e0       	ldi	r31, 0x03	; 3
    11ca:	fb 15       	cp	r31, r11
    11cc:	08 f4       	brcc	.+2      	; 0x11d0 <__stack+0xd1>
    11ce:	4e c0       	rjmp	.+156    	; 0x126c <__stack+0x16d>
    11d0:	32 e0       	ldi	r19, 0x02	; 2
    11d2:	b3 16       	cp	r11, r19
    11d4:	08 f4       	brcc	.+2      	; 0x11d8 <__stack+0xd9>
    11d6:	6d c0       	rjmp	.+218    	; 0x12b2 <__stack+0x1b3>
				 case 1:
					buffer[column] &= temp;			//AND it with buffer
				 break;
				 case 2:
				 case 3:
					buffer[column] |= temp;			//OR it with buffer
    11d8:	fa 01       	movw	r30, r20
    11da:	e2 5f       	subi	r30, 0xF2	; 242
    11dc:	fb 4f       	sbci	r31, 0xFB	; 251
    11de:	80 81       	ld	r24, Z
    11e0:	28 2b       	or	r18, r24
    11e2:	20 83       	st	Z, r18
					
					buffer[column] |= temp;			//OR it with buffer
				 break;
				}
			
				if ((mode % 2 == 1) && (mode < 6))
    11e4:	81 14       	cp	r8, r1
    11e6:	91 04       	cpc	r9, r1
    11e8:	31 f0       	breq	.+12     	; 0x11f6 <__stack+0xf7>
    11ea:	b5 e0       	ldi	r27, 0x05	; 5
    11ec:	bb 15       	cp	r27, r11
    11ee:	18 f0       	brcs	.+6      	; 0x11f6 <__stack+0xf7>
					buffer[column] = ~buffer[column];	//if we wanted an inverted operation, do it
    11f0:	80 81       	ld	r24, Z
    11f2:	80 95       	com	r24
    11f4:	80 83       	st	Z, r24
    11f6:	4f 5f       	subi	r20, 0xFF	; 255
    11f8:	5f 4f       	sbci	r21, 0xFF	; 255
    11fa:	6f 5f       	subi	r22, 0xFF	; 255
    11fc:	7f 4f       	sbci	r23, 0xFF	; 255
		//it is necessary to have 2 rows of data, current and previous to do bitblt
		//since 0<width<128 (display is only 128 wide), we can use the second 128 bytes in buffer to hold the previous row

		read_block(x,(row+(y/8)),width,buffer);				//read the row in(background image data)

			for(column=0;column<width;column++)			//loop for columns
    11fe:	43 15       	cp	r20, r3
    1200:	08 f0       	brcs	.+2      	; 0x1204 <__stack+0x105>
    1202:	be c0       	rjmp	.+380    	; 0x1380 <__stack+0x281>
			{
				if (data!=NULL)					//decide if data comes from ram or serial			
    1204:	01 15       	cp	r16, r1
    1206:	11 05       	cpc	r17, r1
    1208:	09 f4       	brne	.+2      	; 0x120c <__stack+0x10d>
    120a:	61 c0       	rjmp	.+194    	; 0x12ce <__stack+0x1cf>
					temp = ( (data[offset++] << shift) | (data[offset2++] >> shift2) );	//data from ram
    120c:	f8 01       	movw	r30, r16
    120e:	ee 0d       	add	r30, r14
    1210:	ff 1d       	adc	r31, r15
    1212:	20 81       	ld	r18, Z
    1214:	30 e0       	ldi	r19, 0x00	; 0
    1216:	02 2c       	mov	r0, r2
    1218:	02 c0       	rjmp	.+4      	; 0x121e <__stack+0x11f>
    121a:	35 95       	asr	r19
    121c:	27 95       	ror	r18
    121e:	0a 94       	dec	r0
    1220:	e2 f7       	brpl	.-8      	; 0x121a <__stack+0x11b>
    1222:	eb 85       	ldd	r30, Y+11	; 0x0b
    1224:	fc 85       	ldd	r31, Y+12	; 0x0c
    1226:	e0 0f       	add	r30, r16
    1228:	f1 1f       	adc	r31, r17
    122a:	80 81       	ld	r24, Z
    122c:	90 e0       	ldi	r25, 0x00	; 0
    122e:	0c 2c       	mov	r0, r12
    1230:	02 c0       	rjmp	.+4      	; 0x1236 <__stack+0x137>
    1232:	88 0f       	add	r24, r24
    1234:	99 1f       	adc	r25, r25
    1236:	0a 94       	dec	r0
    1238:	e2 f7       	brpl	.-8      	; 0x1232 <__stack+0x133>
    123a:	28 2b       	or	r18, r24
    123c:	8b 85       	ldd	r24, Y+11	; 0x0b
    123e:	9c 85       	ldd	r25, Y+12	; 0x0c
    1240:	01 96       	adiw	r24, 0x01	; 1
    1242:	9c 87       	std	Y+12, r25	; 0x0c
    1244:	8b 87       	std	Y+11, r24	; 0x0b
    1246:	08 94       	sec
    1248:	e1 1c       	adc	r14, r1
    124a:	f1 1c       	adc	r15, r1
					}
					temp = ( (RX_temp << shift) | (buffer[128+column] >> shift2) );
					buffer[128+column] = RX_temp;					//store most recent byte for future use
				}
				
				if (mode==6)		//fill is a special case, just use data[0]
    124c:	f6 e0       	ldi	r31, 0x06	; 6
    124e:	bf 16       	cp	r11, r31
    1250:	f1 f0       	breq	.+60     	; 0x128e <__stack+0x18f>
					temp = ( (data[0] << shift) | (data[0] >> shift2) );				

				if (row == 0)		//some special treatment for first and last rows
    1252:	aa 20       	and	r10, r10
    1254:	09 f4       	brne	.+2      	; 0x1258 <__stack+0x159>
    1256:	b6 cf       	rjmp	.-148    	; 0x11c4 <__stack+0xc5>
				{
					//if this is the first row, we need to mask off the blank pixels at the top of the row(these pix have random data)
					temp &= mask1; //mask1 has shift blank pixels starting from LSB (LSB is the top of the stripe) 
				}
				else if (row == (n-1))
    1258:	64 14       	cp	r6, r4
    125a:	75 04       	cpc	r7, r5
    125c:	09 f0       	breq	.+2      	; 0x1260 <__stack+0x161>
    125e:	b4 cf       	rjmp	.-152    	; 0x11c8 <__stack+0xc9>
				{
					//if this is the last row, we need to maks off the blank pixels at the bottom of the image
					temp &= mask2; //mask2 has blank pixels starting at MSB (MSB is the bottom of the stripe)
    1260:	ed 81       	ldd	r30, Y+5	; 0x05
    1262:	2e 23       	and	r18, r30
				}
								
				//combine image data with background
				switch(mode)	
    1264:	f3 e0       	ldi	r31, 0x03	; 3
    1266:	fb 15       	cp	r31, r11
    1268:	08 f0       	brcs	.+2      	; 0x126c <__stack+0x16d>
    126a:	b2 cf       	rjmp	.-156    	; 0x11d0 <__stack+0xd1>
    126c:	85 e0       	ldi	r24, 0x05	; 5
    126e:	8b 15       	cp	r24, r11
    1270:	38 f5       	brcc	.+78     	; 0x12c0 <__stack+0x1c1>
				 break;
				 case 6:	//for copy and fill, we don't want the background bits to interfere with the image, so we clear them
				 case 7:
				 default:
					
					if (row == 0)
    1272:	aa 20       	and	r10, r10
    1274:	09 f0       	breq	.+2      	; 0x1278 <__stack+0x179>
    1276:	74 c0       	rjmp	.+232    	; 0x1360 <__stack+0x261>
						buffer[column] &= ~mask1;	//first row, clear bottom bits of the background
    1278:	fa 01       	movw	r30, r20
    127a:	e2 5f       	subi	r30, 0xF2	; 242
    127c:	fb 4f       	sbci	r31, 0xFB	; 251
    127e:	80 81       	ld	r24, Z
    1280:	9a 85       	ldd	r25, Y+10	; 0x0a
    1282:	89 23       	and	r24, r25
    1284:	80 83       	st	Z, r24
					else if (row == (n-1))
						buffer[column] &= ~mask2;	//last row, clear top bits of background
					else
						buffer[column] = 0;		//middle row, clear all of the background
					
					buffer[column] |= temp;			//OR it with buffer
    1286:	80 81       	ld	r24, Z
    1288:	28 2b       	or	r18, r24
    128a:	20 83       	st	Z, r18
    128c:	ab cf       	rjmp	.-170    	; 0x11e4 <__stack+0xe5>
					temp = ( (RX_temp << shift) | (buffer[128+column] >> shift2) );
					buffer[128+column] = RX_temp;					//store most recent byte for future use
				}
				
				if (mode==6)		//fill is a special case, just use data[0]
					temp = ( (data[0] << shift) | (data[0] >> shift2) );				
    128e:	d8 01       	movw	r26, r16
    1290:	8c 91       	ld	r24, X
    1292:	90 e0       	ldi	r25, 0x00	; 0
    1294:	9c 01       	movw	r18, r24
    1296:	02 2c       	mov	r0, r2
    1298:	02 c0       	rjmp	.+4      	; 0x129e <__stack+0x19f>
    129a:	35 95       	asr	r19
    129c:	27 95       	ror	r18
    129e:	0a 94       	dec	r0
    12a0:	e2 f7       	brpl	.-8      	; 0x129a <__stack+0x19b>
    12a2:	0c 2c       	mov	r0, r12
    12a4:	02 c0       	rjmp	.+4      	; 0x12aa <__stack+0x1ab>
    12a6:	88 0f       	add	r24, r24
    12a8:	99 1f       	adc	r25, r25
    12aa:	0a 94       	dec	r0
    12ac:	e2 f7       	brpl	.-8      	; 0x12a6 <__stack+0x1a7>
    12ae:	28 2b       	or	r18, r24
    12b0:	d0 cf       	rjmp	.-96     	; 0x1252 <__stack+0x153>
				//combine image data with background
				switch(mode)	
				{
				 case 0:
				 case 1:
					buffer[column] &= temp;			//AND it with buffer
    12b2:	fa 01       	movw	r30, r20
    12b4:	e2 5f       	subi	r30, 0xF2	; 242
    12b6:	fb 4f       	sbci	r31, 0xFB	; 251
    12b8:	80 81       	ld	r24, Z
    12ba:	28 23       	and	r18, r24
    12bc:	20 83       	st	Z, r18
    12be:	92 cf       	rjmp	.-220    	; 0x11e4 <__stack+0xe5>
				 case 3:
					buffer[column] |= temp;			//OR it with buffer
				 break;
				 case 4:
				 case 5:
					buffer[column] ^= temp;			//XOR it with buffer
    12c0:	fa 01       	movw	r30, r20
    12c2:	e2 5f       	subi	r30, 0xF2	; 242
    12c4:	fb 4f       	sbci	r31, 0xFB	; 251
    12c6:	80 81       	ld	r24, Z
    12c8:	28 27       	eor	r18, r24
    12ca:	20 83       	st	Z, r18
    12cc:	8b cf       	rjmp	.-234    	; 0x11e4 <__stack+0xe5>
			{
				if (data!=NULL)					//decide if data comes from ram or serial			
					temp = ( (data[offset++] << shift) | (data[offset2++] >> shift2) );	//data from ram
				else
				{	
					if (row<n2)					//only read the number of rows in the image
    12ce:	9b 81       	ldd	r25, Y+3	; 0x03
    12d0:	a9 16       	cp	r10, r25
    12d2:	a8 f0       	brcs	.+42     	; 0x12fe <__stack+0x1ff>
							{
								put_char(XON);	//resume reception
								RX_pause=0;	//flag it
							}	
					}
					temp = ( (RX_temp << shift) | (buffer[128+column] >> shift2) );
    12d4:	fa 81       	ldd	r31, Y+2	; 0x02
    12d6:	2f 2f       	mov	r18, r31
    12d8:	30 e0       	ldi	r19, 0x00	; 0
    12da:	0c 2c       	mov	r0, r12
    12dc:	02 c0       	rjmp	.+4      	; 0x12e2 <__stack+0x1e3>
    12de:	22 0f       	add	r18, r18
    12e0:	33 1f       	adc	r19, r19
    12e2:	0a 94       	dec	r0
    12e4:	e2 f7       	brpl	.-8      	; 0x12de <__stack+0x1df>
    12e6:	db 01       	movw	r26, r22
    12e8:	8c 91       	ld	r24, X
    12ea:	90 e0       	ldi	r25, 0x00	; 0
    12ec:	02 2c       	mov	r0, r2
    12ee:	02 c0       	rjmp	.+4      	; 0x12f4 <__stack+0x1f5>
    12f0:	95 95       	asr	r25
    12f2:	87 95       	ror	r24
    12f4:	0a 94       	dec	r0
    12f6:	e2 f7       	brpl	.-8      	; 0x12f0 <__stack+0x1f1>
    12f8:	28 2b       	or	r18, r24
					buffer[128+column] = RX_temp;					//store most recent byte for future use
    12fa:	fc 93       	st	X, r31
    12fc:	a7 cf       	rjmp	.-178    	; 0x124c <__stack+0x14d>
				else
				{	
					if (row<n2)					//only read the number of rows in the image
					{
						//we want bitblt to be fast, so inline RX_get_byte code to avoid the overhead of a function call
						while(RX_bytes==0);							//wait for data to be available
    12fe:	80 91 d5 03 	lds	r24, 0x03D5
    1302:	88 23       	and	r24, r24
    1304:	e1 f3       	breq	.-8      	; 0x12fe <__stack+0x1ff>
						RX_temp = RX_array[RX_read++];				//get char from buffer and increment read pointer
    1306:	80 91 d3 03 	lds	r24, 0x03D3
    130a:	90 91 d4 03 	lds	r25, 0x03D4
    130e:	dc 01       	movw	r26, r24
    1310:	a7 50       	subi	r26, 0x07	; 7
    1312:	bc 4f       	sbci	r27, 0xFC	; 252
    1314:	bc 91       	ld	r27, X
    1316:	ba 83       	std	Y+2, r27	; 0x02
    1318:	01 96       	adiw	r24, 0x01	; 1
    131a:	90 93 d4 03 	sts	0x03D4, r25
    131e:	80 93 d3 03 	sts	0x03D3, r24
						if(RX_read >= RX_BUFFER_SIZE) RX_read = 0;	//if the read pointer reaches the end of the buffer, wrap back to the beginning
    1322:	44 97       	sbiw	r24, 0x14	; 20
    1324:	20 f0       	brcs	.+8      	; 0x132e <__stack+0x22f>
    1326:	10 92 d4 03 	sts	0x03D4, r1
    132a:	10 92 d3 03 	sts	0x03D3, r1
						cli();										//interrupts must be disabled when changing RX_bytes, since it can be chabged here and in the ISR
    132e:	f8 94       	cli
						RX_bytes--;
    1330:	80 91 d5 03 	lds	r24, 0x03D5
    1334:	81 50       	subi	r24, 0x01	; 1
    1336:	80 93 d5 03 	sts	0x03D5, r24
						sei();
    133a:	78 94       	sei
						//check to see if we need to re-enable reception 

						if (RX_pause==1)		//if USART reception is suspended
    133c:	80 91 d6 03 	lds	r24, 0x03D6
    1340:	81 30       	cpi	r24, 0x01	; 1
    1342:	41 f6       	brne	.-112    	; 0x12d4 <__stack+0x1d5>
							if (RX_bytes < (unsigned char)(RX_BUFFER_SIZE *.25) )		//if RX_buffer is suitably empty
    1344:	80 91 d5 03 	lds	r24, 0x03D5
    1348:	85 30       	cpi	r24, 0x05	; 5
    134a:	20 f6       	brcc	.-120    	; 0x12d4 <__stack+0x1d5>
}

void put_char(char byte)
{
	/* Wait for empty transmit buffer */
	while ( !( UCSR0A & (1<<UDRE0)) );
    134c:	80 91 c0 00 	lds	r24, 0x00C0
    1350:	85 ff       	sbrs	r24, 5
    1352:	fc cf       	rjmp	.-8      	; 0x134c <__stack+0x24d>
	/* Put data into buffer, sends the data */
	UDR0 = byte;
    1354:	e1 e1       	ldi	r30, 0x11	; 17
    1356:	e0 93 c6 00 	sts	0x00C6, r30

						if (RX_pause==1)		//if USART reception is suspended
							if (RX_bytes < (unsigned char)(RX_BUFFER_SIZE *.25) )		//if RX_buffer is suitably empty
							{
								put_char(XON);	//resume reception
								RX_pause=0;	//flag it
    135a:	10 92 d6 03 	sts	0x03D6, r1
    135e:	ba cf       	rjmp	.-140    	; 0x12d4 <__stack+0x1d5>
				 case 7:
				 default:
					
					if (row == 0)
						buffer[column] &= ~mask1;	//first row, clear bottom bits of the background
					else if (row == (n-1))
    1360:	64 14       	cp	r6, r4
    1362:	75 04       	cpc	r7, r5
    1364:	29 f0       	breq	.+10     	; 0x1370 <__stack+0x271>
						buffer[column] &= ~mask2;	//last row, clear top bits of background
					else
						buffer[column] = 0;		//middle row, clear all of the background
    1366:	fa 01       	movw	r30, r20
    1368:	e2 5f       	subi	r30, 0xF2	; 242
    136a:	fb 4f       	sbci	r31, 0xFB	; 251
    136c:	10 82       	st	Z, r1
    136e:	8b cf       	rjmp	.-234    	; 0x1286 <__stack+0x187>
				 default:
					
					if (row == 0)
						buffer[column] &= ~mask1;	//first row, clear bottom bits of the background
					else if (row == (n-1))
						buffer[column] &= ~mask2;	//last row, clear top bits of background
    1370:	fa 01       	movw	r30, r20
    1372:	e2 5f       	subi	r30, 0xF2	; 242
    1374:	fb 4f       	sbci	r31, 0xFB	; 251
    1376:	80 81       	ld	r24, Z
    1378:	a9 85       	ldd	r26, Y+9	; 0x09
    137a:	8a 23       	and	r24, r26
    137c:	80 83       	st	Z, r24
    137e:	83 cf       	rjmp	.-250    	; 0x1286 <__stack+0x187>
				}
			
				if ((mode % 2 == 1) && (mode < 6))
					buffer[column] = ~buffer[column];	//if we wanted an inverted operation, do it
			}//end column loop
		write_block(x,(row+(y/8)),width,buffer);	//write new row to display
    1380:	88 85       	ldd	r24, Y+8	; 0x08
    1382:	6f 81       	ldd	r22, Y+7	; 0x07
    1384:	43 2d       	mov	r20, r3
    1386:	2e e0       	ldi	r18, 0x0E	; 14
    1388:	34 e0       	ldi	r19, 0x04	; 4
    138a:	0e 94 5f 06 	call	0xcbe	; 0xcbe <write_block>
    138e:	08 94       	sec
    1390:	61 1c       	adc	r6, r1
    1392:	71 1c       	adc	r7, r1
		mask2=0xff;			//special case of exact fit in last row
		
		offset=0;			//start at the beginning of data
		offset2=-width;			//offset2 points a the previous row

	for(row = 0;row < n;row++)		//loop through all rows
    1394:	ec 81       	ldd	r30, Y+4	; 0x04
    1396:	6e 16       	cp	r6, r30
    1398:	08 f4       	brcc	.+2      	; 0x139c <__stack+0x29d>
    139a:	01 cf       	rjmp	.-510    	; 0x119e <__stack+0x9f>
    139c:	88 ce       	rjmp	.-752    	; 0x10ae <bitblt+0x62>
	n2 = height/8;				//number of rows in image
	if (height % 8 != 0)
		n2++;
	
	mask1 =	0xFF << shift;			//mask1 needs to have 0's for each pixel in the top row NOT occupied by new image data	
	mask2 = 0xFF >> (8-( (height+y) % 8) );	//mask2 needs to have 0's for each pixel in the bottom row NOT occupied by new image data
    139e:	88 e0       	ldi	r24, 0x08	; 8
    13a0:	90 e0       	ldi	r25, 0x00	; 0
    13a2:	82 1b       	sub	r24, r18
    13a4:	93 0b       	sbc	r25, r19
    13a6:	02 c0       	rjmp	.+4      	; 0x13ac <__stack+0x2ad>
    13a8:	55 95       	asr	r21
    13aa:	47 95       	ror	r20
    13ac:	8a 95       	dec	r24
    13ae:	e2 f7       	brpl	.-8      	; 0x13a8 <__stack+0x2a9>
    13b0:	4d 83       	std	Y+5, r20	; 0x05
    13b2:	d6 ce       	rjmp	.-596    	; 0x1160 <__stack+0x61>
				RX_get_byte();			//read it, but do nothing
		return;
	}
	if ((width<1) || (width > 128))
	{
		for(row=0;row<height;row++)			//loop for all the data that's coming
    13b4:	22 23       	and	r18, r18
    13b6:	09 f4       	brne	.+2      	; 0x13ba <__stack+0x2bb>
    13b8:	7a ce       	rjmp	.-780    	; 0x10ae <bitblt+0x62>
    13ba:	00 e0       	ldi	r16, 0x00	; 0
			for(column=0;column<width;column++)
    13bc:	33 20       	and	r3, r3
    13be:	31 f0       	breq	.+12     	; 0x13cc <__stack+0x2cd>
				RX_get_byte();			//read it, but do nothing
		return;
	}
	if ((width<1) || (width > 128))
	{
		for(row=0;row<height;row++)			//loop for all the data that's coming
    13c0:	10 e0       	ldi	r17, 0x00	; 0
			for(column=0;column<width;column++)
				RX_get_byte();			//read it, but do nothing
    13c2:	0e 94 cb 05 	call	0xb96	; 0xb96 <RX_get_byte>
		return;
	}
	if ((width<1) || (width > 128))
	{
		for(row=0;row<height;row++)			//loop for all the data that's coming
			for(column=0;column<width;column++)
    13c6:	1f 5f       	subi	r17, 0xFF	; 255
    13c8:	13 15       	cp	r17, r3
    13ca:	d8 f3       	brcs	.-10     	; 0x13c2 <__stack+0x2c3>
				RX_get_byte();			//read it, but do nothing
		return;
	}
	if ((width<1) || (width > 128))
	{
		for(row=0;row<height;row++)			//loop for all the data that's coming
    13cc:	0f 5f       	subi	r16, 0xFF	; 255
    13ce:	0a 15       	cp	r16, r10
    13d0:	a8 f3       	brcs	.-22     	; 0x13bc <__stack+0x2bd>
    13d2:	6d ce       	rjmp	.-806    	; 0x10ae <bitblt+0x62>
				RX_get_byte();			//read it, but do nothing
		return;	
	}
	shift = y % 8;				//calculate how much to shift the data bytes to line them up with the pages
	shift2 = 8 - shift;
	n = ((height-1+shift)/8)+1;		//number of pages(rows) the image occupies(need to loop through all of these, each gets pixels changed)
    13d4:	07 96       	adiw	r24, 0x07	; 7
    13d6:	9b ce       	rjmp	.-714    	; 0x110e <__stack+0xf>

000013d8 <print_char>:


//prints a character to the screen
//at x_offset, y_offset(top/left corner of character). Automatically augments offsets for next write
void print_char(char txt)
{
    13d8:	ef 92       	push	r14
    13da:	ff 92       	push	r15
    13dc:	0f 93       	push	r16
    // x_offset counts pixels from the left side of the screen
    // y_offset counts pixels from the top of the screen

    short text_array_offset, j;
    char k;
	text_array_offset = (txt - 32) * font_bytes+3;	// txt-32 is the ascii offset to 'space', font_bytes is the # of bytes/character, and 3 for font width,height,space which are stores at the beginning of the array
    13de:	90 91 ef 03 	lds	r25, 0x03EF
    13e2:	49 2f       	mov	r20, r25
    13e4:	50 e0       	ldi	r21, 0x00	; 0
    13e6:	90 e0       	ldi	r25, 0x00	; 0
    13e8:	80 97       	sbiw	r24, 0x20	; 32
    13ea:	84 9f       	mul	r24, r20
    13ec:	90 01       	movw	r18, r0
    13ee:	85 9f       	mul	r24, r21
    13f0:	30 0d       	add	r19, r0
    13f2:	94 9f       	mul	r25, r20
    13f4:	30 0d       	add	r19, r0
    13f6:	11 24       	eor	r1, r1
    13f8:	2d 5f       	subi	r18, 0xFD	; 253
    13fa:	3f 4f       	sbci	r19, 0xFF	; 255

	//get data for character
	k=128;			//put in upper half of buffer, lower half is used by bitblt
	if (aux_font==0)	//using default font?
    13fc:	80 91 df 03 	lds	r24, 0x03DF
    1400:	88 23       	and	r24, r24
    1402:	09 f0       	breq	.+2      	; 0x1406 <print_char+0x2e>
    1404:	64 c0       	rjmp	.+200    	; 0x14ce <print_char+0xf6>
	{
		if (reverse == 1)
    1406:	80 91 d7 03 	lds	r24, 0x03D7
    140a:	81 30       	cpi	r24, 0x01	; 1
    140c:	09 f4       	brne	.+2      	; 0x1410 <print_char+0x38>
    140e:	a3 c0       	rjmp	.+326    	; 0x1556 <print_char+0x17e>
			for (j=text_array_offset; j < text_array_offset + font_bytes; j++) //loop for one character worth of bytes 
				buffer[k++] = ~pgm_read_byte(&text_array[j]);
		}
		else
		{
			for (j=text_array_offset; j < text_array_offset + font_bytes; j++) //loop for one character worth of bytes 
    1410:	c9 01       	movw	r24, r18
    1412:	84 0f       	add	r24, r20
    1414:	95 1f       	adc	r25, r21
    1416:	28 17       	cp	r18, r24
    1418:	39 07       	cpc	r19, r25
    141a:	9c f4       	brge	.+38     	; 0x1442 <print_char+0x6a>
	k=128;			//put in upper half of buffer, lower half is used by bitblt
	if (aux_font==0)	//using default font?
	{
		if (reverse == 1)
		{	
			for (j=text_array_offset; j < text_array_offset + font_bytes; j++) //loop for one character worth of bytes 
    141c:	28 54       	subi	r18, 0x48	; 72
    141e:	3f 4f       	sbci	r19, 0xFF	; 255
    1420:	40 e8       	ldi	r20, 0x80	; 128
    1422:	bc 01       	movw	r22, r24
    1424:	68 54       	subi	r22, 0x48	; 72
    1426:	7f 4f       	sbci	r23, 0xFF	; 255
				buffer[k++] = ~pgm_read_byte(&text_array[j]);
		}
		else
		{
			for (j=text_array_offset; j < text_array_offset + font_bytes; j++) //loop for one character worth of bytes 
				buffer[k++] = pgm_read_byte(&text_array[j]);
    1428:	f9 01       	movw	r30, r18
    142a:	84 91       	lpm	r24, Z+
    142c:	e4 2f       	mov	r30, r20
    142e:	f0 e0       	ldi	r31, 0x00	; 0
    1430:	e2 5f       	subi	r30, 0xF2	; 242
    1432:	fb 4f       	sbci	r31, 0xFB	; 251
    1434:	80 83       	st	Z, r24
    1436:	4f 5f       	subi	r20, 0xFF	; 255
    1438:	2f 5f       	subi	r18, 0xFF	; 255
    143a:	3f 4f       	sbci	r19, 0xFF	; 255
			for (j=text_array_offset; j < text_array_offset + font_bytes; j++) //loop for one character worth of bytes 
				buffer[k++] = ~pgm_read_byte(&text_array[j]);
		}
		else
		{
			for (j=text_array_offset; j < text_array_offset + font_bytes; j++) //loop for one character worth of bytes 
    143c:	26 17       	cp	r18, r22
    143e:	37 07       	cpc	r19, r23
    1440:	99 f7       	brne	.-26     	; 0x1428 <print_char+0x50>
				buffer[k++] = pgm_read_byte(&aux_text_array[j]);
		}
	}
	//bitblt it
	
	bitblt(x_offset, y_offset, font_w, font_h, font_mode, buffer+128);
    1442:	80 91 dd 03 	lds	r24, 0x03DD
    1446:	60 91 de 03 	lds	r22, 0x03DE
    144a:	40 91 0d 04 	lds	r20, 0x040D
    144e:	20 91 f0 03 	lds	r18, 0x03F0
    1452:	00 91 cf 03 	lds	r16, 0x03CF
    1456:	7e e8       	ldi	r23, 0x8E	; 142
    1458:	e7 2e       	mov	r14, r23
    145a:	74 e0       	ldi	r23, 0x04	; 4
    145c:	f7 2e       	mov	r15, r23
    145e:	0e 94 26 08 	call	0x104c	; 0x104c <bitblt>
	
	x_offset+=font_w+font_space;
    1462:	20 91 0d 04 	lds	r18, 0x040D
    1466:	30 91 0e 05 	lds	r19, 0x050E
    146a:	83 2f       	mov	r24, r19
    146c:	82 0f       	add	r24, r18
    146e:	90 91 dd 03 	lds	r25, 0x03DD
    1472:	89 0f       	add	r24, r25
    1474:	80 93 dd 03 	sts	0x03DD, r24
	
//check x offset and do necessary wrapping
	
    if ((x_offset + font_w + font_space) > 127)
    1478:	48 2f       	mov	r20, r24
    147a:	50 e0       	ldi	r21, 0x00	; 0
    147c:	62 2f       	mov	r22, r18
    147e:	70 e0       	ldi	r23, 0x00	; 0
    1480:	63 0f       	add	r22, r19
    1482:	71 1d       	adc	r23, r1
    1484:	ca 01       	movw	r24, r20
    1486:	86 0f       	add	r24, r22
    1488:	97 1f       	adc	r25, r23
    148a:	80 38       	cpi	r24, 0x80	; 128
    148c:	91 05       	cpc	r25, r1
    148e:	dc f0       	brlt	.+54     	; 0x14c6 <print_char+0xee>
	{
		x_offset = x_offset % (font_w+font_space);	//this makes sure text on the next line will line up with the previous line
    1490:	ca 01       	movw	r24, r20
    1492:	0e 94 1a 15 	call	0x2a34	; 0x2a34 <__divmodhi4>
    1496:	80 93 dd 03 	sts	0x03DD, r24
		if (y_offset > (64-font_h-font_h))
    149a:	70 91 de 03 	lds	r23, 0x03DE
    149e:	60 91 f0 03 	lds	r22, 0x03F0
    14a2:	86 2f       	mov	r24, r22
    14a4:	90 e0       	ldi	r25, 0x00	; 0
    14a6:	47 2f       	mov	r20, r23
    14a8:	50 e0       	ldi	r21, 0x00	; 0
    14aa:	22 27       	eor	r18, r18
    14ac:	33 27       	eor	r19, r19
    14ae:	28 1b       	sub	r18, r24
    14b0:	39 0b       	sbc	r19, r25
    14b2:	28 1b       	sub	r18, r24
    14b4:	39 0b       	sbc	r19, r25
    14b6:	20 5c       	subi	r18, 0xC0	; 192
    14b8:	3f 4f       	sbci	r19, 0xFF	; 255
    14ba:	24 17       	cp	r18, r20
    14bc:	35 07       	cpc	r19, r21
    14be:	34 f1       	brlt	.+76     	; 0x150c <print_char+0x134>
			y_offset = y_offset % font_h;	//this makes sure that the line restarted at the top will overlap the old one
		else 
			y_offset += font_h;
    14c0:	67 0f       	add	r22, r23
    14c2:	60 93 de 03 	sts	0x03DE, r22
	}
}
    14c6:	0f 91       	pop	r16
    14c8:	ff 90       	pop	r15
    14ca:	ef 90       	pop	r14
    14cc:	08 95       	ret
		}
	}
	else	//using aux font
	{

		if (reverse == 1)
    14ce:	80 91 d7 03 	lds	r24, 0x03D7
    14d2:	81 30       	cpi	r24, 0x01	; 1
    14d4:	21 f1       	breq	.+72     	; 0x151e <print_char+0x146>
			for (j=text_array_offset; j < text_array_offset + font_bytes; j++) //loop for one character worth of bytes 
				buffer[k++] = ~pgm_read_byte(&aux_text_array[j]);
		}
		else
		{
			for (j=text_array_offset; j < text_array_offset + font_bytes; j++) //loop for one character worth of bytes 
    14d6:	c9 01       	movw	r24, r18
    14d8:	84 0f       	add	r24, r20
    14da:	95 1f       	adc	r25, r21
    14dc:	28 17       	cp	r18, r24
    14de:	39 07       	cpc	r19, r25
    14e0:	0c f0       	brlt	.+2      	; 0x14e4 <print_char+0x10c>
    14e2:	af cf       	rjmp	.-162    	; 0x1442 <print_char+0x6a>
	else	//using aux font
	{

		if (reverse == 1)
		{	
			for (j=text_array_offset; j < text_array_offset + font_bytes; j++) //loop for one character worth of bytes 
    14e4:	2a 56       	subi	r18, 0x6A	; 106
    14e6:	3d 4f       	sbci	r19, 0xFD	; 253
    14e8:	40 e8       	ldi	r20, 0x80	; 128
    14ea:	bc 01       	movw	r22, r24
    14ec:	6a 56       	subi	r22, 0x6A	; 106
    14ee:	7d 4f       	sbci	r23, 0xFD	; 253
				buffer[k++] = ~pgm_read_byte(&aux_text_array[j]);
		}
		else
		{
			for (j=text_array_offset; j < text_array_offset + font_bytes; j++) //loop for one character worth of bytes 
				buffer[k++] = pgm_read_byte(&aux_text_array[j]);
    14f0:	f9 01       	movw	r30, r18
    14f2:	84 91       	lpm	r24, Z+
    14f4:	e4 2f       	mov	r30, r20
    14f6:	f0 e0       	ldi	r31, 0x00	; 0
    14f8:	e2 5f       	subi	r30, 0xF2	; 242
    14fa:	fb 4f       	sbci	r31, 0xFB	; 251
    14fc:	80 83       	st	Z, r24
    14fe:	4f 5f       	subi	r20, 0xFF	; 255
    1500:	2f 5f       	subi	r18, 0xFF	; 255
    1502:	3f 4f       	sbci	r19, 0xFF	; 255
			for (j=text_array_offset; j < text_array_offset + font_bytes; j++) //loop for one character worth of bytes 
				buffer[k++] = ~pgm_read_byte(&aux_text_array[j]);
		}
		else
		{
			for (j=text_array_offset; j < text_array_offset + font_bytes; j++) //loop for one character worth of bytes 
    1504:	26 17       	cp	r18, r22
    1506:	37 07       	cpc	r19, r23
    1508:	99 f7       	brne	.-26     	; 0x14f0 <print_char+0x118>
    150a:	9b cf       	rjmp	.-202    	; 0x1442 <print_char+0x6a>
	
    if ((x_offset + font_w + font_space) > 127)
	{
		x_offset = x_offset % (font_w+font_space);	//this makes sure text on the next line will line up with the previous line
		if (y_offset > (64-font_h-font_h))
			y_offset = y_offset % font_h;	//this makes sure that the line restarted at the top will overlap the old one
    150c:	87 2f       	mov	r24, r23
    150e:	0e 94 0e 15 	call	0x2a1c	; 0x2a1c <__udivmodqi4>
    1512:	90 93 de 03 	sts	0x03DE, r25
		else 
			y_offset += font_h;
	}
}
    1516:	0f 91       	pop	r16
    1518:	ff 90       	pop	r15
    151a:	ef 90       	pop	r14
    151c:	08 95       	ret
	else	//using aux font
	{

		if (reverse == 1)
		{	
			for (j=text_array_offset; j < text_array_offset + font_bytes; j++) //loop for one character worth of bytes 
    151e:	c9 01       	movw	r24, r18
    1520:	84 0f       	add	r24, r20
    1522:	95 1f       	adc	r25, r21
    1524:	28 17       	cp	r18, r24
    1526:	39 07       	cpc	r19, r25
    1528:	0c f0       	brlt	.+2      	; 0x152c <print_char+0x154>
    152a:	8b cf       	rjmp	.-234    	; 0x1442 <print_char+0x6a>
    152c:	2a 56       	subi	r18, 0x6A	; 106
    152e:	3d 4f       	sbci	r19, 0xFD	; 253
    1530:	40 e8       	ldi	r20, 0x80	; 128
    1532:	bc 01       	movw	r22, r24
    1534:	6a 56       	subi	r22, 0x6A	; 106
    1536:	7d 4f       	sbci	r23, 0xFD	; 253
				buffer[k++] = ~pgm_read_byte(&aux_text_array[j]);
    1538:	f9 01       	movw	r30, r18
    153a:	84 91       	lpm	r24, Z+
    153c:	e4 2f       	mov	r30, r20
    153e:	f0 e0       	ldi	r31, 0x00	; 0
    1540:	e2 5f       	subi	r30, 0xF2	; 242
    1542:	fb 4f       	sbci	r31, 0xFB	; 251
    1544:	80 95       	com	r24
    1546:	80 83       	st	Z, r24
    1548:	4f 5f       	subi	r20, 0xFF	; 255
    154a:	2f 5f       	subi	r18, 0xFF	; 255
    154c:	3f 4f       	sbci	r19, 0xFF	; 255
	else	//using aux font
	{

		if (reverse == 1)
		{	
			for (j=text_array_offset; j < text_array_offset + font_bytes; j++) //loop for one character worth of bytes 
    154e:	26 17       	cp	r18, r22
    1550:	37 07       	cpc	r19, r23
    1552:	91 f7       	brne	.-28     	; 0x1538 <print_char+0x160>
    1554:	76 cf       	rjmp	.-276    	; 0x1442 <print_char+0x6a>
	k=128;			//put in upper half of buffer, lower half is used by bitblt
	if (aux_font==0)	//using default font?
	{
		if (reverse == 1)
		{	
			for (j=text_array_offset; j < text_array_offset + font_bytes; j++) //loop for one character worth of bytes 
    1556:	c9 01       	movw	r24, r18
    1558:	84 0f       	add	r24, r20
    155a:	95 1f       	adc	r25, r21
    155c:	28 17       	cp	r18, r24
    155e:	39 07       	cpc	r19, r25
    1560:	0c f0       	brlt	.+2      	; 0x1564 <print_char+0x18c>
    1562:	6f cf       	rjmp	.-290    	; 0x1442 <print_char+0x6a>
    1564:	28 54       	subi	r18, 0x48	; 72
    1566:	3f 4f       	sbci	r19, 0xFF	; 255
    1568:	40 e8       	ldi	r20, 0x80	; 128
    156a:	bc 01       	movw	r22, r24
    156c:	68 54       	subi	r22, 0x48	; 72
    156e:	7f 4f       	sbci	r23, 0xFF	; 255
				buffer[k++] = ~pgm_read_byte(&text_array[j]);
    1570:	f9 01       	movw	r30, r18
    1572:	84 91       	lpm	r24, Z+
    1574:	e4 2f       	mov	r30, r20
    1576:	f0 e0       	ldi	r31, 0x00	; 0
    1578:	e2 5f       	subi	r30, 0xF2	; 242
    157a:	fb 4f       	sbci	r31, 0xFB	; 251
    157c:	80 95       	com	r24
    157e:	80 83       	st	Z, r24
    1580:	4f 5f       	subi	r20, 0xFF	; 255
    1582:	2f 5f       	subi	r18, 0xFF	; 255
    1584:	3f 4f       	sbci	r19, 0xFF	; 255
	k=128;			//put in upper half of buffer, lower half is used by bitblt
	if (aux_font==0)	//using default font?
	{
		if (reverse == 1)
		{	
			for (j=text_array_offset; j < text_array_offset + font_bytes; j++) //loop for one character worth of bytes 
    1586:	26 17       	cp	r18, r22
    1588:	37 07       	cpc	r19, r23
    158a:	91 f7       	brne	.-28     	; 0x1570 <print_char+0x198>
    158c:	5a cf       	rjmp	.-332    	; 0x1442 <print_char+0x6a>

0000158e <read_byte>:
        }
}


char read_byte(char byte, char side)
{
    158e:	1f 93       	push	r17
    1590:	16 2f       	mov	r17, r22
	set_x(byte);
    1592:	80 64       	ori	r24, 0x40	; 64
    1594:	60 e0       	ldi	r22, 0x00	; 0
    1596:	0e 94 0b 06 	call	0xc16	; 0xc16 <write_command_LCD>
	return read_data_LCD(side);
    159a:	81 2f       	mov	r24, r17
    159c:	0e 94 f6 06 	call	0xdec	; 0xdec <read_data_LCD>
}
    15a0:	1f 91       	pop	r17
    15a2:	08 95       	ret

000015a4 <pixel>:
	}//row loop
}

//mapping to Cartesian coordinates, (0,0) is in the lower left corner, (127,63) is in the upper right
void pixel(char S_R, char x, char y)
{
    15a4:	ef 92       	push	r14
    15a6:	ff 92       	push	r15
    15a8:	0f 93       	push	r16
    15aa:	1f 93       	push	r17
    15ac:	f8 2e       	mov	r15, r24
	static char temp_page, temp_side, temp_x = 0, temp_data1 = 0, temp_data2 = 0;
	
	//don't try to print something outside of our range
	if (x > 127) return;
    15ae:	67 fd       	sbrc	r22, 7
    15b0:	52 c0       	rjmp	.+164    	; 0x1656 <pixel+0xb2>
	if (y > 63) return;
    15b2:	40 34       	cpi	r20, 0x40	; 64
    15b4:	08 f0       	brcs	.+2      	; 0x15b8 <pixel+0x14>
    15b6:	4f c0       	rjmp	.+158    	; 0x1656 <pixel+0xb2>
	
	y=63-y;	
    15b8:	5f e3       	ldi	r21, 0x3F	; 63
    15ba:	54 1b       	sub	r21, r20

	if (reverse == 1) S_R ^= 1;
    15bc:	80 91 d7 03 	lds	r24, 0x03D7
    15c0:	81 30       	cpi	r24, 0x01	; 1
    15c2:	09 f4       	brne	.+2      	; 0x15c6 <pixel+0x22>
    15c4:	58 c0       	rjmp	.+176    	; 0x1676 <pixel+0xd2>
	
	if (x >= 64) temp_side = 2, temp_x = x - 64;
    15c6:	60 34       	cpi	r22, 0x40	; 64
    15c8:	08 f0       	brcs	.+2      	; 0x15cc <pixel+0x28>
    15ca:	4a c0       	rjmp	.+148    	; 0x1660 <pixel+0xbc>
	else temp_side = 1, temp_x = x;
    15cc:	81 e0       	ldi	r24, 0x01	; 1
    15ce:	80 93 eb 03 	sts	0x03EB, r24
    15d2:	60 93 ea 03 	sts	0x03EA, r22
		
	temp_page = 7 - (y >> 3);
    15d6:	95 2f       	mov	r25, r21
    15d8:	96 95       	lsr	r25
    15da:	96 95       	lsr	r25
    15dc:	96 95       	lsr	r25
    15de:	87 e0       	ldi	r24, 0x07	; 7
    15e0:	89 1b       	sub	r24, r25
    15e2:	80 93 ec 03 	sts	0x03EC, r24
		
	//data = (1 << (y - ((7 - temp_page) * 8)));

	temp_data1 = (1 << (7 - (y - ((7 - temp_page) * 8))));
    15e6:	27 e0       	ldi	r18, 0x07	; 7
    15e8:	30 e0       	ldi	r19, 0x00	; 0
    15ea:	b9 01       	movw	r22, r18
    15ec:	65 1b       	sub	r22, r21
    15ee:	71 09       	sbc	r23, r1
    15f0:	ab 01       	movw	r20, r22
    15f2:	28 1b       	sub	r18, r24
    15f4:	31 09       	sbc	r19, r1
    15f6:	22 0f       	add	r18, r18
    15f8:	33 1f       	adc	r19, r19
    15fa:	22 0f       	add	r18, r18
    15fc:	33 1f       	adc	r19, r19
    15fe:	22 0f       	add	r18, r18
    1600:	33 1f       	adc	r19, r19
    1602:	42 0f       	add	r20, r18
    1604:	53 1f       	adc	r21, r19
    1606:	21 e0       	ldi	r18, 0x01	; 1
    1608:	30 e0       	ldi	r19, 0x00	; 0
    160a:	02 c0       	rjmp	.+4      	; 0x1610 <pixel+0x6c>
    160c:	22 0f       	add	r18, r18
    160e:	33 1f       	adc	r19, r19
    1610:	4a 95       	dec	r20
    1612:	e2 f7       	brpl	.-8      	; 0x160c <pixel+0x68>
    1614:	12 2f       	mov	r17, r18
    1616:	20 93 e9 03 	sts	0x03E9, r18
		
	set_page(temp_page);
    161a:	88 6b       	ori	r24, 0xB8	; 184
    161c:	60 e0       	ldi	r22, 0x00	; 0
    161e:	0e 94 0b 06 	call	0xc16	; 0xc16 <write_command_LCD>
				
	//need to read the existing byte here, then or it with the new byte
	temp_data2 = read_byte(temp_x, temp_side);
    1622:	00 91 ea 03 	lds	r16, 0x03EA
    1626:	e0 90 eb 03 	lds	r14, 0x03EB
    162a:	80 2f       	mov	r24, r16
    162c:	6e 2d       	mov	r22, r14
    162e:	0e 94 c7 0a 	call	0x158e	; 0x158e <read_byte>
    1632:	80 93 e8 03 	sts	0x03E8, r24
		
	if (S_R == 0)
    1636:	ff 20       	and	r15, r15
    1638:	d1 f4       	brne	.+52     	; 0x166e <pixel+0xca>
	{
		temp_data1 = ~temp_data1;
    163a:	10 95       	com	r17
		temp_data1 &= temp_data2;
    163c:	18 23       	and	r17, r24
    163e:	10 93 e9 03 	sts	0x03E9, r17
	}
	else temp_data1 |= temp_data2;
		
	set_x(temp_x);//reset this...
    1642:	80 2f       	mov	r24, r16
    1644:	80 64       	ori	r24, 0x40	; 64
    1646:	60 e0       	ldi	r22, 0x00	; 0
    1648:	0e 94 0b 06 	call	0xc16	; 0xc16 <write_command_LCD>
	write_data_LCD(temp_data1, temp_side);
    164c:	80 91 e9 03 	lds	r24, 0x03E9
    1650:	6e 2d       	mov	r22, r14
    1652:	0e 94 35 06 	call	0xc6a	; 0xc6a <write_data_LCD>
}
    1656:	1f 91       	pop	r17
    1658:	0f 91       	pop	r16
    165a:	ff 90       	pop	r15
    165c:	ef 90       	pop	r14
    165e:	08 95       	ret
	
	y=63-y;	

	if (reverse == 1) S_R ^= 1;
	
	if (x >= 64) temp_side = 2, temp_x = x - 64;
    1660:	82 e0       	ldi	r24, 0x02	; 2
    1662:	80 93 eb 03 	sts	0x03EB, r24
    1666:	60 54       	subi	r22, 0x40	; 64
    1668:	60 93 ea 03 	sts	0x03EA, r22
    166c:	b4 cf       	rjmp	.-152    	; 0x15d6 <pixel+0x32>
	if (S_R == 0)
	{
		temp_data1 = ~temp_data1;
		temp_data1 &= temp_data2;
	}
	else temp_data1 |= temp_data2;
    166e:	18 2b       	or	r17, r24
    1670:	10 93 e9 03 	sts	0x03E9, r17
    1674:	e6 cf       	rjmp	.-52     	; 0x1642 <pixel+0x9e>
	if (x > 127) return;
	if (y > 63) return;
	
	y=63-y;	

	if (reverse == 1) S_R ^= 1;
    1676:	f8 26       	eor	r15, r24
    1678:	a6 cf       	rjmp	.-180    	; 0x15c6 <pixel+0x22>

0000167a <line>:
}


//draws (S_R = 1) or erases (S_R = 0) a line from x0, y0 to x1, y1 using Bresenham's line algorithm.
void line(char S_R, char x0, char y0, char x1, char y1)
{
    167a:	4f 92       	push	r4
    167c:	5f 92       	push	r5
    167e:	6f 92       	push	r6
    1680:	7f 92       	push	r7
    1682:	8f 92       	push	r8
    1684:	9f 92       	push	r9
    1686:	af 92       	push	r10
    1688:	bf 92       	push	r11
    168a:	cf 92       	push	r12
    168c:	df 92       	push	r13
    168e:	ef 92       	push	r14
    1690:	ff 92       	push	r15
    1692:	0f 93       	push	r16
    1694:	1f 93       	push	r17
    1696:	cf 93       	push	r28
    1698:	df 93       	push	r29
    169a:	48 2e       	mov	r4, r24
    169c:	a4 2f       	mov	r26, r20
    169e:	72 2f       	mov	r23, r18
	
	unsigned char steep;
	unsigned char swp;

    steep = (abs(y1 - y0) > abs(x1 - x0));
    16a0:	40 2f       	mov	r20, r16
    16a2:	50 e0       	ldi	r21, 0x00	; 0
    16a4:	ea 2f       	mov	r30, r26
    16a6:	f0 e0       	ldi	r31, 0x00	; 0
    16a8:	e2 2e       	mov	r14, r18
    16aa:	ff 24       	eor	r15, r15
    16ac:	a6 2e       	mov	r10, r22
    16ae:	bb 24       	eor	r11, r11
    16b0:	55 24       	eor	r5, r5
    16b2:	9a 01       	movw	r18, r20
    16b4:	2e 1b       	sub	r18, r30
    16b6:	3f 0b       	sbc	r19, r31
    16b8:	37 fd       	sbrc	r19, 7
    16ba:	80 c0       	rjmp	.+256    	; 0x17bc <line+0x142>
    16bc:	c7 01       	movw	r24, r14
    16be:	8a 19       	sub	r24, r10
    16c0:	9b 09       	sbc	r25, r11
    16c2:	97 fd       	sbrc	r25, 7
    16c4:	83 c0       	rjmp	.+262    	; 0x17cc <line+0x152>
    16c6:	82 17       	cp	r24, r18
    16c8:	93 07       	cpc	r25, r19
    16ca:	74 f4       	brge	.+28     	; 0x16e8 <line+0x6e>
    16cc:	55 24       	eor	r5, r5
    16ce:	53 94       	inc	r5
    if (steep) 
    16d0:	8a 2f       	mov	r24, r26
    16d2:	a6 2f       	mov	r26, r22
    16d4:	68 2f       	mov	r22, r24
    16d6:	80 2f       	mov	r24, r16
    16d8:	07 2f       	mov	r16, r23
    16da:	78 2f       	mov	r23, r24
    16dc:	cf 01       	movw	r24, r30
    16de:	f5 01       	movw	r30, r10
    16e0:	5c 01       	movw	r10, r24
    16e2:	ca 01       	movw	r24, r20
    16e4:	a7 01       	movw	r20, r14
    16e6:	7c 01       	movw	r14, r24
		swp=x1;
		x1=y1;
		y1=swp;
	}

    if (x0 > x1) 
    16e8:	76 17       	cp	r23, r22
    16ea:	08 f4       	brcc	.+2      	; 0x16ee <line+0x74>
    16ec:	54 c0       	rjmp	.+168    	; 0x1796 <line+0x11c>
    16ee:	c7 01       	movw	r24, r14
    16f0:	75 01       	movw	r14, r10
    16f2:	5c 01       	movw	r10, r24
    16f4:	ca 01       	movw	r24, r20
    16f6:	af 01       	movw	r20, r30
    16f8:	fc 01       	movw	r30, r24
		y0=y1;
		y1=swp;
	}

	int deltax = x1 - x0;
	int deltay = abs(y1 - y0);
    16fa:	6f 01       	movw	r12, r30
    16fc:	c4 1a       	sub	r12, r20
    16fe:	d5 0a       	sbc	r13, r21
    1700:	d7 fc       	sbrc	r13, 7
    1702:	51 c0       	rjmp	.+162    	; 0x17a6 <line+0x12c>
	int error = deltax / 2;
	int ystep;
	int y = y0;
	int x;

        if (y0 < y1) ystep = 1; else ystep = -1;
    1704:	a0 17       	cp	r26, r16
    1706:	08 f4       	brcc	.+2      	; 0x170a <line+0x90>
    1708:	55 c0       	rjmp	.+170    	; 0x17b4 <line+0x13a>
    170a:	66 24       	eor	r6, r6
    170c:	6a 94       	dec	r6
    170e:	76 2c       	mov	r7, r6
        for (x = x0; x <= x1; ++x)
    1710:	ae 14       	cp	r10, r14
    1712:	bf 04       	cpc	r11, r15
    1714:	7c f1       	brlt	.+94     	; 0x1774 <line+0xfa>
		swp=y0;
		y0=y1;
		y1=swp;
	}

	int deltax = x1 - x0;
    1716:	45 01       	movw	r8, r10
    1718:	8e 18       	sub	r8, r14
    171a:	9f 08       	sbc	r9, r15
	int deltay = abs(y1 - y0);
	int error = deltax / 2;
    171c:	c4 01       	movw	r24, r8
    171e:	97 fc       	sbrc	r9, 7
    1720:	59 c0       	rjmp	.+178    	; 0x17d4 <line+0x15a>
    1722:	ec 01       	movw	r28, r24
    1724:	d5 95       	asr	r29
    1726:	c7 95       	ror	r28
    1728:	8a 01       	movw	r16, r20
    172a:	0f c0       	rjmp	.+30     	; 0x174a <line+0xd0>
	int x;

        if (y0 < y1) ystep = 1; else ystep = -1;
        for (x = x0; x <= x1; ++x)
	{
            if (steep) pixel(S_R,y,x); else pixel(S_R,x,y);
    172c:	84 2d       	mov	r24, r4
    172e:	60 2f       	mov	r22, r16
    1730:	4e 2d       	mov	r20, r14
    1732:	0e 94 d2 0a 	call	0x15a4	; 0x15a4 <pixel>

            error = error - deltay;
    1736:	cc 19       	sub	r28, r12
    1738:	dd 09       	sbc	r29, r13
		if (error < 0) 
    173a:	d7 fd       	sbrc	r29, 7
    173c:	11 c0       	rjmp	.+34     	; 0x1760 <line+0xe6>
	int ystep;
	int y = y0;
	int x;

        if (y0 < y1) ystep = 1; else ystep = -1;
        for (x = x0; x <= x1; ++x)
    173e:	08 94       	sec
    1740:	e1 1c       	adc	r14, r1
    1742:	f1 1c       	adc	r15, r1
    1744:	ae 14       	cp	r10, r14
    1746:	bf 04       	cpc	r11, r15
    1748:	ac f0       	brlt	.+42     	; 0x1774 <line+0xfa>
	{
            if (steep) pixel(S_R,y,x); else pixel(S_R,x,y);
    174a:	55 20       	and	r5, r5
    174c:	79 f7       	brne	.-34     	; 0x172c <line+0xb2>
    174e:	84 2d       	mov	r24, r4
    1750:	6e 2d       	mov	r22, r14
    1752:	40 2f       	mov	r20, r16
    1754:	0e 94 d2 0a 	call	0x15a4	; 0x15a4 <pixel>

            error = error - deltay;
    1758:	cc 19       	sub	r28, r12
    175a:	dd 09       	sbc	r29, r13
		if (error < 0) 
    175c:	d7 ff       	sbrs	r29, 7
    175e:	ef cf       	rjmp	.-34     	; 0x173e <line+0xc4>
		{
			y = y + ystep;
    1760:	06 0d       	add	r16, r6
    1762:	17 1d       	adc	r17, r7
			error = error + deltax;
    1764:	c8 0d       	add	r28, r8
    1766:	d9 1d       	adc	r29, r9
	int ystep;
	int y = y0;
	int x;

        if (y0 < y1) ystep = 1; else ystep = -1;
        for (x = x0; x <= x1; ++x)
    1768:	08 94       	sec
    176a:	e1 1c       	adc	r14, r1
    176c:	f1 1c       	adc	r15, r1
    176e:	ae 14       	cp	r10, r14
    1770:	bf 04       	cpc	r11, r15
    1772:	5c f7       	brge	.-42     	; 0x174a <line+0xd0>
		{
			y = y + ystep;
			error = error + deltax;
		}
        }
}
    1774:	df 91       	pop	r29
    1776:	cf 91       	pop	r28
    1778:	1f 91       	pop	r17
    177a:	0f 91       	pop	r16
    177c:	ff 90       	pop	r15
    177e:	ef 90       	pop	r14
    1780:	df 90       	pop	r13
    1782:	cf 90       	pop	r12
    1784:	bf 90       	pop	r11
    1786:	af 90       	pop	r10
    1788:	9f 90       	pop	r9
    178a:	8f 90       	pop	r8
    178c:	7f 90       	pop	r7
    178e:	6f 90       	pop	r6
    1790:	5f 90       	pop	r5
    1792:	4f 90       	pop	r4
    1794:	08 95       	ret
		swp=x1;
		x1=y1;
		y1=swp;
	}

    if (x0 > x1) 
    1796:	80 2f       	mov	r24, r16
    1798:	0a 2f       	mov	r16, r26
    179a:	a8 2f       	mov	r26, r24
		y0=y1;
		y1=swp;
	}

	int deltax = x1 - x0;
	int deltay = abs(y1 - y0);
    179c:	6f 01       	movw	r12, r30
    179e:	c4 1a       	sub	r12, r20
    17a0:	d5 0a       	sbc	r13, r21
    17a2:	d7 fe       	sbrs	r13, 7
    17a4:	af cf       	rjmp	.-162    	; 0x1704 <line+0x8a>
    17a6:	d0 94       	com	r13
    17a8:	c1 94       	neg	r12
    17aa:	d1 08       	sbc	r13, r1
    17ac:	d3 94       	inc	r13
	int error = deltax / 2;
	int ystep;
	int y = y0;
	int x;

        if (y0 < y1) ystep = 1; else ystep = -1;
    17ae:	a0 17       	cp	r26, r16
    17b0:	08 f0       	brcs	.+2      	; 0x17b4 <line+0x13a>
    17b2:	ab cf       	rjmp	.-170    	; 0x170a <line+0x90>
    17b4:	a1 e0       	ldi	r26, 0x01	; 1
    17b6:	6a 2e       	mov	r6, r26
    17b8:	71 2c       	mov	r7, r1
    17ba:	aa cf       	rjmp	.-172    	; 0x1710 <line+0x96>
{
	
	unsigned char steep;
	unsigned char swp;

    steep = (abs(y1 - y0) > abs(x1 - x0));
    17bc:	30 95       	com	r19
    17be:	21 95       	neg	r18
    17c0:	3f 4f       	sbci	r19, 0xFF	; 255
    17c2:	c7 01       	movw	r24, r14
    17c4:	8a 19       	sub	r24, r10
    17c6:	9b 09       	sbc	r25, r11
    17c8:	97 ff       	sbrs	r25, 7
    17ca:	7d cf       	rjmp	.-262    	; 0x16c6 <line+0x4c>
    17cc:	90 95       	com	r25
    17ce:	81 95       	neg	r24
    17d0:	9f 4f       	sbci	r25, 0xFF	; 255
    17d2:	79 cf       	rjmp	.-270    	; 0x16c6 <line+0x4c>
		y1=swp;
	}

	int deltax = x1 - x0;
	int deltay = abs(y1 - y0);
	int error = deltax / 2;
    17d4:	01 96       	adiw	r24, 0x01	; 1
    17d6:	a5 cf       	rjmp	.-182    	; 0x1722 <line+0xa8>

000017d8 <circle>:
}


//draws (S_R = 1) or erases (S_R = 0) a circle at x, y with radius r, using midpoint circle algorithm
void circle(char S_R, int x0, int y0, int r)
{
    17d8:	2f 92       	push	r2
    17da:	3f 92       	push	r3
    17dc:	4f 92       	push	r4
    17de:	5f 92       	push	r5
    17e0:	6f 92       	push	r6
    17e2:	7f 92       	push	r7
    17e4:	8f 92       	push	r8
    17e6:	9f 92       	push	r9
    17e8:	af 92       	push	r10
    17ea:	bf 92       	push	r11
    17ec:	cf 92       	push	r12
    17ee:	df 92       	push	r13
    17f0:	ef 92       	push	r14
    17f2:	ff 92       	push	r15
    17f4:	0f 93       	push	r16
    17f6:	1f 93       	push	r17
    17f8:	cf 93       	push	r28
    17fa:	df 93       	push	r29
    17fc:	c8 2e       	mov	r12, r24
    17fe:	46 2e       	mov	r4, r22
    1800:	54 2e       	mov	r5, r20
    1802:	79 01       	movw	r14, r18
	int ddF_x = 1;
	int ddF_y = -2 * r;
	int x = 0;
	int y = r;
 
  pixel(S_R, x0, y0 + r);
    1804:	42 2f       	mov	r20, r18
    1806:	45 0d       	add	r20, r5
    1808:	0e 94 d2 0a 	call	0x15a4	; 0x15a4 <pixel>
  pixel(S_R, x0, y0 - r);
    180c:	45 2d       	mov	r20, r5
    180e:	4e 19       	sub	r20, r14
    1810:	8c 2d       	mov	r24, r12
    1812:	64 2d       	mov	r22, r4
    1814:	0e 94 d2 0a 	call	0x15a4	; 0x15a4 <pixel>
  pixel(S_R, x0 + r, y0);
    1818:	6e 2d       	mov	r22, r14
    181a:	64 0d       	add	r22, r4
    181c:	8c 2d       	mov	r24, r12
    181e:	45 2d       	mov	r20, r5
    1820:	0e 94 d2 0a 	call	0x15a4	; 0x15a4 <pixel>
  pixel(S_R, x0 - r, y0);
    1824:	64 2d       	mov	r22, r4
    1826:	6e 19       	sub	r22, r14
    1828:	8c 2d       	mov	r24, r12
    182a:	45 2d       	mov	r20, r5
    182c:	0e 94 d2 0a 	call	0x15a4	; 0x15a4 <pixel>
 
  while(x < y)
    1830:	1e 14       	cp	r1, r14
    1832:	1f 04       	cpc	r1, r15
    1834:	0c f0       	brlt	.+2      	; 0x1838 <circle+0x60>
    1836:	63 c0       	rjmp	.+198    	; 0x18fe <circle+0x126>

//draws (S_R = 1) or erases (S_R = 0) a circle at x, y with radius r, using midpoint circle algorithm
void circle(char S_R, int x0, int y0, int r)
{
	
	int f = 1 - r;
    1838:	c1 e0       	ldi	r28, 0x01	; 1
    183a:	d0 e0       	ldi	r29, 0x00	; 0
    183c:	ce 19       	sub	r28, r14
    183e:	df 09       	sbc	r29, r15
	int ddF_x = 1;
	int ddF_y = -2 * r;
    1840:	c7 01       	movw	r24, r14
    1842:	88 0f       	add	r24, r24
    1844:	99 1f       	adc	r25, r25
    1846:	22 24       	eor	r2, r2
    1848:	33 24       	eor	r3, r3
    184a:	28 1a       	sub	r2, r24
    184c:	39 0a       	sbc	r3, r25
    184e:	47 01       	movw	r8, r14
    1850:	b1 e0       	ldi	r27, 0x01	; 1
    1852:	6b 2e       	mov	r6, r27
    1854:	71 2c       	mov	r7, r1
    1856:	aa 24       	eor	r10, r10
    1858:	bb 24       	eor	r11, r11
    185a:	06 c0       	rjmp	.+12     	; 0x1868 <circle+0x90>
      y--;
      ddF_y += 2;
      f += ddF_y;
    }
    x++;
    ddF_x += 2;
    185c:	82 e0       	ldi	r24, 0x02	; 2
    185e:	90 e0       	ldi	r25, 0x00	; 0
    1860:	68 0e       	add	r6, r24
    1862:	79 1e       	adc	r7, r25
    f += ddF_x;    
    1864:	c6 0d       	add	r28, r6
    1866:	d7 1d       	adc	r29, r7
  pixel(S_R, x0 + r, y0);
  pixel(S_R, x0 - r, y0);
 
  while(x < y)
  {
    if(f >= 0) 
    1868:	d7 fd       	sbrc	r29, 7
    186a:	09 c0       	rjmp	.+18     	; 0x187e <circle+0xa6>
    {
      y--;
    186c:	08 94       	sec
    186e:	81 08       	sbc	r8, r1
    1870:	91 08       	sbc	r9, r1
      ddF_y += 2;
    1872:	82 e0       	ldi	r24, 0x02	; 2
    1874:	90 e0       	ldi	r25, 0x00	; 0
    1876:	28 0e       	add	r2, r24
    1878:	39 1e       	adc	r3, r25
      f += ddF_y;
    187a:	c2 0d       	add	r28, r2
    187c:	d3 1d       	adc	r29, r3
    }
    x++;
    187e:	08 94       	sec
    1880:	a1 1c       	adc	r10, r1
    1882:	b1 1c       	adc	r11, r1
}


//draws (S_R = 1) or erases (S_R = 0) a circle at x, y with radius r, using midpoint circle algorithm
void circle(char S_R, int x0, int y0, int r)
{
    1884:	da 2c       	mov	r13, r10
    1886:	d4 0c       	add	r13, r4
      f += ddF_y;
    }
    x++;
    ddF_x += 2;
    f += ddF_x;    
    pixel(S_R, x0 + x, y0 + y);
    1888:	18 2d       	mov	r17, r8
    188a:	15 0d       	add	r17, r5
    188c:	8c 2d       	mov	r24, r12
    188e:	6d 2d       	mov	r22, r13
    1890:	41 2f       	mov	r20, r17
    1892:	0e 94 d2 0a 	call	0x15a4	; 0x15a4 <pixel>
    1896:	e4 2c       	mov	r14, r4
    1898:	ea 18       	sub	r14, r10
    pixel(S_R, x0 - x, y0 + y);
    189a:	8c 2d       	mov	r24, r12
    189c:	6e 2d       	mov	r22, r14
    189e:	41 2f       	mov	r20, r17
    18a0:	0e 94 d2 0a 	call	0x15a4	; 0x15a4 <pixel>
    pixel(S_R, x0 + x, y0 - y);
    18a4:	15 2d       	mov	r17, r5
    18a6:	18 19       	sub	r17, r8
    18a8:	8c 2d       	mov	r24, r12
    18aa:	6d 2d       	mov	r22, r13
    18ac:	41 2f       	mov	r20, r17
    18ae:	0e 94 d2 0a 	call	0x15a4	; 0x15a4 <pixel>
    pixel(S_R, x0 - x, y0 - y);
    18b2:	8c 2d       	mov	r24, r12
    18b4:	6e 2d       	mov	r22, r14
    18b6:	41 2f       	mov	r20, r17
    18b8:	0e 94 d2 0a 	call	0x15a4	; 0x15a4 <pixel>
    pixel(S_R, x0 + y, y0 + x);
    18bc:	e8 2c       	mov	r14, r8
    18be:	e4 0c       	add	r14, r4
    18c0:	1a 2d       	mov	r17, r10
    18c2:	15 0d       	add	r17, r5
    18c4:	8c 2d       	mov	r24, r12
    18c6:	6e 2d       	mov	r22, r14
    18c8:	41 2f       	mov	r20, r17
    18ca:	0e 94 d2 0a 	call	0x15a4	; 0x15a4 <pixel>
    pixel(S_R, x0 - y, y0 + x);
    18ce:	94 2d       	mov	r25, r4
    18d0:	98 19       	sub	r25, r8
    18d2:	09 2f       	mov	r16, r25
    18d4:	8c 2d       	mov	r24, r12
    18d6:	69 2f       	mov	r22, r25
    18d8:	41 2f       	mov	r20, r17
    18da:	0e 94 d2 0a 	call	0x15a4	; 0x15a4 <pixel>
    18de:	15 2d       	mov	r17, r5
    18e0:	1a 19       	sub	r17, r10
    pixel(S_R, x0 + y, y0 - x);
    18e2:	8c 2d       	mov	r24, r12
    18e4:	6e 2d       	mov	r22, r14
    18e6:	41 2f       	mov	r20, r17
    18e8:	0e 94 d2 0a 	call	0x15a4	; 0x15a4 <pixel>
    pixel(S_R, x0 - y, y0 - x);
    18ec:	8c 2d       	mov	r24, r12
    18ee:	60 2f       	mov	r22, r16
    18f0:	41 2f       	mov	r20, r17
    18f2:	0e 94 d2 0a 	call	0x15a4	; 0x15a4 <pixel>
  pixel(S_R, x0, y0 + r);
  pixel(S_R, x0, y0 - r);
  pixel(S_R, x0 + r, y0);
  pixel(S_R, x0 - r, y0);
 
  while(x < y)
    18f6:	a8 14       	cp	r10, r8
    18f8:	b9 04       	cpc	r11, r9
    18fa:	0c f4       	brge	.+2      	; 0x18fe <circle+0x126>
    18fc:	af cf       	rjmp	.-162    	; 0x185c <circle+0x84>
    pixel(S_R, x0 + y, y0 + x);
    pixel(S_R, x0 - y, y0 + x);
    pixel(S_R, x0 + y, y0 - x);
    pixel(S_R, x0 - y, y0 - x);
  }
}
    18fe:	df 91       	pop	r29
    1900:	cf 91       	pop	r28
    1902:	1f 91       	pop	r17
    1904:	0f 91       	pop	r16
    1906:	ff 90       	pop	r15
    1908:	ef 90       	pop	r14
    190a:	df 90       	pop	r13
    190c:	cf 90       	pop	r12
    190e:	bf 90       	pop	r11
    1910:	af 90       	pop	r10
    1912:	9f 90       	pop	r9
    1914:	8f 90       	pop	r8
    1916:	7f 90       	pop	r7
    1918:	6f 90       	pop	r6
    191a:	5f 90       	pop	r5
    191c:	4f 90       	pop	r4
    191e:	3f 90       	pop	r3
    1920:	2f 90       	pop	r2
    1922:	08 95       	ret

00001924 <EEPROM_write>:


void EEPROM_write(unsigned int uiAddress, unsigned char ucData)
{
/* Wait for completion of previous write */
while(EECR & (1<<EEPE))
    1924:	f9 99       	sbic	0x1f, 1	; 31
    1926:	fe cf       	rjmp	.-4      	; 0x1924 <EEPROM_write>
;
/* Set up address and Data Registers */
EEAR = uiAddress;
    1928:	92 bd       	out	0x22, r25	; 34
    192a:	81 bd       	out	0x21, r24	; 33
EEDR = ucData;
    192c:	60 bd       	out	0x20, r22	; 32
/* Write logical one to EEMPE */
EECR |= (1<<EEMPE);
    192e:	fa 9a       	sbi	0x1f, 2	; 31
/* Start eeprom write by setting EEPE */
EECR |= (1<<EEPE);
    1930:	f9 9a       	sbi	0x1f, 1	; 31
}
    1932:	08 95       	ret

00001934 <EEPROM_read>:

unsigned char EEPROM_read(unsigned int uiAddress)
{
/* Wait for completion of previous write */
while(EECR & (1<<EEPE))
    1934:	f9 99       	sbic	0x1f, 1	; 31
    1936:	fe cf       	rjmp	.-4      	; 0x1934 <EEPROM_read>
;
/* Set up address register */
EEAR = uiAddress;
    1938:	92 bd       	out	0x22, r25	; 34
    193a:	81 bd       	out	0x21, r24	; 33
/* Start eeprom read by writing EERE */
EECR |= (1<<EERE);
    193c:	f8 9a       	sbi	0x1f, 0	; 31
/* Return data from Data Register */
return EEDR;
    193e:	80 b5       	in	r24, 0x20	; 32
}
    1940:	08 95       	ret

00001942 <set_backlight>:

void set_backlight(unsigned char dutycycle)
{
	//Set up Timer 0
	TCCR0A = 0x02;//CTC mode
    1942:	22 e0       	ldi	r18, 0x02	; 2
    1944:	24 bd       	out	0x24, r18	; 36
	//OCR0A = dutycycle;
	
	//SREG |= 0x80;
	
	
	if(BL_dutycycle >= 100)
    1946:	90 91 39 01 	lds	r25, 0x0139
    194a:	94 36       	cpi	r25, 0x64	; 100
    194c:	a0 f4       	brcc	.+40     	; 0x1976 <set_backlight+0x34>
		TIMSK0 = 0;//disable timer ints
		
		//Backlight on
		PORTA |= (1<<BL_EN);
	}
	else if (BL_dutycycle == 0)
    194e:	99 23       	and	r25, r25
    1950:	69 f0       	breq	.+26     	; 0x196c <set_backlight+0x2a>
	}
	
	
	else
	{
		TCCR0B = 0;
    1952:	15 bc       	out	0x25, r1	; 37
		TIMSK0 = 0;//disable timer ints
    1954:	10 92 6e 00 	sts	0x006E, r1
		
		OCR0A = 100 - BL_dutycycle;
    1958:	84 e6       	ldi	r24, 0x64	; 100
    195a:	89 1b       	sub	r24, r25
    195c:	87 bd       	out	0x27, r24	; 39
		
		TIMSK0 = 0x02;//enable match on A
    195e:	20 93 6e 00 	sts	0x006E, r18
		TCCR0B = 0x02;
    1962:	25 bd       	out	0x25, r18	; 37
		
		SREG |= 0x80;
    1964:	8f b7       	in	r24, 0x3f	; 63
    1966:	80 68       	ori	r24, 0x80	; 128
    1968:	8f bf       	out	0x3f, r24	; 63
    196a:	08 95       	ret
		//Backlight on
		PORTA |= (1<<BL_EN);
	}
	else if (BL_dutycycle == 0)
	{
		TCCR0B = 0;
    196c:	15 bc       	out	0x25, r1	; 37
		TIMSK0 = 0;//disable timer ints
    196e:	10 92 6e 00 	sts	0x006E, r1

		
		//Backlight off
		PORTA &= (~(1<<BL_EN));
    1972:	14 98       	cbi	0x02, 4	; 2
    1974:	08 95       	ret
	//SREG |= 0x80;
	
	
	if(BL_dutycycle >= 100)
	{
		TCCR0B = 0;
    1976:	15 bc       	out	0x25, r1	; 37
		TIMSK0 = 0;//disable timer ints
    1978:	10 92 6e 00 	sts	0x006E, r1
		
		//Backlight on
		PORTA |= (1<<BL_EN);
    197c:	14 9a       	sbi	0x02, 4	; 2
    197e:	08 95       	ret

00001980 <draw_block>:

//draws a block on the screen. Block is described
//by a diagonal line from x, y1 to x2, y2
//block is filled with byte data (describes a vertical row of 8 pixels, use 0x00 to clear the block, 0xFF to fill it, etc)
void draw_block(char x1, char y1, char x2, char y2, char data)
{
    1980:	ef 92       	push	r14
    1982:	ff 92       	push	r15
    1984:	0f 93       	push	r16
    1986:	df 93       	push	r29
    1988:	cf 93       	push	r28
    198a:	0f 92       	push	r0
    198c:	cd b7       	in	r28, 0x3d	; 61
    198e:	de b7       	in	r29, 0x3e	; 62
    1990:	52 2f       	mov	r21, r18
	static signed int width = 0, height = 0,x,y;
	char n;
	n=data;
	if (x1>x2)
    1992:	48 17       	cp	r20, r24
    1994:	a0 f5       	brcc	.+104    	; 0x19fe <draw_block+0x7e>
	{
		width=x1-x2;
    1996:	24 2f       	mov	r18, r20
    1998:	30 e0       	ldi	r19, 0x00	; 0
    199a:	90 e0       	ldi	r25, 0x00	; 0
    199c:	82 1b       	sub	r24, r18
    199e:	93 0b       	sbc	r25, r19
    19a0:	90 93 e7 03 	sts	0x03E7, r25
    19a4:	80 93 e6 03 	sts	0x03E6, r24
		x=x2;
    19a8:	30 93 e3 03 	sts	0x03E3, r19
    19ac:	20 93 e2 03 	sts	0x03E2, r18
	else
	{
		width=x2-x1;
		x=x1;
	}
	if (y1>y2)
    19b0:	56 17       	cp	r21, r22
    19b2:	a8 f1       	brcs	.+106    	; 0x1a1e <draw_block+0x9e>
		height=y1-y2;
		y=y2;
	}	
	else
	{
		height=y2-y1;
    19b4:	26 2f       	mov	r18, r22
    19b6:	30 e0       	ldi	r19, 0x00	; 0
    19b8:	85 2f       	mov	r24, r21
    19ba:	90 e0       	ldi	r25, 0x00	; 0
    19bc:	82 1b       	sub	r24, r18
    19be:	93 0b       	sbc	r25, r19
    19c0:	90 93 e5 03 	sts	0x03E5, r25
    19c4:	80 93 e4 03 	sts	0x03E4, r24
		y=y1;
    19c8:	30 93 e1 03 	sts	0x03E1, r19
    19cc:	20 93 e0 03 	sts	0x03E0, r18
	}
	
	bitblt(x, y, width, height, 6, &n);	//use erase mode of bitblt
    19d0:	80 91 e2 03 	lds	r24, 0x03E2
    19d4:	60 91 e0 03 	lds	r22, 0x03E0
    19d8:	40 91 e6 03 	lds	r20, 0x03E6
    19dc:	20 91 e4 03 	lds	r18, 0x03E4
//block is filled with byte data (describes a vertical row of 8 pixels, use 0x00 to clear the block, 0xFF to fill it, etc)
void draw_block(char x1, char y1, char x2, char y2, char data)
{
	static signed int width = 0, height = 0,x,y;
	char n;
	n=data;
    19e0:	09 83       	std	Y+1, r16	; 0x01
	{
		height=y2-y1;
		y=y1;
	}
	
	bitblt(x, y, width, height, 6, &n);	//use erase mode of bitblt
    19e2:	06 e0       	ldi	r16, 0x06	; 6
    19e4:	7e 01       	movw	r14, r28
    19e6:	08 94       	sec
    19e8:	e1 1c       	adc	r14, r1
    19ea:	f1 1c       	adc	r15, r1
    19ec:	0e 94 26 08 	call	0x104c	; 0x104c <bitblt>

}
    19f0:	0f 90       	pop	r0
    19f2:	cf 91       	pop	r28
    19f4:	df 91       	pop	r29
    19f6:	0f 91       	pop	r16
    19f8:	ff 90       	pop	r15
    19fa:	ef 90       	pop	r14
    19fc:	08 95       	ret
		width=x1-x2;
		x=x2;
	}
	else
	{
		width=x2-x1;
    19fe:	28 2f       	mov	r18, r24
    1a00:	30 e0       	ldi	r19, 0x00	; 0
    1a02:	84 2f       	mov	r24, r20
    1a04:	90 e0       	ldi	r25, 0x00	; 0
    1a06:	82 1b       	sub	r24, r18
    1a08:	93 0b       	sbc	r25, r19
    1a0a:	90 93 e7 03 	sts	0x03E7, r25
    1a0e:	80 93 e6 03 	sts	0x03E6, r24
		x=x1;
    1a12:	30 93 e3 03 	sts	0x03E3, r19
    1a16:	20 93 e2 03 	sts	0x03E2, r18
	}
	if (y1>y2)
    1a1a:	56 17       	cp	r21, r22
    1a1c:	58 f6       	brcc	.-106    	; 0x19b4 <draw_block+0x34>
	{
		height=y1-y2;
    1a1e:	25 2f       	mov	r18, r21
    1a20:	30 e0       	ldi	r19, 0x00	; 0
    1a22:	86 2f       	mov	r24, r22
    1a24:	90 e0       	ldi	r25, 0x00	; 0
    1a26:	82 1b       	sub	r24, r18
    1a28:	93 0b       	sbc	r25, r19
    1a2a:	90 93 e5 03 	sts	0x03E5, r25
    1a2e:	80 93 e4 03 	sts	0x03E4, r24
		y=y2;
    1a32:	30 93 e1 03 	sts	0x03E1, r19
    1a36:	20 93 e0 03 	sts	0x03E0, r18
    1a3a:	ca cf       	rjmp	.-108    	; 0x19d0 <draw_block+0x50>

00001a3c <del_char>:
}


//Deletes a full character space previous to the current location (backspace)
void del_char()
{
    1a3c:	0f 93       	push	r16
	char f;

	if (x_offset <= font_w)					//if previous char wouldn't have fit
    1a3e:	30 91 dd 03 	lds	r19, 0x03DD
    1a42:	40 91 0d 04 	lds	r20, 0x040D
    1a46:	43 17       	cp	r20, r19
    1a48:	50 f1       	brcs	.+84     	; 0x1a9e <del_char+0x62>
	{			
		x_offset = (128 - (font_w+1) - ((128-x_offset) % (font_w+1)) );			
    1a4a:	24 2f       	mov	r18, r20
    1a4c:	20 95       	com	r18
    1a4e:	20 58       	subi	r18, 0x80	; 128
    1a50:	64 2f       	mov	r22, r20
    1a52:	70 e0       	ldi	r23, 0x00	; 0
    1a54:	6f 5f       	subi	r22, 0xFF	; 255
    1a56:	7f 4f       	sbci	r23, 0xFF	; 255
    1a58:	80 e8       	ldi	r24, 0x80	; 128
    1a5a:	90 e0       	ldi	r25, 0x00	; 0
    1a5c:	83 1b       	sub	r24, r19
    1a5e:	91 09       	sbc	r25, r1
    1a60:	0e 94 1a 15 	call	0x2a34	; 0x2a34 <__divmodhi4>
    1a64:	28 1b       	sub	r18, r24
    1a66:	20 93 dd 03 	sts	0x03DD, r18
				
		if (y_offset < font_h) 	
    1a6a:	50 91 de 03 	lds	r21, 0x03DE
    1a6e:	30 91 f0 03 	lds	r19, 0x03F0
    1a72:	53 17       	cp	r21, r19
    1a74:	60 f5       	brcc	.+88     	; 0x1ace <del_char+0x92>
			y_offset = (64 - font_h - ((64-y_offset) % font_h) );	//if we run off the top of the screen
    1a76:	23 2f       	mov	r18, r19
    1a78:	21 95       	neg	r18
    1a7a:	20 5c       	subi	r18, 0xC0	; 192
    1a7c:	80 e4       	ldi	r24, 0x40	; 64
    1a7e:	90 e0       	ldi	r25, 0x00	; 0
    1a80:	85 1b       	sub	r24, r21
    1a82:	91 09       	sbc	r25, r1
    1a84:	63 2f       	mov	r22, r19
    1a86:	70 e0       	ldi	r23, 0x00	; 0
    1a88:	0e 94 1a 15 	call	0x2a34	; 0x2a34 <__divmodhi4>
    1a8c:	28 1b       	sub	r18, r24
    1a8e:	20 93 de 03 	sts	0x03DE, r18
	}
	
	else x_offset -= (font_w+1);					// back x_offset up by the font width + 1 pixel space btwn characters
	
	f=0;
	if (reverse==1)
    1a92:	80 91 d7 03 	lds	r24, 0x03D7
    1a96:	81 30       	cpi	r24, 0x01	; 1
    1a98:	69 f4       	brne	.+26     	; 0x1ab4 <del_char+0x78>
    1a9a:	0f ef       	ldi	r16, 0xFF	; 255
    1a9c:	0c c0       	rjmp	.+24     	; 0x1ab6 <del_char+0x7a>
			y_offset = (64 - font_h - ((64-y_offset) % font_h) );	//if we run off the top of the screen
		else
			y_offset-=font_h;
	}
	
	else x_offset -= (font_w+1);					// back x_offset up by the font width + 1 pixel space btwn characters
    1a9e:	84 2f       	mov	r24, r20
    1aa0:	80 95       	com	r24
    1aa2:	83 0f       	add	r24, r19
    1aa4:	80 93 dd 03 	sts	0x03DD, r24
    1aa8:	30 91 f0 03 	lds	r19, 0x03F0
	
	f=0;
	if (reverse==1)
    1aac:	80 91 d7 03 	lds	r24, 0x03D7
    1ab0:	81 30       	cpi	r24, 0x01	; 1
    1ab2:	99 f3       	breq	.-26     	; 0x1a9a <del_char+0x5e>
    1ab4:	00 e0       	ldi	r16, 0x00	; 0
		f=0xff;	

	draw_block(x_offset, y_offset, x_offset+font_w, y_offset+font_h-1,f);	//erase the block
    1ab6:	80 91 dd 03 	lds	r24, 0x03DD
    1aba:	60 91 de 03 	lds	r22, 0x03DE
    1abe:	48 0f       	add	r20, r24
    1ac0:	36 0f       	add	r19, r22
    1ac2:	31 50       	subi	r19, 0x01	; 1
    1ac4:	23 2f       	mov	r18, r19
    1ac6:	0e 94 c0 0c 	call	0x1980	; 0x1980 <draw_block>
}
    1aca:	0f 91       	pop	r16
    1acc:	08 95       	ret
		x_offset = (128 - (font_w+1) - ((128-x_offset) % (font_w+1)) );			
				
		if (y_offset < font_h) 	
			y_offset = (64 - font_h - ((64-y_offset) % font_h) );	//if we run off the top of the screen
		else
			y_offset-=font_h;
    1ace:	53 1b       	sub	r21, r19
    1ad0:	50 93 de 03 	sts	0x03DE, r21
    1ad4:	eb cf       	rjmp	.-42     	; 0x1aac <del_char+0x70>

00001ad6 <box>:

//draws a box. The box is described

//by a diagonal line from x, y1 to x2, y2
void box(char x1, char y1, char x2, char y2)
{
    1ad6:	df 92       	push	r13
    1ad8:	ef 92       	push	r14
    1ada:	ff 92       	push	r15
    1adc:	0f 93       	push	r16
    1ade:	1f 93       	push	r17
    1ae0:	f8 2e       	mov	r15, r24
    1ae2:	d6 2e       	mov	r13, r22
    1ae4:	e4 2e       	mov	r14, r20
    1ae6:	12 2f       	mov	r17, r18
	
	line(1, x2, y2, x2, y1);
    1ae8:	81 e0       	ldi	r24, 0x01	; 1
    1aea:	64 2f       	mov	r22, r20
    1aec:	42 2f       	mov	r20, r18
    1aee:	2e 2d       	mov	r18, r14
    1af0:	0d 2d       	mov	r16, r13
    1af2:	0e 94 3d 0b 	call	0x167a	; 0x167a <line>
	line(1, x1, y2, x2, y2);
    1af6:	81 e0       	ldi	r24, 0x01	; 1
    1af8:	6f 2d       	mov	r22, r15
    1afa:	41 2f       	mov	r20, r17
    1afc:	2e 2d       	mov	r18, r14
    1afe:	01 2f       	mov	r16, r17
    1b00:	0e 94 3d 0b 	call	0x167a	; 0x167a <line>
	line(1, x1, y2, x1, y1);
    1b04:	81 e0       	ldi	r24, 0x01	; 1
    1b06:	6f 2d       	mov	r22, r15
    1b08:	41 2f       	mov	r20, r17
    1b0a:	2f 2d       	mov	r18, r15
    1b0c:	0d 2d       	mov	r16, r13
    1b0e:	0e 94 3d 0b 	call	0x167a	; 0x167a <line>
	line(1, x1, y1, x2, y1);
    1b12:	81 e0       	ldi	r24, 0x01	; 1
    1b14:	6f 2d       	mov	r22, r15
    1b16:	4d 2d       	mov	r20, r13
    1b18:	2e 2d       	mov	r18, r14
    1b1a:	0e 94 3d 0b 	call	0x167a	; 0x167a <line>
}
    1b1e:	1f 91       	pop	r17
    1b20:	0f 91       	pop	r16
    1b22:	ff 90       	pop	r15
    1b24:	ef 90       	pop	r14
    1b26:	df 90       	pop	r13
    1b28:	08 95       	ret

00001b2a <draw_sprite>:

void draw_sprite(char x, char y, char n, char mode)	//draws nth sprite at (x,y) using mode
{
    1b2a:	ef 92       	push	r14
    1b2c:	ff 92       	push	r15
    1b2e:	0f 93       	push	r16
    1b30:	02 2f       	mov	r16, r18
	uint16_t o;
	o=n*SPRITE_SIZE;				//offset to sprite
    1b32:	92 e4       	ldi	r25, 0x42	; 66
    1b34:	49 9f       	mul	r20, r25
    1b36:	a0 01       	movw	r20, r0
    1b38:	11 24       	eor	r1, r1
	bitblt(x, y, sprite[o], sprite[o+1], mode, sprite + 2 + o);
    1b3a:	eb e3       	ldi	r30, 0x3B	; 59
    1b3c:	f1 e0       	ldi	r31, 0x01	; 1
    1b3e:	df 01       	movw	r26, r30
    1b40:	a4 0f       	add	r26, r20
    1b42:	b5 1f       	adc	r27, r21
    1b44:	4e 5f       	subi	r20, 0xFE	; 254
    1b46:	5f 4f       	sbci	r21, 0xFF	; 255
    1b48:	e4 0f       	add	r30, r20
    1b4a:	f5 1f       	adc	r31, r21
    1b4c:	4c 91       	ld	r20, X
    1b4e:	11 96       	adiw	r26, 0x01	; 1
    1b50:	2c 91       	ld	r18, X
    1b52:	7f 01       	movw	r14, r30
    1b54:	0e 94 26 08 	call	0x104c	; 0x104c <bitblt>
}
    1b58:	0f 91       	pop	r16
    1b5a:	ff 90       	pop	r15
    1b5c:	ef 90       	pop	r14
    1b5e:	08 95       	ret

00001b60 <set_baud>:

void set_baud(char b)
{
	if (b == 1) USART_Init( 1250000/2400-1);//4800
    1b60:	81 30       	cpi	r24, 0x01	; 1
    1b62:	a9 f0       	breq	.+42     	; 0x1b8e <set_baud+0x2e>
	else if (b == 2) USART_Init( 1250000/4800-1);//9600
    1b64:	82 30       	cpi	r24, 0x02	; 2
    1b66:	c1 f0       	breq	.+48     	; 0x1b98 <set_baud+0x38>
	else if (b == 3) USART_Init( 1250000/9600-1);//19200
    1b68:	83 30       	cpi	r24, 0x03	; 3
    1b6a:	d9 f0       	breq	.+54     	; 0x1ba2 <set_baud+0x42>
	else if (b == 4) USART_Init( 1250000/19200-1);//38400
    1b6c:	84 30       	cpi	r24, 0x04	; 4
    1b6e:	f1 f0       	breq	.+60     	; 0x1bac <set_baud+0x4c>
	else if (b == 5) USART_Init( 1250000/28800-1);//57600
    1b70:	85 30       	cpi	r24, 0x05	; 5
    1b72:	41 f0       	breq	.+16     	; 0x1b84 <set_baud+0x24>
	else if (b == 6) USART_Init( 1250000/57600-1);//115200
    1b74:	86 30       	cpi	r24, 0x06	; 6
    1b76:	09 f0       	breq	.+2      	; 0x1b7a <set_baud+0x1a>
    1b78:	08 95       	ret
    1b7a:	84 e1       	ldi	r24, 0x14	; 20
    1b7c:	90 e0       	ldi	r25, 0x00	; 0
    1b7e:	0e 94 bc 05 	call	0xb78	; 0xb78 <USART_Init>
    1b82:	08 95       	ret
{
	if (b == 1) USART_Init( 1250000/2400-1);//4800
	else if (b == 2) USART_Init( 1250000/4800-1);//9600
	else if (b == 3) USART_Init( 1250000/9600-1);//19200
	else if (b == 4) USART_Init( 1250000/19200-1);//38400
	else if (b == 5) USART_Init( 1250000/28800-1);//57600
    1b84:	8a e2       	ldi	r24, 0x2A	; 42
    1b86:	90 e0       	ldi	r25, 0x00	; 0
    1b88:	0e 94 bc 05 	call	0xb78	; 0xb78 <USART_Init>
    1b8c:	08 95       	ret
	bitblt(x, y, sprite[o], sprite[o+1], mode, sprite + 2 + o);
}

void set_baud(char b)
{
	if (b == 1) USART_Init( 1250000/2400-1);//4800
    1b8e:	87 e0       	ldi	r24, 0x07	; 7
    1b90:	92 e0       	ldi	r25, 0x02	; 2
    1b92:	0e 94 bc 05 	call	0xb78	; 0xb78 <USART_Init>
    1b96:	08 95       	ret
	else if (b == 2) USART_Init( 1250000/4800-1);//9600
    1b98:	83 e0       	ldi	r24, 0x03	; 3
    1b9a:	91 e0       	ldi	r25, 0x01	; 1
    1b9c:	0e 94 bc 05 	call	0xb78	; 0xb78 <USART_Init>
    1ba0:	08 95       	ret
	else if (b == 3) USART_Init( 1250000/9600-1);//19200
    1ba2:	81 e8       	ldi	r24, 0x81	; 129
    1ba4:	90 e0       	ldi	r25, 0x00	; 0
    1ba6:	0e 94 bc 05 	call	0xb78	; 0xb78 <USART_Init>
    1baa:	08 95       	ret
	else if (b == 4) USART_Init( 1250000/19200-1);//38400
    1bac:	80 e4       	ldi	r24, 0x40	; 64
    1bae:	90 e0       	ldi	r25, 0x00	; 0
    1bb0:	0e 94 bc 05 	call	0xb78	; 0xb78 <USART_Init>
    1bb4:	08 95       	ret

00001bb6 <LCD_reset>:
	
}

void LCD_reset(void)
{
	LCD_CONTROL = 0x00;
    1bb6:	1b b8       	out	0x0b, r1	; 11
	delay_ms(60);
    1bb8:	8c e3       	ldi	r24, 0x3C	; 60
    1bba:	90 e0       	ldi	r25, 0x00	; 0
    1bbc:	0e 94 a6 05 	call	0xb4c	; 0xb4c <delay_ms>
	LCD_CONTROL = LCD_IDLE;
    1bc0:	80 e2       	ldi	r24, 0x20	; 32
    1bc2:	8b b9       	out	0x0b, r24	; 11
	delay_ms(60);
    1bc4:	8c e3       	ldi	r24, 0x3C	; 60
    1bc6:	90 e0       	ldi	r25, 0x00	; 0
    1bc8:	0e 94 a6 05 	call	0xb4c	; 0xb4c <delay_ms>

	clear_screen(0);
    1bcc:	80 e0       	ldi	r24, 0x00	; 0
    1bce:	0e 94 c7 07 	call	0xf8e	; 0xf8e <clear_screen>

	display_on();
    1bd2:	8f e3       	ldi	r24, 0x3F	; 63
    1bd4:	60 e0       	ldi	r22, 0x00	; 0
    1bd6:	0e 94 0b 06 	call	0xc16	; 0xc16 <write_command_LCD>
	
	set_page(0);
    1bda:	88 eb       	ldi	r24, 0xB8	; 184
    1bdc:	60 e0       	ldi	r22, 0x00	; 0
    1bde:	0e 94 0b 06 	call	0xc16	; 0xc16 <write_command_LCD>
			
	set_x(0);
    1be2:	80 e4       	ldi	r24, 0x40	; 64
    1be4:	60 e0       	ldi	r22, 0x00	; 0
    1be6:	0e 94 0b 06 	call	0xc16	; 0xc16 <write_command_LCD>
			
	//set display start line to 0, command 0xC0
	write_command_LCD(0xC0,0);
    1bea:	80 ec       	ldi	r24, 0xC0	; 192
    1bec:	60 e0       	ldi	r22, 0x00	; 0
    1bee:	0e 94 0b 06 	call	0xc16	; 0xc16 <write_command_LCD>
	
	x_offset = 0;
    1bf2:	10 92 dd 03 	sts	0x03DD, r1

	set_page(0);
    1bf6:	88 eb       	ldi	r24, 0xB8	; 184
    1bf8:	60 e0       	ldi	r22, 0x00	; 0
    1bfa:	0e 94 0b 06 	call	0xc16	; 0xc16 <write_command_LCD>
}
    1bfe:	08 95       	ret

00001c00 <main>:
	TCCR0B = 0x02;
}


int main (void)
{
    1c00:	2f 92       	push	r2
    1c02:	3f 92       	push	r3
    1c04:	4f 92       	push	r4
    1c06:	5f 92       	push	r5
    1c08:	6f 92       	push	r6
    1c0a:	7f 92       	push	r7
    1c0c:	8f 92       	push	r8
    1c0e:	9f 92       	push	r9
    1c10:	af 92       	push	r10
    1c12:	bf 92       	push	r11
    1c14:	cf 92       	push	r12
    1c16:	df 92       	push	r13
    1c18:	ef 92       	push	r14
    1c1a:	ff 92       	push	r15
    1c1c:	0f 93       	push	r16
    1c1e:	1f 93       	push	r17
    1c20:	df 93       	push	r29
    1c22:	cf 93       	push	r28
    1c24:	cd b7       	in	r28, 0x3d	; 61
    1c26:	de b7       	in	r29, 0x3e	; 62
    1c28:	2e 97       	sbiw	r28, 0x0e	; 14
    1c2a:	0f b6       	in	r0, 0x3f	; 63
    1c2c:	f8 94       	cli
    1c2e:	de bf       	out	0x3e, r29	; 62
    1c30:	0f be       	out	0x3f, r0	; 63
    1c32:	cd bf       	out	0x3d, r28	; 61
	char x, y, z, temp, q, p, A, B;	//variables used for loops, buffering of command bytes, counters etc.
	uint16_t count, count2;		//counters for long stuff that may go over 256
	
	ioinit(); 			//Setup IO pins and defaults
    1c34:	0e 94 80 05 	call	0xb00	; 0xb00 <ioinit>

	set_baud(6);			//115200
    1c38:	86 e0       	ldi	r24, 0x06	; 6
    1c3a:	0e 94 b0 0d 	call	0x1b60	; 0x1b60 <set_baud>
	rprintf_devopen(put_char); // init rprintf 
    1c3e:	8d ef       	ldi	r24, 0xFD	; 253
    1c40:	95 e0       	ldi	r25, 0x05	; 5
    1c42:	0e 94 8c 13 	call	0x2718	; 0x2718 <rprintf_devopen>
}

void put_char(char byte)
{
	/* Wait for empty transmit buffer */
	while ( !( UCSR0A & (1<<UDRE0)) );
    1c46:	80 91 c0 00 	lds	r24, 0x00C0
    1c4a:	85 ff       	sbrs	r24, 5
    1c4c:	fc cf       	rjmp	.-8      	; 0x1c46 <main+0x46>
	/* Put data into buffer, sends the data */
	UDR0 = byte;
    1c4e:	81 e1       	ldi	r24, 0x11	; 17
    1c50:	80 93 c6 00 	sts	0x00C6, r24
		CR_LF = EEPROM_read((unsigned int)CRLF);
	}
	*/


		BL_dutycycle=10;
    1c54:	8a e0       	ldi	r24, 0x0A	; 10
    1c56:	80 93 39 01 	sts	0x0139, r24
		baud_rate = 6;
    1c5a:	86 e0       	ldi	r24, 0x06	; 6
    1c5c:	80 93 37 01 	sts	0x0137, r24
		splash_screen = 1;
    1c60:	81 e0       	ldi	r24, 0x01	; 1
    1c62:	80 93 38 01 	sts	0x0138, r24
		reverse = 0;
    1c66:	10 92 d7 03 	sts	0x03D7, r1
		debug_msg = 0;
    1c6a:	10 92 d8 03 	sts	0x03D8, r1
		CR_LF = 1;
    1c6e:	80 93 d0 03 	sts	0x03D0, r24

	//Set up the default font===========================================
	font_w = pgm_read_byte(&text_array[0]);	
    1c72:	e8 eb       	ldi	r30, 0xB8	; 184
    1c74:	f0 e0       	ldi	r31, 0x00	; 0
    1c76:	84 91       	lpm	r24, Z+
    1c78:	80 93 0d 04 	sts	0x040D, r24
	font_h = pgm_read_byte(&text_array[1]);	
    1c7c:	7f 01       	movw	r14, r30
    1c7e:	08 94       	sec
    1c80:	e1 1c       	adc	r14, r1
    1c82:	f1 1c       	adc	r15, r1
    1c84:	f7 01       	movw	r30, r14
    1c86:	84 91       	lpm	r24, Z+
    1c88:	80 93 f0 03 	sts	0x03F0, r24
	font_space = pgm_read_byte(&text_array[2]);
    1c8c:	08 eb       	ldi	r16, 0xB8	; 184
    1c8e:	10 e0       	ldi	r17, 0x00	; 0
    1c90:	0e 5f       	subi	r16, 0xFE	; 254
    1c92:	1f 4f       	sbci	r17, 0xFF	; 255
    1c94:	f8 01       	movw	r30, r16
    1c96:	24 91       	lpm	r18, Z+
    1c98:	20 93 0e 05 	sts	0x050E, r18
	font_bytes = font_h/8;	//8 pixels/byte
    1c9c:	28 2f       	mov	r18, r24
    1c9e:	26 95       	lsr	r18
    1ca0:	26 95       	lsr	r18
    1ca2:	26 95       	lsr	r18
    1ca4:	20 93 ef 03 	sts	0x03EF, r18
	if (font_h % 8 != 0)
    1ca8:	90 e0       	ldi	r25, 0x00	; 0
    1caa:	87 70       	andi	r24, 0x07	; 7
    1cac:	90 70       	andi	r25, 0x00	; 0
    1cae:	89 2b       	or	r24, r25
    1cb0:	19 f0       	breq	.+6      	; 0x1cb8 <main+0xb8>
		font_bytes++;	//partial rows count too
    1cb2:	2f 5f       	subi	r18, 0xFF	; 255
    1cb4:	20 93 ef 03 	sts	0x03EF, r18
	font_bytes *= font_w;	//need font_w stacks of rows	
    1cb8:	80 91 ef 03 	lds	r24, 0x03EF
    1cbc:	90 91 0d 04 	lds	r25, 0x040D
    1cc0:	89 9f       	mul	r24, r25
    1cc2:	80 2d       	mov	r24, r0
    1cc4:	11 24       	eor	r1, r1
    1cc6:	80 93 ef 03 	sts	0x03EF, r24

	//Reset the display=================================================

	LCD_reset();
    1cca:	0e 94 db 0d 	call	0x1bb6	; 0x1bb6 <LCD_reset>
	
	set_backlight(BL_dutycycle);
    1cce:	80 91 39 01 	lds	r24, 0x0139
    1cd2:	0e 94 a1 0c 	call	0x1942	; 0x1942 <set_backlight>
	
	delay_ms(500);
    1cd6:	84 ef       	ldi	r24, 0xF4	; 244
    1cd8:	91 e0       	ldi	r25, 0x01	; 1
    1cda:	0e 94 a6 05 	call	0xb4c	; 0xb4c <delay_ms>

	
	//Logo==========================================================
	if (splash_screen == 1)
    1cde:	80 91 38 01 	lds	r24, 0x0138
    1ce2:	81 30       	cpi	r24, 0x01	; 1
    1ce4:	09 f4       	brne	.+2      	; 0x1ce8 <main+0xe8>
    1ce6:	0c c5       	rjmp	.+2584   	; 0x2700 <main+0xb00>
	{
		draw_sprite(56,24,0,4);	//XOR'ing the sprite works in normal and reverse modes
	}

	cli();
    1ce8:	f8 94       	cli
	RX_in = 0;	//clear RX input buffer
    1cea:	10 92 d2 03 	sts	0x03D2, r1
	RX_read = 0;
    1cee:	10 92 d4 03 	sts	0x03D4, r1
    1cf2:	10 92 d3 03 	sts	0x03D3, r1
	RX_bytes = 0;
    1cf6:	10 92 d5 03 	sts	0x03D5, r1
	sei();	
    1cfa:	78 94       	sei

	delay_ms(1000);	//display the splash screen for a second
    1cfc:	88 ee       	ldi	r24, 0xE8	; 232
    1cfe:	93 e0       	ldi	r25, 0x03	; 3
    1d00:	0e 94 a6 05 	call	0xb4c	; 0xb4c <delay_ms>
	clear_screen(0);	//clear the screen
    1d04:	80 e0       	ldi	r24, 0x00	; 0
    1d06:	0e 94 c7 07 	call	0xf8e	; 0xf8e <clear_screen>
	
	if (RX_in > 0)	//revert to 115200
    1d0a:	80 91 d2 03 	lds	r24, 0x03D2
    1d0e:	88 23       	and	r24, r24
    1d10:	09 f4       	brne	.+2      	; 0x1d14 <main+0x114>
    1d12:	fd c4       	rjmp	.+2554   	; 0x270e <main+0xb0e>
	{
		print_char('1');
    1d14:	81 e3       	ldi	r24, 0x31	; 49
    1d16:	0e 94 ec 09 	call	0x13d8	; 0x13d8 <print_char>
		print_char('1');
    1d1a:	81 e3       	ldi	r24, 0x31	; 49
    1d1c:	0e 94 ec 09 	call	0x13d8	; 0x13d8 <print_char>
		print_char('5');
    1d20:	85 e3       	ldi	r24, 0x35	; 53
    1d22:	0e 94 ec 09 	call	0x13d8	; 0x13d8 <print_char>
		print_char('2');
    1d26:	82 e3       	ldi	r24, 0x32	; 50
    1d28:	0e 94 ec 09 	call	0x13d8	; 0x13d8 <print_char>
		print_char('0');
    1d2c:	80 e3       	ldi	r24, 0x30	; 48
    1d2e:	0e 94 ec 09 	call	0x13d8	; 0x13d8 <print_char>
		print_char('0');
    1d32:	80 e3       	ldi	r24, 0x30	; 48
    1d34:	0e 94 ec 09 	call	0x13d8	; 0x13d8 <print_char>
		
		baud_rate = 6;
    1d38:	86 e0       	ldi	r24, 0x06	; 6
    1d3a:	80 93 37 01 	sts	0x0137, r24
		set_baud(6);//115200
    1d3e:	0e 94 b0 0d 	call	0x1b60	; 0x1b60 <set_baud>
		
		cli();
    1d42:	f8 94       	cli
		
		EEPROM_write((unsigned int) BPS, 6);
    1d44:	80 e0       	ldi	r24, 0x00	; 0
    1d46:	90 e0       	ldi	r25, 0x00	; 0
    1d48:	66 e0       	ldi	r22, 0x06	; 6
    1d4a:	0e 94 92 0c 	call	0x1924	; 0x1924 <EEPROM_write>
		
		sei();//Enable Interrupts
    1d4e:	78 94       	sei
	}
	
	else (set_baud(baud_rate));
	
	delay_ms(1000);
    1d50:	88 ee       	ldi	r24, 0xE8	; 232
    1d52:	93 e0       	ldi	r25, 0x03	; 3
    1d54:	0e 94 a6 05 	call	0xb4c	; 0xb4c <delay_ms>
	clear_screen(0);
    1d58:	80 e0       	ldi	r24, 0x00	; 0
    1d5a:	0e 94 c7 07 	call	0xf8e	; 0xf8e <clear_screen>
	
	//flush any received chars

	cli();
    1d5e:	f8 94       	cli
	RX_read=0;
    1d60:	10 92 d4 03 	sts	0x03D4, r1
    1d64:	10 92 d3 03 	sts	0x03D3, r1
	RX_in=0;
    1d68:	10 92 d2 03 	sts	0x03D2, r1
	RX_bytes=0;
    1d6c:	10 92 d5 03 	sts	0x03D5, r1
	sei();
    1d70:	78 94       	sei
    1d72:	e0 e0       	ldi	r30, 0x00	; 0
    1d74:	ae 2e       	mov	r10, r30
    1d76:	e1 e0       	ldi	r30, 0x01	; 1
    1d78:	be 2e       	mov	r11, r30
    1d7a:	e6 e9       	ldi	r30, 0x96	; 150
    1d7c:	f2 e0       	ldi	r31, 0x02	; 2
    1d7e:	cf 01       	movw	r24, r30
    1d80:	02 96       	adiw	r24, 0x02	; 2
    1d82:	74 e1       	ldi	r23, 0x14	; 20
    1d84:	87 2e       	mov	r8, r23
    1d86:	71 e0       	ldi	r23, 0x01	; 1
    1d88:	97 2e       	mov	r9, r23
    1d8a:	68 e1       	ldi	r22, 0x18	; 24
    1d8c:	66 2e       	mov	r6, r22
    1d8e:	61 e0       	ldi	r22, 0x01	; 1
    1d90:	76 2e       	mov	r7, r22
void put_char(char byte)
{
	/* Wait for empty transmit buffer */
	while ( !( UCSR0A & (1<<UDRE0)) );
	/* Put data into buffer, sends the data */
	UDR0 = byte;
    1d92:	5a e0       	ldi	r21, 0x0A	; 10
    1d94:	c5 2e       	mov	r12, r21
    1d96:	4d e0       	ldi	r20, 0x0D	; 13
    1d98:	54 2e       	mov	r5, r20
				//************************************************************************************************************
				 case 25:		//set y_offset
							//wait for byte
					y_offset = RX_get_byte();		//get new y offset
							
					if (y_offset > 127) y_offset = 127;	//coerce y offset to valid range		
    1d9a:	3f e7       	ldi	r19, 0x7F	; 127
    1d9c:	43 2e       	mov	r4, r19
				//************************************************************************************************************
				 case 24:		//set x_offset
							//wait for byte
					x_offset = RX_get_byte();		//get new x offset
							
					if (x_offset > 159) x_offset = 159;	//coerce x offset to valid range
    1d9e:	2f e9       	ldi	r18, 0x9F	; 159
    1da0:	32 2e       	mov	r3, r18
					EEPROM_write((unsigned int) REV, reverse);
					sei();
				 break;	
				//************************************************************************************************************
				 case 21:	//toggle splash
					splash_screen ^= 1;
    1da2:	22 24       	eor	r2, r2
    1da4:	23 94       	inc	r2
						font_bytes *= font_w;	//need font_w stacks of rows	
					}
					else			//if using default font, set to aux
					{
						aux_font=1;
						font_w = pgm_read_byte(&aux_text_array[0]);	
    1da6:	24 91       	lpm	r18, Z+
    1da8:	29 83       	std	Y+1, r18	; 0x01
    1daa:	31 96       	adiw	r30, 0x01	; 1
						font_h = pgm_read_byte(&aux_text_array[1]);	
    1dac:	a4 91       	lpm	r26, Z+
    1dae:	aa 83       	std	Y+2, r26	; 0x02
						font_space = pgm_read_byte(&aux_text_array[2]);
    1db0:	fc 01       	movw	r30, r24
    1db2:	f4 91       	lpm	r31, Z+
    1db4:	fb 83       	std	Y+3, r31	; 0x03
						font_bytes = font_h/8;	//8 pixels/byte
    1db6:	a6 95       	lsr	r26
    1db8:	a6 95       	lsr	r26
    1dba:	a6 95       	lsr	r26
    1dbc:	ac 83       	std	Y+4, r26	; 0x04
						if (font_h % 8 != 0)
    1dbe:	9a 81       	ldd	r25, Y+2	; 0x02
    1dc0:	89 2f       	mov	r24, r25
    1dc2:	90 e0       	ldi	r25, 0x00	; 0
    1dc4:	87 70       	andi	r24, 0x07	; 7
    1dc6:	90 70       	andi	r25, 0x00	; 0
    1dc8:	9e 83       	std	Y+6, r25	; 0x06
    1dca:	8d 83       	std	Y+5, r24	; 0x05
							font_bytes++;	//partial rows count too
    1dcc:	af 5f       	subi	r26, 0xFF	; 255
    1dce:	af 83       	std	Y+7, r26	; 0x07
				 case 8:	//toggle aux font
				
					if (aux_font==1)	//if using aux font, set back to default
					{
						aux_font=0;
						font_w = pgm_read_byte(&text_array[0]);	
    1dd0:	e8 eb       	ldi	r30, 0xB8	; 184
    1dd2:	f0 e0       	ldi	r31, 0x00	; 0
    1dd4:	f4 91       	lpm	r31, Z+
    1dd6:	f8 87       	std	Y+8, r31	; 0x08
						font_h = pgm_read_byte(&text_array[1]);	
    1dd8:	f7 01       	movw	r30, r14
    1dda:	f4 91       	lpm	r31, Z+
    1ddc:	f9 87       	std	Y+9, r31	; 0x09
						font_space = pgm_read_byte(&text_array[2]);
    1dde:	f8 01       	movw	r30, r16
    1de0:	f4 91       	lpm	r31, Z+
    1de2:	fa 87       	std	Y+10, r31	; 0x0a
						font_bytes = font_h/8;	//8 pixels/byte
    1de4:	29 85       	ldd	r18, Y+9	; 0x09
    1de6:	26 95       	lsr	r18
    1de8:	26 95       	lsr	r18
    1dea:	26 95       	lsr	r18
    1dec:	2b 87       	std	Y+11, r18	; 0x0b
						if (font_h % 8 != 0)
    1dee:	99 85       	ldd	r25, Y+9	; 0x09
    1df0:	89 2f       	mov	r24, r25
    1df2:	90 e0       	ldi	r25, 0x00	; 0
    1df4:	87 70       	andi	r24, 0x07	; 7
    1df6:	90 70       	andi	r25, 0x00	; 0
    1df8:	9d 87       	std	Y+13, r25	; 0x0d
    1dfa:	8c 87       	std	Y+12, r24	; 0x0c
							font_bytes++;	//partial rows count too
    1dfc:	2f 5f       	subi	r18, 0xFF	; 255
    1dfe:	2e 87       	std	Y+14, r18	; 0x0e

	//main loop===================================================
	//main loop waits for characters on the serial port, and either prints them, or interprets them as a command
	while(1)
	{
		if (RX_bytes!=0)
    1e00:	80 91 d5 03 	lds	r24, 0x03D5
    1e04:	88 23       	and	r24, r24
    1e06:	09 f0       	breq	.+2      	; 0x1e0a <main+0x20a>
    1e08:	68 c0       	rjmp	.+208    	; 0x1eda <main+0x2da>
			//--------------------------------------------------------------------------------------------------------------------
			}//end switch for backspace/command/normal char
		}//end if RX char recieved

		//place code to read buttons here
		A = PINA;
    1e0a:	20 b1       	in	r18, 0x00	; 0
		B = PINB;
    1e0c:	83 b1       	in	r24, 0x03	; 3
		
		// buttons are active low (pressed button clears a bit on port a or b)
		if (B & BUTTON0)
    1e0e:	98 2f       	mov	r25, r24
    1e10:	80 ff       	sbrs	r24, 0
    1e12:	7c c0       	rjmp	.+248    	; 0x1f0c <main+0x30c>
		{
			debounce[0]=0;		//clear counter when released
    1e14:	10 92 f1 03 	sts	0x03F1, r1
			buttons &= (~(1));	//clear bit
    1e18:	80 91 dc 03 	lds	r24, 0x03DC
    1e1c:	8e 7f       	andi	r24, 0xFE	; 254
    1e1e:	80 93 dc 03 	sts	0x03DC, r24
			if (debounce[0]==0) 	//if counter rolled over
				buttons |= 1;	//set bit

		}

		if (B & BUTTON1)
    1e22:	91 ff       	sbrs	r25, 1
    1e24:	82 c0       	rjmp	.+260    	; 0x1f2a <main+0x32a>
		{
			debounce[1]=0;		//clear counter when released
    1e26:	10 92 f2 03 	sts	0x03F2, r1
			buttons &= (~(2));	//clear bit
    1e2a:	80 91 dc 03 	lds	r24, 0x03DC
    1e2e:	8d 7f       	andi	r24, 0xFD	; 253
    1e30:	80 93 dc 03 	sts	0x03DC, r24
			debounce[1]++;		//increment debounce counter
			if (debounce[1]==0) 	//if counter rolled over
				buttons |= 2;	//set bit
		}

		if (B & BUTTON2)
    1e34:	92 ff       	sbrs	r25, 2
    1e36:	88 c0       	rjmp	.+272    	; 0x1f48 <main+0x348>
		{
			debounce[2]=0;		//clear counter when released
    1e38:	10 92 f3 03 	sts	0x03F3, r1
			buttons &= (~(4));	//clear bit
    1e3c:	80 91 dc 03 	lds	r24, 0x03DC
    1e40:	8b 7f       	andi	r24, 0xFB	; 251
    1e42:	80 93 dc 03 	sts	0x03DC, r24
			debounce[2]++;		//increment debounce counter
			if (debounce[2]==0) 	//if counter rolled over
				buttons |= 4;	//set bit
		}

		if (B & BUTTON3)
    1e46:	93 ff       	sbrs	r25, 3
    1e48:	8e c0       	rjmp	.+284    	; 0x1f66 <main+0x366>
		{
			debounce[3]=0;		//clear counter when released
    1e4a:	10 92 f4 03 	sts	0x03F4, r1
			buttons &= (~(8));	//clear bit
    1e4e:	80 91 dc 03 	lds	r24, 0x03DC
    1e52:	87 7f       	andi	r24, 0xF7	; 247
    1e54:	80 93 dc 03 	sts	0x03DC, r24
			debounce[3]++;		//increment debounce counter
			if (debounce[3]==0) 	//if counter rolled over	
				buttons |= 8;	//set bit
		}

		if (B & BUTTON4)
    1e58:	94 ff       	sbrs	r25, 4
    1e5a:	94 c0       	rjmp	.+296    	; 0x1f84 <main+0x384>
		{
			debounce[4]=0;		//clear counter when released
    1e5c:	10 92 f5 03 	sts	0x03F5, r1
			buttons &= (~(16));	//clear bit
    1e60:	80 91 dc 03 	lds	r24, 0x03DC
    1e64:	8f 7e       	andi	r24, 0xEF	; 239
    1e66:	80 93 dc 03 	sts	0x03DC, r24

			if (debounce[4]==0) 	//if counter rolled over			
				buttons |= 16;	//set bit
		}
		
		if (A & BUTTON5)
    1e6a:	92 2f       	mov	r25, r18
    1e6c:	20 ff       	sbrs	r18, 0
    1e6e:	9a c0       	rjmp	.+308    	; 0x1fa4 <main+0x3a4>
		{
			debounce[5]=0;		//clear counter when released
    1e70:	10 92 f6 03 	sts	0x03F6, r1
			buttons &= (~(32));	//clear bit
    1e74:	80 91 dc 03 	lds	r24, 0x03DC
    1e78:	8f 7d       	andi	r24, 0xDF	; 223
    1e7a:	80 93 dc 03 	sts	0x03DC, r24
			debounce[5]++;		//increment debounce counter
			if (debounce[5]==0) 	//if counter rolled over			
				buttons |= 32;	//set bit
		}

		if (A & BUTTON6)
    1e7e:	91 ff       	sbrs	r25, 1
    1e80:	a0 c0       	rjmp	.+320    	; 0x1fc2 <main+0x3c2>
		{
			debounce[6]=0;		//clear counter when released
    1e82:	10 92 f7 03 	sts	0x03F7, r1
			buttons &= (~(64));	//clear bit
    1e86:	80 91 dc 03 	lds	r24, 0x03DC
    1e8a:	8f 7b       	andi	r24, 0xBF	; 191
    1e8c:	80 93 dc 03 	sts	0x03DC, r24

			if (debounce[6]==0) 	//if counter rolled over			
				buttons |= 64;	//set bit
		}

		if (A & BUTTON7)
    1e90:	92 ff       	sbrs	r25, 2
    1e92:	a6 c0       	rjmp	.+332    	; 0x1fe0 <main+0x3e0>
		{
			debounce[7]=0;		//clear counter when released
    1e94:	10 92 f8 03 	sts	0x03F8, r1
			buttons &= (~(128));	//clear bit
    1e98:	80 91 dc 03 	lds	r24, 0x03DC
    1e9c:	8f 77       	andi	r24, 0x7F	; 127
    1e9e:	80 93 dc 03 	sts	0x03DC, r24
				buttons |= 128;	//set bit

		}

		//code to drive RGB LED
		RGB_counter++;		//increment counter
    1ea2:	90 91 db 03 	lds	r25, 0x03DB
    1ea6:	9f 5f       	subi	r25, 0xFF	; 255
    1ea8:	90 93 db 03 	sts	0x03DB, r25
		if (RGB_red>RGB_counter)
    1eac:	80 91 3a 01 	lds	r24, 0x013A
    1eb0:	98 17       	cp	r25, r24
    1eb2:	08 f0       	brcs	.+2      	; 0x1eb6 <main+0x2b6>
    1eb4:	ae c0       	rjmp	.+348    	; 0x2012 <main+0x412>
			PORTA &= (~(1<<RED));	//pin low turns on led
    1eb6:	17 98       	cbi	0x02, 7	; 2
		else
			PORTA |= (1<<RED);	//pin high turns off led

		if (RGB_green>RGB_counter)
    1eb8:	80 91 d9 03 	lds	r24, 0x03D9
    1ebc:	98 17       	cp	r25, r24
    1ebe:	08 f0       	brcs	.+2      	; 0x1ec2 <main+0x2c2>
    1ec0:	a6 c0       	rjmp	.+332    	; 0x200e <main+0x40e>
			PORTA &= (~(1<<GREEN));	//pin low turns on led
    1ec2:	15 98       	cbi	0x02, 5	; 2
		else
			PORTA |= (1<<GREEN);	//pin high turns off led

		if (RGB_blue>RGB_counter)
    1ec4:	80 91 da 03 	lds	r24, 0x03DA
    1ec8:	98 17       	cp	r25, r24
    1eca:	08 f0       	brcs	.+2      	; 0x1ece <main+0x2ce>
    1ecc:	9e c0       	rjmp	.+316    	; 0x200a <main+0x40a>
			PORTA &= (~(1<<BLUE));	//pin low turns on led
    1ece:	16 98       	cbi	0x02, 6	; 2

	//main loop===================================================
	//main loop waits for characters on the serial port, and either prints them, or interprets them as a command
	while(1)
	{
		if (RX_bytes!=0)
    1ed0:	80 91 d5 03 	lds	r24, 0x03D5
    1ed4:	88 23       	and	r24, r24
    1ed6:	09 f4       	brne	.+2      	; 0x1eda <main+0x2da>
    1ed8:	98 cf       	rjmp	.-208    	; 0x1e0a <main+0x20a>
		{			
			x = RX_get_byte();	
    1eda:	0e 94 cb 05 	call	0xb96	; 0xb96 <RX_get_byte>
    1ede:	98 2f       	mov	r25, r24
			switch(x)		//switch based on received character
    1ee0:	8a 30       	cpi	r24, 0x0A	; 10
    1ee2:	09 f4       	brne	.+2      	; 0x1ee6 <main+0x2e6>
    1ee4:	ab c3       	rjmp	.+1878   	; 0x263c <main+0xa3c>
    1ee6:	8b 30       	cpi	r24, 0x0B	; 11
    1ee8:	08 f0       	brcs	.+2      	; 0x1eec <main+0x2ec>
    1eea:	95 c0       	rjmp	.+298    	; 0x2016 <main+0x416>
    1eec:	88 30       	cpi	r24, 0x08	; 8
    1eee:	09 f4       	brne	.+2      	; 0x1ef2 <main+0x2f2>
    1ef0:	96 c3       	rjmp	.+1836   	; 0x261e <main+0xa1e>
				 break;
				}
			 break;
			//--------------------------------------------------------------------------------------------------------------------
			 default:		//nothing special, print character to screen
				if (debug_msg==2)
    1ef2:	80 91 d8 03 	lds	r24, 0x03D8
    1ef6:	82 30       	cpi	r24, 0x02	; 2
    1ef8:	09 f4       	brne	.+2      	; 0x1efc <main+0x2fc>
    1efa:	80 c0       	rjmp	.+256    	; 0x1ffc <main+0x3fc>
					put_char(x);	//if ASCII debug, echo characters typed
				print_char(x);
    1efc:	89 2f       	mov	r24, r25
    1efe:	0e 94 ec 09 	call	0x13d8	; 0x13d8 <print_char>
			//--------------------------------------------------------------------------------------------------------------------
			}//end switch for backspace/command/normal char
		}//end if RX char recieved

		//place code to read buttons here
		A = PINA;
    1f02:	20 b1       	in	r18, 0x00	; 0
		B = PINB;
    1f04:	83 b1       	in	r24, 0x03	; 3
		
		// buttons are active low (pressed button clears a bit on port a or b)
		if (B & BUTTON0)
    1f06:	98 2f       	mov	r25, r24
    1f08:	80 fd       	sbrc	r24, 0
    1f0a:	84 cf       	rjmp	.-248    	; 0x1e14 <main+0x214>
			buttons &= (~(1));	//clear bit
		}
		else
		{

			debounce[0]++;		//increment debounce counter
    1f0c:	80 91 f1 03 	lds	r24, 0x03F1
    1f10:	8f 5f       	subi	r24, 0xFF	; 255
    1f12:	80 93 f1 03 	sts	0x03F1, r24

			if (debounce[0]==0) 	//if counter rolled over
    1f16:	88 23       	and	r24, r24
    1f18:	09 f0       	breq	.+2      	; 0x1f1c <main+0x31c>
    1f1a:	83 cf       	rjmp	.-250    	; 0x1e22 <main+0x222>
				buttons |= 1;	//set bit
    1f1c:	80 91 dc 03 	lds	r24, 0x03DC
    1f20:	81 60       	ori	r24, 0x01	; 1
    1f22:	80 93 dc 03 	sts	0x03DC, r24

		}

		if (B & BUTTON1)
    1f26:	91 fd       	sbrc	r25, 1
    1f28:	7e cf       	rjmp	.-260    	; 0x1e26 <main+0x226>
			debounce[1]=0;		//clear counter when released
			buttons &= (~(2));	//clear bit
		}
		else
		{
			debounce[1]++;		//increment debounce counter
    1f2a:	80 91 f2 03 	lds	r24, 0x03F2
    1f2e:	8f 5f       	subi	r24, 0xFF	; 255
    1f30:	80 93 f2 03 	sts	0x03F2, r24
			if (debounce[1]==0) 	//if counter rolled over
    1f34:	88 23       	and	r24, r24
    1f36:	09 f0       	breq	.+2      	; 0x1f3a <main+0x33a>
    1f38:	7d cf       	rjmp	.-262    	; 0x1e34 <main+0x234>
				buttons |= 2;	//set bit
    1f3a:	80 91 dc 03 	lds	r24, 0x03DC
    1f3e:	82 60       	ori	r24, 0x02	; 2
    1f40:	80 93 dc 03 	sts	0x03DC, r24
		}

		if (B & BUTTON2)
    1f44:	92 fd       	sbrc	r25, 2
    1f46:	78 cf       	rjmp	.-272    	; 0x1e38 <main+0x238>
			buttons &= (~(4));	//clear bit
		}
		else
		{

			debounce[2]++;		//increment debounce counter
    1f48:	80 91 f3 03 	lds	r24, 0x03F3
    1f4c:	8f 5f       	subi	r24, 0xFF	; 255
    1f4e:	80 93 f3 03 	sts	0x03F3, r24
			if (debounce[2]==0) 	//if counter rolled over
    1f52:	88 23       	and	r24, r24
    1f54:	09 f0       	breq	.+2      	; 0x1f58 <main+0x358>
    1f56:	77 cf       	rjmp	.-274    	; 0x1e46 <main+0x246>
				buttons |= 4;	//set bit
    1f58:	80 91 dc 03 	lds	r24, 0x03DC
    1f5c:	84 60       	ori	r24, 0x04	; 4
    1f5e:	80 93 dc 03 	sts	0x03DC, r24
		}

		if (B & BUTTON3)
    1f62:	93 fd       	sbrc	r25, 3
    1f64:	72 cf       	rjmp	.-284    	; 0x1e4a <main+0x24a>
			debounce[3]=0;		//clear counter when released
			buttons &= (~(8));	//clear bit
		}
		else
		{
			debounce[3]++;		//increment debounce counter
    1f66:	80 91 f4 03 	lds	r24, 0x03F4
    1f6a:	8f 5f       	subi	r24, 0xFF	; 255
    1f6c:	80 93 f4 03 	sts	0x03F4, r24
			if (debounce[3]==0) 	//if counter rolled over	
    1f70:	88 23       	and	r24, r24
    1f72:	09 f0       	breq	.+2      	; 0x1f76 <main+0x376>
    1f74:	71 cf       	rjmp	.-286    	; 0x1e58 <main+0x258>
				buttons |= 8;	//set bit
    1f76:	80 91 dc 03 	lds	r24, 0x03DC
    1f7a:	88 60       	ori	r24, 0x08	; 8
    1f7c:	80 93 dc 03 	sts	0x03DC, r24
		}

		if (B & BUTTON4)
    1f80:	94 fd       	sbrc	r25, 4
    1f82:	6c cf       	rjmp	.-296    	; 0x1e5c <main+0x25c>
			debounce[4]=0;		//clear counter when released
			buttons &= (~(16));	//clear bit
		}
		else
		{
			debounce[4]++;		//increment debounce counter
    1f84:	80 91 f5 03 	lds	r24, 0x03F5
    1f88:	8f 5f       	subi	r24, 0xFF	; 255
    1f8a:	80 93 f5 03 	sts	0x03F5, r24

			if (debounce[4]==0) 	//if counter rolled over			
    1f8e:	88 23       	and	r24, r24
    1f90:	09 f0       	breq	.+2      	; 0x1f94 <main+0x394>
    1f92:	6b cf       	rjmp	.-298    	; 0x1e6a <main+0x26a>
				buttons |= 16;	//set bit
    1f94:	80 91 dc 03 	lds	r24, 0x03DC
    1f98:	80 61       	ori	r24, 0x10	; 16
    1f9a:	80 93 dc 03 	sts	0x03DC, r24
		}
		
		if (A & BUTTON5)
    1f9e:	92 2f       	mov	r25, r18
    1fa0:	20 fd       	sbrc	r18, 0
    1fa2:	66 cf       	rjmp	.-308    	; 0x1e70 <main+0x270>
			debounce[5]=0;		//clear counter when released
			buttons &= (~(32));	//clear bit
		}
		else
		{
			debounce[5]++;		//increment debounce counter
    1fa4:	80 91 f6 03 	lds	r24, 0x03F6
    1fa8:	8f 5f       	subi	r24, 0xFF	; 255
    1faa:	80 93 f6 03 	sts	0x03F6, r24
			if (debounce[5]==0) 	//if counter rolled over			
    1fae:	88 23       	and	r24, r24
    1fb0:	09 f0       	breq	.+2      	; 0x1fb4 <main+0x3b4>
    1fb2:	65 cf       	rjmp	.-310    	; 0x1e7e <main+0x27e>
				buttons |= 32;	//set bit
    1fb4:	80 91 dc 03 	lds	r24, 0x03DC
    1fb8:	80 62       	ori	r24, 0x20	; 32
    1fba:	80 93 dc 03 	sts	0x03DC, r24
		}

		if (A & BUTTON6)
    1fbe:	91 fd       	sbrc	r25, 1
    1fc0:	60 cf       	rjmp	.-320    	; 0x1e82 <main+0x282>
			debounce[6]=0;		//clear counter when released
			buttons &= (~(64));	//clear bit
		}
		else
		{
			debounce[6]++;		//increment debounce counter
    1fc2:	80 91 f7 03 	lds	r24, 0x03F7
    1fc6:	8f 5f       	subi	r24, 0xFF	; 255
    1fc8:	80 93 f7 03 	sts	0x03F7, r24

			if (debounce[6]==0) 	//if counter rolled over			
    1fcc:	88 23       	and	r24, r24
    1fce:	09 f0       	breq	.+2      	; 0x1fd2 <main+0x3d2>
    1fd0:	5f cf       	rjmp	.-322    	; 0x1e90 <main+0x290>
				buttons |= 64;	//set bit
    1fd2:	80 91 dc 03 	lds	r24, 0x03DC
    1fd6:	80 64       	ori	r24, 0x40	; 64
    1fd8:	80 93 dc 03 	sts	0x03DC, r24
		}

		if (A & BUTTON7)
    1fdc:	92 fd       	sbrc	r25, 2
    1fde:	5a cf       	rjmp	.-332    	; 0x1e94 <main+0x294>
			debounce[7]=0;		//clear counter when released
			buttons &= (~(128));	//clear bit
		}
		else
		{
			debounce[7]++;		//increment debounce counter
    1fe0:	80 91 f8 03 	lds	r24, 0x03F8
    1fe4:	8f 5f       	subi	r24, 0xFF	; 255
    1fe6:	80 93 f8 03 	sts	0x03F8, r24
			if (debounce[7]==0) 	//if counter rolled over			
    1fea:	88 23       	and	r24, r24
    1fec:	09 f0       	breq	.+2      	; 0x1ff0 <main+0x3f0>
    1fee:	59 cf       	rjmp	.-334    	; 0x1ea2 <main+0x2a2>
				buttons |= 128;	//set bit
    1ff0:	80 91 dc 03 	lds	r24, 0x03DC
    1ff4:	80 68       	ori	r24, 0x80	; 128
    1ff6:	80 93 dc 03 	sts	0x03DC, r24
    1ffa:	53 cf       	rjmp	.-346    	; 0x1ea2 <main+0x2a2>
}

void put_char(char byte)
{
	/* Wait for empty transmit buffer */
	while ( !( UCSR0A & (1<<UDRE0)) );
    1ffc:	80 91 c0 00 	lds	r24, 0x00C0
    2000:	85 ff       	sbrs	r24, 5
    2002:	fc cf       	rjmp	.-8      	; 0x1ffc <main+0x3fc>
	/* Put data into buffer, sends the data */
	UDR0 = byte;
    2004:	90 93 c6 00 	sts	0x00C6, r25
    2008:	79 cf       	rjmp	.-270    	; 0x1efc <main+0x2fc>
			PORTA |= (1<<GREEN);	//pin high turns off led

		if (RGB_blue>RGB_counter)
			PORTA &= (~(1<<BLUE));	//pin low turns on led
		else
			PORTA |= (1<<BLUE);	//pin high turns off led
    200a:	16 9a       	sbi	0x02, 6	; 2
    200c:	f9 ce       	rjmp	.-526    	; 0x1e00 <main+0x200>
			PORTA |= (1<<RED);	//pin high turns off led

		if (RGB_green>RGB_counter)
			PORTA &= (~(1<<GREEN));	//pin low turns on led
		else
			PORTA |= (1<<GREEN);	//pin high turns off led
    200e:	15 9a       	sbi	0x02, 5	; 2
    2010:	59 cf       	rjmp	.-334    	; 0x1ec4 <main+0x2c4>
		//code to drive RGB LED
		RGB_counter++;		//increment counter
		if (RGB_red>RGB_counter)
			PORTA &= (~(1<<RED));	//pin low turns on led
		else
			PORTA |= (1<<RED);	//pin high turns off led
    2012:	17 9a       	sbi	0x02, 7	; 2
    2014:	51 cf       	rjmp	.-350    	; 0x1eb8 <main+0x2b8>
	while(1)
	{
		if (RX_bytes!=0)
		{			
			x = RX_get_byte();	
			switch(x)		//switch based on received character
    2016:	8d 30       	cpi	r24, 0x0D	; 13
    2018:	09 f4       	brne	.+2      	; 0x201c <main+0x41c>
    201a:	c0 c2       	rjmp	.+1408   	; 0x259c <main+0x99c>
    201c:	8c 37       	cpi	r24, 0x7C	; 124
    201e:	09 f0       	breq	.+2      	; 0x2022 <main+0x422>
    2020:	68 cf       	rjmp	.-304    	; 0x1ef2 <main+0x2f2>
				if (debug_msg==2)
					put_char(x);	//if ASCII debug, echo characters typed
			 break;
			//--------------------------------------------------------------------------------------------------------------------
			 case 124:					//received character indicated a coming command
				y = RX_get_byte();			//get char from buffer
    2022:	0e 94 cb 05 	call	0xb96	; 0xb96 <RX_get_byte>
    2026:	18 2f       	mov	r17, r24

				switch (debug_msg)		//output for debugging or monitoring purposes
    2028:	20 91 d8 03 	lds	r18, 0x03D8
    202c:	21 30       	cpi	r18, 0x01	; 1
    202e:	11 f1       	breq	.+68     	; 0x2074 <main+0x474>
    2030:	22 30       	cpi	r18, 0x02	; 2
    2032:	99 f4       	brne	.+38     	; 0x205a <main+0x45a>
				{
				 case 1:			//print binary debug msg
					put_char(y);
				 break;
				 case 2:			//print ASCII debug msg
					rprintf("Entered Command %d\n",y);
    2034:	00 d0       	rcall	.+0      	; 0x2036 <main+0x436>
    2036:	00 d0       	rcall	.+0      	; 0x2038 <main+0x438>
    2038:	ed b7       	in	r30, 0x3d	; 61
    203a:	fe b7       	in	r31, 0x3e	; 62
    203c:	31 96       	adiw	r30, 0x01	; 1
    203e:	ad b7       	in	r26, 0x3d	; 61
    2040:	be b7       	in	r27, 0x3e	; 62
    2042:	12 96       	adiw	r26, 0x02	; 2
    2044:	bc 92       	st	X, r11
    2046:	ae 92       	st	-X, r10
    2048:	11 97       	sbiw	r26, 0x01	; 1
    204a:	82 83       	std	Z+2, r24	; 0x02
    204c:	13 82       	std	Z+3, r1	; 0x03
    204e:	0e 94 a6 13 	call	0x274c	; 0x274c <rprintf>
    2052:	0f 90       	pop	r0
    2054:	0f 90       	pop	r0
    2056:	0f 90       	pop	r0
    2058:	0f 90       	pop	r0
				 break;
				 default:
				 break;
				}
	
				switch(y)				//switch to which command was sent
    205a:	e1 2f       	mov	r30, r17
    205c:	f0 e0       	ldi	r31, 0x00	; 0
    205e:	e4 32       	cpi	r30, 0x24	; 36
    2060:	f1 05       	cpc	r31, r1
    2062:	98 f4       	brcc	.+38     	; 0x208a <main+0x48a>
    2064:	e8 5c       	subi	r30, 0xC8	; 200
    2066:	ff 4f       	sbci	r31, 0xFF	; 255
    2068:	ee 0f       	add	r30, r30
    206a:	ff 1f       	adc	r31, r31
    206c:	05 90       	lpm	r0, Z+
    206e:	f4 91       	lpm	r31, Z+
    2070:	e0 2d       	mov	r30, r0
    2072:	09 94       	ijmp
}

void put_char(char byte)
{
	/* Wait for empty transmit buffer */
	while ( !( UCSR0A & (1<<UDRE0)) );
    2074:	80 91 c0 00 	lds	r24, 0x00C0
    2078:	85 ff       	sbrs	r24, 5
    207a:	fc cf       	rjmp	.-8      	; 0x2074 <main+0x474>
	/* Put data into buffer, sends the data */
	UDR0 = byte;
    207c:	10 93 c6 00 	sts	0x00C6, r17
				 break;
				 default:
				 break;
				}
	
				switch(y)				//switch to which command was sent
    2080:	e1 2f       	mov	r30, r17
    2082:	f0 e0       	ldi	r31, 0x00	; 0
    2084:	e4 32       	cpi	r30, 0x24	; 36
    2086:	f1 05       	cpc	r31, r1
    2088:	68 f3       	brcs	.-38     	; 0x2064 <main+0x464>
    208a:	20 91 d8 03 	lds	r18, 0x03D8
					put_char(buttons);
				 break;	
				//************************************************************************************************************
				}//end switch for which command	

				switch (debug_msg)
    208e:	21 30       	cpi	r18, 0x01	; 1
    2090:	c9 f0       	breq	.+50     	; 0x20c4 <main+0x4c4>
    2092:	22 30       	cpi	r18, 0x02	; 2
    2094:	09 f0       	breq	.+2      	; 0x2098 <main+0x498>
    2096:	b9 ce       	rjmp	.-654    	; 0x1e0a <main+0x20a>
				{
				 case 1:	//print binary debug msg
					put_char(0);
				 break;
				 case 2:	//print ASCII debug msg
					rprintf("Exited Command, RX_buffer=%d\n\n",RX_bytes);
    2098:	80 91 d5 03 	lds	r24, 0x03D5
    209c:	00 d0       	rcall	.+0      	; 0x209e <main+0x49e>
    209e:	00 d0       	rcall	.+0      	; 0x20a0 <main+0x4a0>
    20a0:	ed b7       	in	r30, 0x3d	; 61
    20a2:	fe b7       	in	r31, 0x3e	; 62
    20a4:	31 96       	adiw	r30, 0x01	; 1
    20a6:	ad b7       	in	r26, 0x3d	; 61
    20a8:	be b7       	in	r27, 0x3e	; 62
    20aa:	12 96       	adiw	r26, 0x02	; 2
    20ac:	7c 92       	st	X, r7
    20ae:	6e 92       	st	-X, r6
    20b0:	11 97       	sbiw	r26, 0x01	; 1
    20b2:	82 83       	std	Z+2, r24	; 0x02
    20b4:	13 82       	std	Z+3, r1	; 0x03
    20b6:	0e 94 a6 13 	call	0x274c	; 0x274c <rprintf>
    20ba:	0f 90       	pop	r0
    20bc:	0f 90       	pop	r0
    20be:	0f 90       	pop	r0
    20c0:	0f 90       	pop	r0
    20c2:	a3 ce       	rjmp	.-698    	; 0x1e0a <main+0x20a>
}

void put_char(char byte)
{
	/* Wait for empty transmit buffer */
	while ( !( UCSR0A & (1<<UDRE0)) );
    20c4:	80 91 c0 00 	lds	r24, 0x00C0
    20c8:	85 ff       	sbrs	r24, 5
    20ca:	fc cf       	rjmp	.-8      	; 0x20c4 <main+0x4c4>
	/* Put data into buffer, sends the data */
	UDR0 = byte;
    20cc:	10 92 c6 00 	sts	0x00C6, r1
    20d0:	9c ce       	rjmp	.-712    	; 0x1e0a <main+0x20a>
					write_command_LCD(y,z);			//write command
				 break;	
				//************************************************************************************************************
				 case 27:		//write data
							//wait for byte(data)
					y = RX_get_byte();		
    20d2:	0e 94 cb 05 	call	0xb96	; 0xb96 <RX_get_byte>
    20d6:	18 2f       	mov	r17, r24
							

							//wait for byte(chip # {1,2,3})
					z = RX_get_byte();	
    20d8:	0e 94 cb 05 	call	0xb96	; 0xb96 <RX_get_byte>
    20dc:	68 2f       	mov	r22, r24
							

					write_data_LCD(y,z);			//write data
    20de:	81 2f       	mov	r24, r17
    20e0:	0e 94 35 06 	call	0xc6a	; 0xc6a <write_data_LCD>
	
				//************************************************************************************************************
				 case 28:		//write block
							//wait for byte(x)
					y = RX_get_byte();		
    20e4:	0e 94 cb 05 	call	0xb96	; 0xb96 <RX_get_byte>
    20e8:	d8 2e       	mov	r13, r24
							

							//wait for byte(page)
					z = RX_get_byte();		
    20ea:	0e 94 cb 05 	call	0xb96	; 0xb96 <RX_get_byte>
    20ee:	e8 2e       	mov	r14, r24
							

							//wait for byte(length)
					temp = RX_get_byte();		
    20f0:	0e 94 cb 05 	call	0xb96	; 0xb96 <RX_get_byte>
    20f4:	f8 2e       	mov	r15, r24
    20f6:	b0 e8       	ldi	r27, 0x80	; 128
    20f8:	b8 17       	cp	r27, r24
    20fa:	08 f0       	brcs	.+2      	; 0x20fe <main+0x4fe>
    20fc:	cb c2       	rjmp	.+1430   	; 0x2694 <main+0xa94>
    20fe:	80 e8       	ldi	r24, 0x80	; 128
    2100:	f8 2e       	mov	r15, r24
					
					//coerce length, there are only 128 pixels across the whole screen
					if (temp>128)
						temp=128;

					for(q=0;q<temp;q++)
    2102:	00 e0       	ldi	r16, 0x00	; 0
    2104:	10 e0       	ldi	r17, 0x00	; 0
					{
								//wait for byte(data)
						buffer[q] = RX_get_byte();	//store data	
    2106:	0e 94 cb 05 	call	0xb96	; 0xb96 <RX_get_byte>
    210a:	f8 01       	movw	r30, r16
    210c:	e2 5f       	subi	r30, 0xF2	; 242
    210e:	fb 4f       	sbci	r31, 0xFB	; 251
    2110:	80 83       	st	Z, r24
    2112:	0f 5f       	subi	r16, 0xFF	; 255
    2114:	1f 4f       	sbci	r17, 0xFF	; 255
					
					//coerce length, there are only 128 pixels across the whole screen
					if (temp>128)
						temp=128;

					for(q=0;q<temp;q++)
    2116:	0f 15       	cp	r16, r15
    2118:	b0 f3       	brcs	.-20     	; 0x2106 <main+0x506>
					{
								//wait for byte(data)
						buffer[q] = RX_get_byte();	//store data	
								
					}
					write_block(y,z,temp,buffer);			//do block write
    211a:	8d 2d       	mov	r24, r13
    211c:	6e 2d       	mov	r22, r14
    211e:	4f 2d       	mov	r20, r15
    2120:	2e e0       	ldi	r18, 0x0E	; 14
    2122:	34 e0       	ldi	r19, 0x04	; 4
    2124:	0e 94 5f 06 	call	0xcbe	; 0xcbe <write_block>
    2128:	20 91 d8 03 	lds	r18, 0x03D8
    212c:	b0 cf       	rjmp	.-160    	; 0x208e <main+0x48e>
				 break;	
				//************************************************************************************************************
				 case 29:		//read data
							//wait for byte(chip # {1,2})
					y = RX_get_byte();		
    212e:	0e 94 cb 05 	call	0xb96	; 0xb96 <RX_get_byte>
							
					
					z = read_data_LCD(y);
    2132:	0e 94 f6 06 	call	0xdec	; 0xdec <read_data_LCD>
    2136:	98 2f       	mov	r25, r24
					if(debug_msg==2)
    2138:	20 91 d8 03 	lds	r18, 0x03D8
    213c:	22 30       	cpi	r18, 0x02	; 2
    213e:	09 f4       	brne	.+2      	; 0x2142 <main+0x542>
    2140:	ad c2       	rjmp	.+1370   	; 0x269c <main+0xa9c>
}

void put_char(char byte)
{
	/* Wait for empty transmit buffer */
	while ( !( UCSR0A & (1<<UDRE0)) );
    2142:	80 91 c0 00 	lds	r24, 0x00C0
    2146:	85 ff       	sbrs	r24, 5
    2148:	fc cf       	rjmp	.-8      	; 0x2142 <main+0x542>
	/* Put data into buffer, sends the data */
	UDR0 = byte;
    214a:	90 93 c6 00 	sts	0x00C6, r25
    214e:	9f cf       	rjmp	.-194    	; 0x208e <main+0x48e>
						put_char(temp);
				 break;	
				//************************************************************************************************************
				 case 31:		//read block
							//wait for byte(x)
					y = RX_get_byte();		
    2150:	0e 94 cb 05 	call	0xb96	; 0xb96 <RX_get_byte>
    2154:	f8 2e       	mov	r15, r24
							

							//wait for byte(page)
					z = RX_get_byte();		
    2156:	0e 94 cb 05 	call	0xb96	; 0xb96 <RX_get_byte>
    215a:	08 2f       	mov	r16, r24
							

							//wait for byte(length)
					temp = RX_get_byte();		
    215c:	0e 94 cb 05 	call	0xb96	; 0xb96 <RX_get_byte>
    2160:	18 2f       	mov	r17, r24
    2162:	81 38       	cpi	r24, 0x81	; 129
    2164:	08 f0       	brcs	.+2      	; 0x2168 <main+0x568>
    2166:	10 e8       	ldi	r17, 0x80	; 128
					
					//coerce length
					if (temp>128)
						temp=128;

					read_block(y,z,temp,buffer);		//do block read
    2168:	8f 2d       	mov	r24, r15
    216a:	60 2f       	mov	r22, r16
    216c:	41 2f       	mov	r20, r17
    216e:	2e e0       	ldi	r18, 0x0E	; 14
    2170:	34 e0       	ldi	r19, 0x04	; 4
    2172:	0e 94 1f 07 	call	0xe3e	; 0xe3e <read_block>
					
					for(z=0;z<temp;z++)
    2176:	11 23       	and	r17, r17
    2178:	09 f4       	brne	.+2      	; 0x217c <main+0x57c>
    217a:	87 cf       	rjmp	.-242    	; 0x208a <main+0x48a>
    217c:	0e e0       	ldi	r16, 0x0E	; 14
    217e:	e0 2e       	mov	r14, r16
    2180:	04 e0       	ldi	r16, 0x04	; 4
    2182:	f0 2e       	mov	r15, r16
    2184:	20 91 d8 03 	lds	r18, 0x03D8
    2188:	11 50       	subi	r17, 0x01	; 1
    218a:	01 2f       	mov	r16, r17
    218c:	10 e0       	ldi	r17, 0x00	; 0
    218e:	01 5f       	subi	r16, 0xF1	; 241
    2190:	1b 4f       	sbci	r17, 0xFB	; 251
						if(debug_msg==2)
    2192:	22 30       	cpi	r18, 0x02	; 2
    2194:	89 f0       	breq	.+34     	; 0x21b8 <main+0x5b8>
							rprintf("%d\n",buffer[z]);
						else
							put_char(buffer[z]);			
    2196:	f7 01       	movw	r30, r14
    2198:	90 81       	ld	r25, Z
}

void put_char(char byte)
{
	/* Wait for empty transmit buffer */
	while ( !( UCSR0A & (1<<UDRE0)) );
    219a:	80 91 c0 00 	lds	r24, 0x00C0
    219e:	85 ff       	sbrs	r24, 5
    21a0:	fc cf       	rjmp	.-8      	; 0x219a <main+0x59a>
	/* Put data into buffer, sends the data */
	UDR0 = byte;
    21a2:	90 93 c6 00 	sts	0x00C6, r25
    21a6:	08 94       	sec
    21a8:	e1 1c       	adc	r14, r1
    21aa:	f1 1c       	adc	r15, r1
					if (temp>128)
						temp=128;

					read_block(y,z,temp,buffer);		//do block read
					
					for(z=0;z<temp;z++)
    21ac:	e0 16       	cp	r14, r16
    21ae:	f1 06       	cpc	r15, r17
    21b0:	09 f4       	brne	.+2      	; 0x21b4 <main+0x5b4>
    21b2:	6d cf       	rjmp	.-294    	; 0x208e <main+0x48e>
						if(debug_msg==2)
    21b4:	22 30       	cpi	r18, 0x02	; 2
    21b6:	79 f7       	brne	.-34     	; 0x2196 <main+0x596>
							rprintf("%d\n",buffer[z]);
    21b8:	00 d0       	rcall	.+0      	; 0x21ba <main+0x5ba>
    21ba:	00 d0       	rcall	.+0      	; 0x21bc <main+0x5bc>
    21bc:	ed b7       	in	r30, 0x3d	; 61
    21be:	fe b7       	in	r31, 0x3e	; 62
    21c0:	31 96       	adiw	r30, 0x01	; 1
    21c2:	ad b7       	in	r26, 0x3d	; 61
    21c4:	be b7       	in	r27, 0x3e	; 62
    21c6:	12 96       	adiw	r26, 0x02	; 2
    21c8:	9c 92       	st	X, r9
    21ca:	8e 92       	st	-X, r8
    21cc:	11 97       	sbiw	r26, 0x01	; 1
    21ce:	d7 01       	movw	r26, r14
    21d0:	8c 91       	ld	r24, X
    21d2:	82 83       	std	Z+2, r24	; 0x02
    21d4:	13 82       	std	Z+3, r1	; 0x03
    21d6:	0e 94 a6 13 	call	0x274c	; 0x274c <rprintf>
    21da:	0f 90       	pop	r0
    21dc:	0f 90       	pop	r0
    21de:	0f 90       	pop	r0
    21e0:	0f 90       	pop	r0
    21e2:	20 91 d8 03 	lds	r18, 0x03D8
    21e6:	df cf       	rjmp	.-66     	; 0x21a6 <main+0x5a6>
						put_char(z);
				 break;	
				//************************************************************************************************************
				 case 30:		//read byte
							//wait for byte(x)
					y = RX_get_byte();		
    21e8:	0e 94 cb 05 	call	0xb96	; 0xb96 <RX_get_byte>
    21ec:	18 2f       	mov	r17, r24
							
					
							//wait for byte(side)
					z = RX_get_byte();		
    21ee:	0e 94 cb 05 	call	0xb96	; 0xb96 <RX_get_byte>
    21f2:	68 2f       	mov	r22, r24
							
			
					temp= read_byte(y,z);
    21f4:	81 2f       	mov	r24, r17
    21f6:	0e 94 c7 0a 	call	0x158e	; 0x158e <read_byte>
    21fa:	98 2f       	mov	r25, r24
					
					if(debug_msg==2)
    21fc:	20 91 d8 03 	lds	r18, 0x03D8
    2200:	22 30       	cpi	r18, 0x02	; 2
    2202:	09 f4       	brne	.+2      	; 0x2206 <main+0x606>
    2204:	4b c2       	rjmp	.+1174   	; 0x269c <main+0xa9c>
}

void put_char(char byte)
{
	/* Wait for empty transmit buffer */
	while ( !( UCSR0A & (1<<UDRE0)) );
    2206:	80 91 c0 00 	lds	r24, 0x00C0
    220a:	85 ff       	sbrs	r24, 5
    220c:	fc cf       	rjmp	.-8      	; 0x2206 <main+0x606>
	/* Put data into buffer, sends the data */
	UDR0 = byte;
    220e:	90 93 c6 00 	sts	0x00C6, r25
    2212:	3d cf       	rjmp	.-390    	; 0x208e <main+0x48e>
					RGB_green = RX_get_byte();		//get new green value							
					RGB_blue = RX_get_byte();		//get new blue value					
				 break;	
				//************************************************************************************************************
				 case 35:		//get button values
					put_char(buttons);
    2214:	90 91 dc 03 	lds	r25, 0x03DC
}

void put_char(char byte)
{
	/* Wait for empty transmit buffer */
	while ( !( UCSR0A & (1<<UDRE0)) );
    2218:	80 91 c0 00 	lds	r24, 0x00C0
    221c:	85 ff       	sbrs	r24, 5
    221e:	fc cf       	rjmp	.-8      	; 0x2218 <main+0x618>
	/* Put data into buffer, sends the data */
	UDR0 = byte;
    2220:	90 93 c6 00 	sts	0x00C6, r25
    2224:	32 cf       	rjmp	.-412    	; 0x208a <main+0x48a>
					set_page(y);
				 break;	
				//************************************************************************************************************
				 case 34:		//set rgb value
							//wait for byte
					RGB_red = RX_get_byte();		//get new red value
    2226:	0e 94 cb 05 	call	0xb96	; 0xb96 <RX_get_byte>
    222a:	80 93 3a 01 	sts	0x013A, r24
					RGB_green = RX_get_byte();		//get new green value							
    222e:	0e 94 cb 05 	call	0xb96	; 0xb96 <RX_get_byte>
    2232:	80 93 d9 03 	sts	0x03D9, r24
					RGB_blue = RX_get_byte();		//get new blue value					
    2236:	0e 94 cb 05 	call	0xb96	; 0xb96 <RX_get_byte>
    223a:	80 93 da 03 	sts	0x03DA, r24
    223e:	20 91 d8 03 	lds	r18, 0x03D8
    2242:	25 cf       	rjmp	.-438    	; 0x208e <main+0x48e>
					set_x(y);
				 break;	
				//************************************************************************************************************
				 case 33:		//set page
							//wait for byte
					y = RX_get_byte();		//get new y offset
    2244:	0e 94 cb 05 	call	0xb96	; 0xb96 <RX_get_byte>
							
					
					set_page(y);
    2248:	88 6b       	ori	r24, 0xB8	; 184
    224a:	60 e0       	ldi	r22, 0x00	; 0
    224c:	0e 94 0b 06 	call	0xc16	; 0xc16 <write_command_LCD>
    2250:	20 91 d8 03 	lds	r18, 0x03D8
    2254:	1c cf       	rjmp	.-456    	; 0x208e <main+0x48e>
							put_char(buffer[z]);			
				 break;	
				//************************************************************************************************************
				 case 32:		//set y reg
							//wait for byte
					y = RX_get_byte();		//get new y offset
    2256:	0e 94 cb 05 	call	0xb96	; 0xb96 <RX_get_byte>
							
					
					set_x(y);
    225a:	80 64       	ori	r24, 0x40	; 64
    225c:	60 e0       	ldi	r22, 0x00	; 0
    225e:	0e 94 0b 06 	call	0xc16	; 0xc16 <write_command_LCD>
    2262:	20 91 d8 03 	lds	r18, 0x03D8
    2266:	13 cf       	rjmp	.-474    	; 0x208e <main+0x48e>
					if (y_offset > 127) y_offset = 127;	//coerce y offset to valid range		
				 break;	
				//************************************************************************************************************
 				 case 26:		//write command
							//wait for byte(data)
					y = RX_get_byte();		
    2268:	0e 94 cb 05 	call	0xb96	; 0xb96 <RX_get_byte>
    226c:	18 2f       	mov	r17, r24
							

							//wait for byte(chip # {1,2,3})
					z = RX_get_byte();	
    226e:	0e 94 cb 05 	call	0xb96	; 0xb96 <RX_get_byte>
    2272:	68 2f       	mov	r22, r24
							

					write_command_LCD(y,z);			//write command
    2274:	81 2f       	mov	r24, r17
    2276:	0e 94 0b 06 	call	0xc16	; 0xc16 <write_command_LCD>
    227a:	20 91 d8 03 	lds	r18, 0x03D8
    227e:	07 cf       	rjmp	.-498    	; 0x208e <main+0x48e>
					if (x_offset > 159) x_offset = 159;	//coerce x offset to valid range
				 break;
				//************************************************************************************************************
				 case 25:		//set y_offset
							//wait for byte
					y_offset = RX_get_byte();		//get new y offset
    2280:	0e 94 cb 05 	call	0xb96	; 0xb96 <RX_get_byte>
    2284:	80 93 de 03 	sts	0x03DE, r24
							
					if (y_offset > 127) y_offset = 127;	//coerce y offset to valid range		
    2288:	88 23       	and	r24, r24
    228a:	0c f0       	brlt	.+2      	; 0x228e <main+0x68e>
    228c:	fe ce       	rjmp	.-516    	; 0x208a <main+0x48a>
    228e:	40 92 de 03 	sts	0x03DE, r4
    2292:	20 91 d8 03 	lds	r18, 0x03D8
    2296:	fb ce       	rjmp	.-522    	; 0x208e <main+0x48e>
					
				 break;
				//************************************************************************************************************
				 case 24:		//set x_offset
							//wait for byte
					x_offset = RX_get_byte();		//get new x offset
    2298:	0e 94 cb 05 	call	0xb96	; 0xb96 <RX_get_byte>
    229c:	80 93 dd 03 	sts	0x03DD, r24
							
					if (x_offset > 159) x_offset = 159;	//coerce x offset to valid range
    22a0:	80 3a       	cpi	r24, 0xA0	; 160
    22a2:	08 f4       	brcc	.+2      	; 0x22a6 <main+0x6a6>
    22a4:	f2 ce       	rjmp	.-540    	; 0x208a <main+0x48a>
    22a6:	30 92 dd 03 	sts	0x03DD, r3
    22aa:	20 91 d8 03 	lds	r18, 0x03D8
    22ae:	ef ce       	rjmp	.-546    	; 0x208e <main+0x48e>
					sei();
				 break;	
				//************************************************************************************************************
				 case 22:		//bitblt
						//wait for byte (x coord)
					y = RX_get_byte();	//store it and increment RX_read
    22b0:	0e 94 cb 05 	call	0xb96	; 0xb96 <RX_get_byte>
    22b4:	f8 2e       	mov	r15, r24
 						//wrap if necessary
						
						//wait for byte (y coord)
					z = RX_get_byte();	//store it and increment RX_read
    22b6:	0e 94 cb 05 	call	0xb96	; 0xb96 <RX_get_byte>
    22ba:	e8 2e       	mov	r14, r24
 						//wrap if necessary

						//wait for byte (mode)
					temp = RX_get_byte();	//store it and increment RX_read
    22bc:	0e 94 cb 05 	call	0xb96	; 0xb96 <RX_get_byte>
    22c0:	08 2f       	mov	r16, r24
 						//wrap if necessary

						//wait for byte (width)
					q = RX_get_byte();	//store it and increment RX_read
    22c2:	0e 94 cb 05 	call	0xb96	; 0xb96 <RX_get_byte>
    22c6:	18 2f       	mov	r17, r24
 						//wrap if necessary
					
						//wait for byte (height)
					p = RX_get_byte();	//store it and increment RX_read
    22c8:	0e 94 cb 05 	call	0xb96	; 0xb96 <RX_get_byte>
    22cc:	28 2f       	mov	r18, r24
 						//wrap if necessary

					bitblt(y, z, q, p, temp, NULL);	//calling bitblt with a NULL pointer tells it to take data from the serial port
    22ce:	8f 2d       	mov	r24, r15
    22d0:	6e 2d       	mov	r22, r14
    22d2:	41 2f       	mov	r20, r17
    22d4:	ee 24       	eor	r14, r14
    22d6:	ff 24       	eor	r15, r15
    22d8:	0e 94 26 08 	call	0x104c	; 0x104c <bitblt>
    22dc:	20 91 d8 03 	lds	r18, 0x03D8
    22e0:	d6 ce       	rjmp	.-596    	; 0x208e <main+0x48e>
					EEPROM_write((unsigned int) REV, reverse);
					sei();
				 break;	
				//************************************************************************************************************
				 case 21:	//toggle splash
					splash_screen ^= 1;
    22e2:	60 91 38 01 	lds	r22, 0x0138
    22e6:	62 25       	eor	r22, r2
    22e8:	60 93 38 01 	sts	0x0138, r22
					cli();
    22ec:	f8 94       	cli
					EEPROM_write((unsigned int) SPLASH, splash_screen);
    22ee:	82 e0       	ldi	r24, 0x02	; 2
    22f0:	90 e0       	ldi	r25, 0x00	; 0
    22f2:	0e 94 92 0c 	call	0x1924	; 0x1924 <EEPROM_write>
					sei();
    22f6:	78 94       	sei
    22f8:	20 91 d8 03 	lds	r18, 0x03D8
    22fc:	c8 ce       	rjmp	.-624    	; 0x208e <main+0x48e>
					draw_block(y ,z , temp, q, p);
				 break;
				//************************************************************************************************************
				// ASCII 19 is XOFF so we can't use it for a command
				 case 20:	//reverse mode
					reverse ^= 1;
    22fe:	80 91 d7 03 	lds	r24, 0x03D7
    2302:	82 25       	eor	r24, r2
    2304:	80 93 d7 03 	sts	0x03D7, r24
					clear_screen(1);
    2308:	81 e0       	ldi	r24, 0x01	; 1
    230a:	0e 94 c7 07 	call	0xf8e	; 0xf8e <clear_screen>
					cli();
    230e:	f8 94       	cli
					EEPROM_write((unsigned int) REV, reverse);
    2310:	83 e0       	ldi	r24, 0x03	; 3
    2312:	90 e0       	ldi	r25, 0x00	; 0
    2314:	60 91 d7 03 	lds	r22, 0x03D7
    2318:	0e 94 92 0c 	call	0x1924	; 0x1924 <EEPROM_write>
					sei();
    231c:	78 94       	sei
    231e:	20 91 d8 03 	lds	r18, 0x03D8
    2322:	b5 ce       	rjmp	.-662    	; 0x208e <main+0x48e>
				// ASCII 17 is XON so we can't use it for a command
				 case 18:	//draw filled box
					//need 5 bytes, RX_read already pointing at the first
					
						//wait for byte (x coord of corner1)
					y = RX_get_byte();	//store it and increment RX_read
    2324:	0e 94 cb 05 	call	0xb96	; 0xb96 <RX_get_byte>
    2328:	18 2f       	mov	r17, r24
 						//wrap if necessary
						
						//wait for byte (y coord of corner1)
					z = RX_get_byte();	//store it and increment RX_read
    232a:	0e 94 cb 05 	call	0xb96	; 0xb96 <RX_get_byte>
    232e:	f8 2e       	mov	r15, r24
 						//wrap if necessary

						//wait for byte (x coord of corner2)
					temp = RX_get_byte();	//store it and increment RX_read
    2330:	0e 94 cb 05 	call	0xb96	; 0xb96 <RX_get_byte>
    2334:	e8 2e       	mov	r14, r24
 						//wrap if necessary

						//wait for byte (y coord of corner2)
					q = RX_get_byte();	//store it and increment RX_read
    2336:	0e 94 cb 05 	call	0xb96	; 0xb96 <RX_get_byte>
    233a:	d8 2e       	mov	r13, r24
 						//wrap if necessary
					
						//wait for byte (fill)
					p = RX_get_byte();	//store it and increment RX_read
    233c:	0e 94 cb 05 	call	0xb96	; 0xb96 <RX_get_byte>
    2340:	08 2f       	mov	r16, r24
 						//wrap if necessary


					draw_block(y ,z , temp, q, p);
    2342:	81 2f       	mov	r24, r17
    2344:	6f 2d       	mov	r22, r15
    2346:	4e 2d       	mov	r20, r14
    2348:	2d 2d       	mov	r18, r13
    234a:	0e 94 c0 0c 	call	0x1980	; 0x1980 <draw_block>
    234e:	20 91 d8 03 	lds	r18, 0x03D8
    2352:	9d ce       	rjmp	.-710    	; 0x208e <main+0x48e>
				//************************************************************************************************************
				 case 16:		//set pixel
					//need 3 bytes, RX_read already pointing at the first
					
						//wait for byte (x coord of pixel)
					z = RX_get_byte();	//store it and increment RX_read
    2354:	0e 94 cb 05 	call	0xb96	; 0xb96 <RX_get_byte>
    2358:	08 2f       	mov	r16, r24
 						//wrap if necessary

						//wait for byte (y coord of pixel)d
					temp = RX_get_byte();
    235a:	0e 94 cb 05 	call	0xb96	; 0xb96 <RX_get_byte>
    235e:	18 2f       	mov	r17, r24
 					

						//wait for byte (S_R of pixel)
					q = RX_get_byte();
    2360:	0e 94 cb 05 	call	0xb96	; 0xb96 <RX_get_byte>
 					
					
					pixel(q, z, temp);		//draw the pixel
    2364:	60 2f       	mov	r22, r16
    2366:	41 2f       	mov	r20, r17
    2368:	0e 94 d2 0a 	call	0x15a4	; 0x15a4 <pixel>
    236c:	20 91 d8 03 	lds	r18, 0x03D8
    2370:	8e ce       	rjmp	.-740    	; 0x208e <main+0x48e>
				//************************************************************************************************************
 				 case 15:	//draw box
					//need 4 bytes, RX_read already pointing at the first
					
						//wait for byte (x coord of corner1)
					y = RX_get_byte();	//store it and increment RX_read
    2372:	0e 94 cb 05 	call	0xb96	; 0xb96 <RX_get_byte>
    2376:	08 2f       	mov	r16, r24
 						//wrap if necessary
						
						//wait for byte (y coord of corner1)
					z = RX_get_byte();	//store it and increment RX_read
    2378:	0e 94 cb 05 	call	0xb96	; 0xb96 <RX_get_byte>
    237c:	f8 2e       	mov	r15, r24
 						//wrap if necessary

						//wait for byte (x coord of corner2)
					temp = RX_get_byte();	//store it and increment RX_read
    237e:	0e 94 cb 05 	call	0xb96	; 0xb96 <RX_get_byte>
    2382:	18 2f       	mov	r17, r24
 						//wrap if necessary

						//wait for byte (y coord of corner2)
					q = RX_get_byte();	//store it and increment RX_read
    2384:	0e 94 cb 05 	call	0xb96	; 0xb96 <RX_get_byte>
    2388:	28 2f       	mov	r18, r24
 						//wrap if necessary

					box(y ,z , temp, q);
    238a:	80 2f       	mov	r24, r16
    238c:	6f 2d       	mov	r22, r15
    238e:	41 2f       	mov	r20, r17
    2390:	0e 94 6b 0d 	call	0x1ad6	; 0x1ad6 <box>
    2394:	20 91 d8 03 	lds	r18, 0x03D8
    2398:	7a ce       	rjmp	.-780    	; 0x208e <main+0x48e>
						//send sprite # first 0..(NUM_SPRITES-1), then sprite data
						//sprite format is (char) width (char) height (SPRITE_SIZE-2 char's) data
						//sprite data is in native bitblt format, ie rows of bytes representing 8-pixel high vertical stripes

										//wait for byte (sprite#)
					y = RX_get_byte();					//store it and increment RX_read
    239a:	0e 94 cb 05 	call	0xb96	; 0xb96 <RX_get_byte>
    239e:	8a 30       	cpi	r24, 0x0A	; 10
    23a0:	08 f0       	brcs	.+2      	; 0x23a4 <main+0x7a4>
    23a2:	89 e0       	ldi	r24, 0x09	; 9
    23a4:	a2 e4       	ldi	r26, 0x42	; 66
    23a6:	8a 9f       	mul	r24, r26
    23a8:	70 01       	movw	r14, r0
    23aa:	11 24       	eor	r1, r1
    23ac:	eb e3       	ldi	r30, 0x3B	; 59
    23ae:	f1 e0       	ldi	r31, 0x01	; 1
    23b0:	ee 0e       	add	r14, r30
    23b2:	ff 1e       	adc	r15, r31
    23b4:	00 e0       	ldi	r16, 0x00	; 0
    23b6:	10 e0       	ldi	r17, 0x00	; 0
					count = y * (uint16_t)SPRITE_SIZE;				//offset to sprite data

					 for (count2=0;count2 < (uint16_t)SPRITE_SIZE ;count2++)	//loop for sprite bytes
					 {
										//wait for byte
						sprite[count++] = RX_get_byte();			//store it and increment RX_read
    23b8:	0e 94 cb 05 	call	0xb96	; 0xb96 <RX_get_byte>
    23bc:	d7 01       	movw	r26, r14
    23be:	8d 93       	st	X+, r24
    23c0:	7d 01       	movw	r14, r26
					
					//calculate offset to sprite		

					count = y * (uint16_t)SPRITE_SIZE;				//offset to sprite data

					 for (count2=0;count2 < (uint16_t)SPRITE_SIZE ;count2++)	//loop for sprite bytes
    23c2:	0f 5f       	subi	r16, 0xFF	; 255
    23c4:	1f 4f       	sbci	r17, 0xFF	; 255
    23c6:	02 34       	cpi	r16, 0x42	; 66
    23c8:	11 05       	cpc	r17, r1
    23ca:	b1 f7       	brne	.-20     	; 0x23b8 <main+0x7b8>
    23cc:	5e ce       	rjmp	.-836    	; 0x208a <main+0x48a>
				//************************************************************************************************************
				 case 12:	//line
					//need 5 bytes, RX_read already pointing at the first
					
						//wait for byte (x coord of start)
					y = RX_get_byte();	//store it and increment RX_read
    23ce:	0e 94 cb 05 	call	0xb96	; 0xb96 <RX_get_byte>
    23d2:	18 2f       	mov	r17, r24
 						//wrap if necessary
						
						//wait for byte (y coord of start)
					z = RX_get_byte();	//store it and increment RX_read
    23d4:	0e 94 cb 05 	call	0xb96	; 0xb96 <RX_get_byte>
    23d8:	f8 2e       	mov	r15, r24
 						//wrap if necessary

						//wait for byte (x coord of end)
					temp = RX_get_byte();	//store it and increment RX_read
    23da:	0e 94 cb 05 	call	0xb96	; 0xb96 <RX_get_byte>
    23de:	e8 2e       	mov	r14, r24
 						//wrap if necessary

						//wait for byte (y coord of end)
					q = RX_get_byte();	//store it and increment RX_read
    23e0:	0e 94 cb 05 	call	0xb96	; 0xb96 <RX_get_byte>
    23e4:	08 2f       	mov	r16, r24
 						//wrap if necessary

						//wait for byte (S_R)
					p = RX_get_byte();	//store it and increment RX_read
    23e6:	0e 94 cb 05 	call	0xb96	; 0xb96 <RX_get_byte>
 						//wrap if necessary

					line(p, y ,z , temp, q);
    23ea:	61 2f       	mov	r22, r17
    23ec:	4f 2d       	mov	r20, r15
    23ee:	2e 2d       	mov	r18, r14
    23f0:	0e 94 3d 0b 	call	0x167a	; 0x167a <line>
    23f4:	20 91 d8 03 	lds	r18, 0x03D8
    23f8:	4a ce       	rjmp	.-876    	; 0x208e <main+0x48e>
				}
	
				switch(y)				//switch to which command was sent
				{
				 case 0:	//clear screen
					clear_screen(0);
    23fa:	80 e0       	ldi	r24, 0x00	; 0
    23fc:	0e 94 c7 07 	call	0xf8e	; 0xf8e <clear_screen>
					x_offset=0;
    2400:	10 92 dd 03 	sts	0x03DD, r1
					y_offset=0;
    2404:	10 92 de 03 	sts	0x03DE, r1
    2408:	20 91 d8 03 	lds	r18, 0x03D8
    240c:	40 ce       	rjmp	.-896    	; 0x208e <main+0x48e>
					
				 break;	
				//************************************************************************************************************			
				 case 2:	//set backlight duty cycle
					//wait for byte
					BL_dutycycle = RX_get_byte();		//get char from buffer
    240e:	0e 94 cb 05 	call	0xb96	; 0xb96 <RX_get_byte>
    2412:	80 93 39 01 	sts	0x0139, r24
					
					set_backlight(BL_dutycycle);
    2416:	0e 94 a1 0c 	call	0x1942	; 0x1942 <set_backlight>
					
					cli();
    241a:	f8 94       	cli
					EEPROM_write((unsigned int) BACKLIGHT, BL_dutycycle);
    241c:	81 e0       	ldi	r24, 0x01	; 1
    241e:	90 e0       	ldi	r25, 0x00	; 0
    2420:	60 91 39 01 	lds	r22, 0x0139
    2424:	0e 94 92 0c 	call	0x1924	; 0x1924 <EEPROM_write>
					sei();
    2428:	78 94       	sei
    242a:	20 91 d8 03 	lds	r18, 0x03D8
    242e:	2f ce       	rjmp	.-930    	; 0x208e <main+0x48e>
					y_offset=0;
				 break;	
				//************************************************************************************************************
				 case 1:	//set debug level
								
					debug_msg = RX_get_byte();		//get char from buffer
    2430:	0e 94 cb 05 	call	0xb96	; 0xb96 <RX_get_byte>
    2434:	80 93 d8 03 	sts	0x03D8, r24

					if (debug_msg >2) debug_msg=2;
    2438:	83 30       	cpi	r24, 0x03	; 3
    243a:	18 f0       	brcs	.+6      	; 0x2442 <main+0x842>
    243c:	82 e0       	ldi	r24, 0x02	; 2
    243e:	80 93 d8 03 	sts	0x03D8, r24
					cli();
    2442:	f8 94       	cli
					EEPROM_write((unsigned int) DEBUG, debug_msg);
    2444:	84 e0       	ldi	r24, 0x04	; 4
    2446:	90 e0       	ldi	r25, 0x00	; 0
    2448:	60 91 d8 03 	lds	r22, 0x03D8
    244c:	0e 94 92 0c 	call	0x1924	; 0x1924 <EEPROM_write>
					sei();
    2450:	78 94       	sei
    2452:	20 91 d8 03 	lds	r18, 0x03D8
    2456:	1b ce       	rjmp	.-970    	; 0x208e <main+0x48e>
				 break;	
				//************************************************************************************************************
				 case 11:	//draw_sprite
						
						//wait for byte (x coord)
					y = RX_get_byte();	//store it and increment RX_read
    2458:	0e 94 cb 05 	call	0xb96	; 0xb96 <RX_get_byte>
    245c:	08 2f       	mov	r16, r24
 						//wrap if necessary
						
						//wait for byte (y coord)
					z = RX_get_byte();	//store it and increment RX_read
    245e:	0e 94 cb 05 	call	0xb96	; 0xb96 <RX_get_byte>
    2462:	f8 2e       	mov	r15, r24
 						//wrap if necessary

						//wait for byte (sprite #)
					temp = RX_get_byte();	//store it and increment RX_read
    2464:	0e 94 cb 05 	call	0xb96	; 0xb96 <RX_get_byte>
    2468:	18 2f       	mov	r17, r24
 						//wrap if necessary

						//wait for byte (mode)
					q = RX_get_byte();	//store it and increment RX_read
    246a:	0e 94 cb 05 	call	0xb96	; 0xb96 <RX_get_byte>
    246e:	28 2f       	mov	r18, r24
 						//wrap if necessary
					
					draw_sprite(y,z,temp,q);
    2470:	80 2f       	mov	r24, r16
    2472:	6f 2d       	mov	r22, r15
    2474:	41 2f       	mov	r20, r17
    2476:	0e 94 95 0d 	call	0x1b2a	; 0x1b2a <draw_sprite>
    247a:	20 91 d8 03 	lds	r18, 0x03D8
    247e:	07 ce       	rjmp	.-1010   	; 0x208e <main+0x48e>
				 break;	
				//************************************************************************************************************
				 case 10:	//set font mode

						//wait for byte (x coord of lower left)
					y = RX_get_byte();	//store it and increment RX_read
    2480:	0e 94 cb 05 	call	0xb96	; 0xb96 <RX_get_byte>
 						//wrap if necessary
						
					if (y<0 || y > 7)
						y=7;
					font_mode=y;
    2484:	88 30       	cpi	r24, 0x08	; 8
    2486:	08 f0       	brcs	.+2      	; 0x248a <main+0x88a>
    2488:	87 e0       	ldi	r24, 0x07	; 7
    248a:	80 93 cf 03 	sts	0x03CF, r24
    248e:	20 91 d8 03 	lds	r18, 0x03D8
    2492:	fd cd       	rjmp	.-1030   	; 0x208e <main+0x48e>
					sei();
				 break;	
				//************************************************************************************************************
				 case 8:	//toggle aux font
				
					if (aux_font==1)	//if using aux font, set back to default
    2494:	80 91 df 03 	lds	r24, 0x03DF
    2498:	81 30       	cpi	r24, 0x01	; 1
    249a:	09 f4       	brne	.+2      	; 0x249e <main+0x89e>
    249c:	15 c1       	rjmp	.+554    	; 0x26c8 <main+0xac8>

						font_bytes *= font_w;	//need font_w stacks of rows	
					}
					else			//if using default font, set to aux
					{
						aux_font=1;
    249e:	20 92 df 03 	sts	0x03DF, r2
						font_w = pgm_read_byte(&aux_text_array[0]);	
    24a2:	a9 81       	ldd	r26, Y+1	; 0x01
    24a4:	a0 93 0d 04 	sts	0x040D, r26
						font_h = pgm_read_byte(&aux_text_array[1]);	
    24a8:	ba 81       	ldd	r27, Y+2	; 0x02
    24aa:	b0 93 f0 03 	sts	0x03F0, r27
						font_space = pgm_read_byte(&aux_text_array[2]);
    24ae:	eb 81       	ldd	r30, Y+3	; 0x03
    24b0:	e0 93 0e 05 	sts	0x050E, r30
						font_bytes = font_h/8;	//8 pixels/byte
    24b4:	fc 81       	ldd	r31, Y+4	; 0x04
    24b6:	f0 93 ef 03 	sts	0x03EF, r31
						if (font_h % 8 != 0)
    24ba:	8d 81       	ldd	r24, Y+5	; 0x05
    24bc:	9e 81       	ldd	r25, Y+6	; 0x06
    24be:	89 2b       	or	r24, r25
    24c0:	19 f0       	breq	.+6      	; 0x24c8 <main+0x8c8>
							font_bytes++;	//partial rows count too
    24c2:	9f 81       	ldd	r25, Y+7	; 0x07
    24c4:	90 93 ef 03 	sts	0x03EF, r25
						font_bytes *= font_w;	//need font_w stacks of rows	
    24c8:	80 91 ef 03 	lds	r24, 0x03EF
    24cc:	90 91 0d 04 	lds	r25, 0x040D
    24d0:	89 9f       	mul	r24, r25
    24d2:	80 2d       	mov	r24, r0
    24d4:	11 24       	eor	r1, r1
    24d6:	80 93 ef 03 	sts	0x03EF, r24
    24da:	20 91 d8 03 	lds	r18, 0x03D8
    24de:	d7 cd       	rjmp	.-1106   	; 0x208e <main+0x48e>
					LCD_reset();
				 break;	
				//************************************************************************************************************
				 case 7:	//change baud rate

					y = RX_get_byte();	//store it and increment RX_read
    24e0:	0e 94 cb 05 	call	0xb96	; 0xb96 <RX_get_byte>
    24e4:	98 2f       	mov	r25, r24
										
					if ((y > 0) && (y < 7)) baud_rate = y;
    24e6:	81 50       	subi	r24, 0x01	; 1
    24e8:	86 30       	cpi	r24, 0x06	; 6
    24ea:	10 f4       	brcc	.+4      	; 0x24f0 <main+0x8f0>
    24ec:	90 93 37 01 	sts	0x0137, r25

					
					set_baud(baud_rate);
    24f0:	80 91 37 01 	lds	r24, 0x0137
    24f4:	0e 94 b0 0d 	call	0x1b60	; 0x1b60 <set_baud>
					
					cli();
    24f8:	f8 94       	cli
					EEPROM_write((unsigned int) BPS, baud_rate);
    24fa:	80 e0       	ldi	r24, 0x00	; 0
    24fc:	90 e0       	ldi	r25, 0x00	; 0
    24fe:	60 91 37 01 	lds	r22, 0x0137
    2502:	0e 94 92 0c 	call	0x1924	; 0x1924 <EEPROM_write>
					sei();
    2506:	78 94       	sei
    2508:	20 91 d8 03 	lds	r18, 0x03D8
    250c:	c0 cd       	rjmp	.-1152   	; 0x208e <main+0x48e>
						p=0xff;
					draw_block(y ,z , temp, q, p);
				 break;
				//************************************************************************************************************
				 case 6:	//LCD reset
					LCD_reset();
    250e:	0e 94 db 0d 	call	0x1bb6	; 0x1bb6 <LCD_reset>
    2512:	20 91 d8 03 	lds	r18, 0x03D8
    2516:	bb cd       	rjmp	.-1162   	; 0x208e <main+0x48e>
				//************************************************************************************************************
				 case 5:	//erase block
					//need 4 bytes, RX_read already pointing at the first
					
						//wait for byte (x coord of corner1)
					y = RX_get_byte();	//store it and increment RX_read
    2518:	0e 94 cb 05 	call	0xb96	; 0xb96 <RX_get_byte>
    251c:	e8 2e       	mov	r14, r24
 						//wrap if necessary
						
						//wait for byte (y coord of corner1)
					z = RX_get_byte();	//store it and increment RX_read
    251e:	0e 94 cb 05 	call	0xb96	; 0xb96 <RX_get_byte>
    2522:	f8 2e       	mov	r15, r24
 						//wrap if necessary

						//wait for byte (x coord of corner2)
					temp = RX_get_byte();	//store it and increment RX_read
    2524:	0e 94 cb 05 	call	0xb96	; 0xb96 <RX_get_byte>
    2528:	18 2f       	mov	r17, r24
 						//wrap if necessary

						//wait for byte (y coord of corner2)
					q = RX_get_byte();	//store it and increment RX_read
    252a:	0e 94 cb 05 	call	0xb96	; 0xb96 <RX_get_byte>
    252e:	28 2f       	mov	r18, r24
 						//wrap if necessary

					p=0;				//do erase by drawing a block filled with 0x00
					if (reverse==1)			//if display is reversed, draw a block filled with 0xFF
    2530:	80 91 d7 03 	lds	r24, 0x03D7
    2534:	81 30       	cpi	r24, 0x01	; 1
    2536:	09 f4       	brne	.+2      	; 0x253a <main+0x93a>
    2538:	de c0       	rjmp	.+444    	; 0x26f6 <main+0xaf6>
    253a:	00 e0       	ldi	r16, 0x00	; 0
						p=0xff;
					draw_block(y ,z , temp, q, p);
    253c:	8e 2d       	mov	r24, r14
    253e:	6f 2d       	mov	r22, r15
    2540:	41 2f       	mov	r20, r17
    2542:	0e 94 c0 0c 	call	0x1980	; 0x1980 <draw_block>
    2546:	20 91 d8 03 	lds	r18, 0x03D8
    254a:	a1 cd       	rjmp	.-1214   	; 0x208e <main+0x48e>

					circle(q, y, z, temp);
				 break;
				//************************************************************************************************************
				 case 4:	//toggles CR_LF
					if (CR_LF==1)
    254c:	80 91 d0 03 	lds	r24, 0x03D0
    2550:	81 30       	cpi	r24, 0x01	; 1
    2552:	09 f4       	brne	.+2      	; 0x2556 <main+0x956>
    2554:	d2 c0       	rjmp	.+420    	; 0x26fa <main+0xafa>
						CR_LF=0;
					else
						CR_LF=1;
    2556:	20 92 d0 03 	sts	0x03D0, r2
					cli();
    255a:	f8 94       	cli
					EEPROM_write((unsigned int) CRLF, CR_LF);
    255c:	85 e0       	ldi	r24, 0x05	; 5
    255e:	90 e0       	ldi	r25, 0x00	; 0
    2560:	60 91 d0 03 	lds	r22, 0x03D0
    2564:	0e 94 92 0c 	call	0x1924	; 0x1924 <EEPROM_write>
					sei();
    2568:	78 94       	sei
    256a:	20 91 d8 03 	lds	r18, 0x03D8
    256e:	8f cd       	rjmp	.-1250   	; 0x208e <main+0x48e>
				//************************************************************************************************************
				 case 3:	//draw circle
					//need 4 bytes, RX_read already pointing at the first
				
						//wait for byte (x coord of circle)
					y = RX_get_byte();	//get char from buffer
    2570:	0e 94 cb 05 	call	0xb96	; 0xb96 <RX_get_byte>
    2574:	18 2f       	mov	r17, r24
						
						//wait for byte (y coord of circle)
					z = RX_get_byte();	//get char from buffer
    2576:	0e 94 cb 05 	call	0xb96	; 0xb96 <RX_get_byte>
    257a:	08 2f       	mov	r16, r24

						//wait for byte (r of circle)
					temp = RX_get_byte();	//store it and increment RX_read
    257c:	0e 94 cb 05 	call	0xb96	; 0xb96 <RX_get_byte>
    2580:	f8 2e       	mov	r15, r24
 				
						//wait for byte (S_R of circle)
					q = RX_get_byte();	//store it and increment RX_read
    2582:	0e 94 cb 05 	call	0xb96	; 0xb96 <RX_get_byte>

					circle(q, y, z, temp);
    2586:	61 2f       	mov	r22, r17
    2588:	70 e0       	ldi	r23, 0x00	; 0
    258a:	40 2f       	mov	r20, r16
    258c:	50 e0       	ldi	r21, 0x00	; 0
    258e:	2f 2d       	mov	r18, r15
    2590:	30 e0       	ldi	r19, 0x00	; 0
    2592:	0e 94 ec 0b 	call	0x17d8	; 0x17d8 <circle>
    2596:	20 91 d8 03 	lds	r18, 0x03D8
    259a:	79 cd       	rjmp	.-1294   	; 0x208e <main+0x48e>
					put_char(x);	//if ASCII debug, echo characters typed
			 break;
			
			 case 13:			//CR, reset to start of row

				x_offset = x_offset % (font_w+font_space);
    259c:	80 91 0e 05 	lds	r24, 0x050E
    25a0:	60 91 0d 04 	lds	r22, 0x040D
    25a4:	70 e0       	ldi	r23, 0x00	; 0
    25a6:	68 0f       	add	r22, r24
    25a8:	71 1d       	adc	r23, r1
    25aa:	80 91 dd 03 	lds	r24, 0x03DD
    25ae:	90 e0       	ldi	r25, 0x00	; 0
    25b0:	0e 94 1a 15 	call	0x2a34	; 0x2a34 <__divmodhi4>
    25b4:	80 93 dd 03 	sts	0x03DD, r24
				if (debug_msg==2)	
    25b8:	90 91 d8 03 	lds	r25, 0x03D8
    25bc:	92 30       	cpi	r25, 0x02	; 2
    25be:	09 f1       	breq	.+66     	; 0x2602 <main+0xa02>
					put_char(x);	//if ASCII debug, echo characters typed

				if (CR_LF==1)
    25c0:	80 91 d0 03 	lds	r24, 0x03D0
    25c4:	81 30       	cpi	r24, 0x01	; 1
    25c6:	09 f0       	breq	.+2      	; 0x25ca <main+0x9ca>
    25c8:	20 cc       	rjmp	.-1984   	; 0x1e0a <main+0x20a>
				{
					if (debug_msg==2)	
    25ca:	92 30       	cpi	r25, 0x02	; 2
    25cc:	09 f1       	breq	.+66     	; 0x2610 <main+0xa10>
						put_char(0x0A);	//if ASCII debug, echo LF as well

					if (y_offset > (64-font_h-font_h))
    25ce:	70 91 de 03 	lds	r23, 0x03DE
    25d2:	60 91 f0 03 	lds	r22, 0x03F0
    25d6:	86 2f       	mov	r24, r22
    25d8:	90 e0       	ldi	r25, 0x00	; 0
    25da:	47 2f       	mov	r20, r23
    25dc:	50 e0       	ldi	r21, 0x00	; 0
    25de:	22 27       	eor	r18, r18
    25e0:	33 27       	eor	r19, r19
    25e2:	28 1b       	sub	r18, r24
    25e4:	39 0b       	sbc	r19, r25
    25e6:	28 1b       	sub	r18, r24
    25e8:	39 0b       	sbc	r19, r25
    25ea:	20 5c       	subi	r18, 0xC0	; 192
    25ec:	3f 4f       	sbci	r19, 0xFF	; 255
    25ee:	24 17       	cp	r18, r20
    25f0:	35 07       	cpc	r19, r21
    25f2:	0c f0       	brlt	.+2      	; 0x25f6 <main+0x9f6>
    25f4:	4b c0       	rjmp	.+150    	; 0x268c <main+0xa8c>
						y_offset = y_offset % font_h;	//this makes sure that the line restarted at the top will overlap the old one
    25f6:	87 2f       	mov	r24, r23
    25f8:	0e 94 0e 15 	call	0x2a1c	; 0x2a1c <__udivmodqi4>
    25fc:	90 93 de 03 	sts	0x03DE, r25
    2600:	04 cc       	rjmp	.-2040   	; 0x1e0a <main+0x20a>
}

void put_char(char byte)
{
	/* Wait for empty transmit buffer */
	while ( !( UCSR0A & (1<<UDRE0)) );
    2602:	80 91 c0 00 	lds	r24, 0x00C0
    2606:	85 ff       	sbrs	r24, 5
    2608:	fc cf       	rjmp	.-8      	; 0x2602 <main+0xa02>
	/* Put data into buffer, sends the data */
	UDR0 = byte;
    260a:	50 92 c6 00 	sts	0x00C6, r5
    260e:	d8 cf       	rjmp	.-80     	; 0x25c0 <main+0x9c0>
}

void put_char(char byte)
{
	/* Wait for empty transmit buffer */
	while ( !( UCSR0A & (1<<UDRE0)) );
    2610:	80 91 c0 00 	lds	r24, 0x00C0
    2614:	85 ff       	sbrs	r24, 5
    2616:	fc cf       	rjmp	.-8      	; 0x2610 <main+0xa10>
	/* Put data into buffer, sends the data */
	UDR0 = byte;
    2618:	c0 92 c6 00 	sts	0x00C6, r12
    261c:	d8 cf       	rjmp	.-80     	; 0x25ce <main+0x9ce>
		{			
			x = RX_get_byte();	
			switch(x)		//switch based on received character
			{
			 case 8:			//backspace
				del_char();
    261e:	0e 94 1e 0d 	call	0x1a3c	; 0x1a3c <del_char>
				if (debug_msg==2)
    2622:	80 91 d8 03 	lds	r24, 0x03D8
    2626:	82 30       	cpi	r24, 0x02	; 2
    2628:	09 f0       	breq	.+2      	; 0x262c <main+0xa2c>
    262a:	ef cb       	rjmp	.-2082   	; 0x1e0a <main+0x20a>
}

void put_char(char byte)
{
	/* Wait for empty transmit buffer */
	while ( !( UCSR0A & (1<<UDRE0)) );
    262c:	80 91 c0 00 	lds	r24, 0x00C0
    2630:	85 ff       	sbrs	r24, 5
    2632:	fc cf       	rjmp	.-8      	; 0x262c <main+0xa2c>
	/* Put data into buffer, sends the data */
	UDR0 = byte;
    2634:	88 e0       	ldi	r24, 0x08	; 8
    2636:	80 93 c6 00 	sts	0x00C6, r24
    263a:	e7 cb       	rjmp	.-2098   	; 0x1e0a <main+0x20a>
				}
			 break;

			 case 10:			//LF move to next row

				if (y_offset > (64-font_h-font_h))
    263c:	70 91 de 03 	lds	r23, 0x03DE
    2640:	60 91 f0 03 	lds	r22, 0x03F0
    2644:	86 2f       	mov	r24, r22
    2646:	90 e0       	ldi	r25, 0x00	; 0
    2648:	47 2f       	mov	r20, r23
    264a:	50 e0       	ldi	r21, 0x00	; 0
    264c:	22 27       	eor	r18, r18
    264e:	33 27       	eor	r19, r19
    2650:	28 1b       	sub	r18, r24
    2652:	39 0b       	sbc	r19, r25
    2654:	28 1b       	sub	r18, r24
    2656:	39 0b       	sbc	r19, r25
    2658:	20 5c       	subi	r18, 0xC0	; 192
    265a:	3f 4f       	sbci	r19, 0xFF	; 255
    265c:	24 17       	cp	r18, r20
    265e:	35 07       	cpc	r19, r21
    2660:	8c f4       	brge	.+34     	; 0x2684 <main+0xa84>
					y_offset = y_offset % font_h;	//this makes sure that the line restarted at the top will overlap the old one
    2662:	87 2f       	mov	r24, r23
    2664:	0e 94 0e 15 	call	0x2a1c	; 0x2a1c <__udivmodqi4>
    2668:	90 93 de 03 	sts	0x03DE, r25
				else 
					y_offset += font_h;
				if (debug_msg==2)
    266c:	80 91 d8 03 	lds	r24, 0x03D8
    2670:	82 30       	cpi	r24, 0x02	; 2
    2672:	09 f0       	breq	.+2      	; 0x2676 <main+0xa76>
    2674:	ca cb       	rjmp	.-2156   	; 0x1e0a <main+0x20a>
}

void put_char(char byte)
{
	/* Wait for empty transmit buffer */
	while ( !( UCSR0A & (1<<UDRE0)) );
    2676:	80 91 c0 00 	lds	r24, 0x00C0
    267a:	85 ff       	sbrs	r24, 5
    267c:	fc cf       	rjmp	.-8      	; 0x2676 <main+0xa76>
	/* Put data into buffer, sends the data */
	UDR0 = byte;
    267e:	c0 92 c6 00 	sts	0x00C6, r12
    2682:	c3 cb       	rjmp	.-2170   	; 0x1e0a <main+0x20a>
			 case 10:			//LF move to next row

				if (y_offset > (64-font_h-font_h))
					y_offset = y_offset % font_h;	//this makes sure that the line restarted at the top will overlap the old one
				else 
					y_offset += font_h;
    2684:	67 0f       	add	r22, r23
    2686:	60 93 de 03 	sts	0x03DE, r22
    268a:	f0 cf       	rjmp	.-32     	; 0x266c <main+0xa6c>
						put_char(0x0A);	//if ASCII debug, echo LF as well

					if (y_offset > (64-font_h-font_h))
						y_offset = y_offset % font_h;	//this makes sure that the line restarted at the top will overlap the old one
					else 
						y_offset += font_h;
    268c:	67 0f       	add	r22, r23
    268e:	60 93 de 03 	sts	0x03DE, r22
    2692:	bb cb       	rjmp	.-2186   	; 0x1e0a <main+0x20a>
					
					//coerce length, there are only 128 pixels across the whole screen
					if (temp>128)
						temp=128;

					for(q=0;q<temp;q++)
    2694:	88 23       	and	r24, r24
    2696:	09 f0       	breq	.+2      	; 0x269a <main+0xa9a>
    2698:	34 cd       	rjmp	.-1432   	; 0x2102 <main+0x502>
    269a:	3f cd       	rjmp	.-1410   	; 0x211a <main+0x51a>
							
			
					temp= read_byte(y,z);
					
					if(debug_msg==2)
						rprintf("%d\n",temp);
    269c:	00 d0       	rcall	.+0      	; 0x269e <main+0xa9e>
    269e:	00 d0       	rcall	.+0      	; 0x26a0 <main+0xaa0>
    26a0:	ed b7       	in	r30, 0x3d	; 61
    26a2:	fe b7       	in	r31, 0x3e	; 62
    26a4:	31 96       	adiw	r30, 0x01	; 1
    26a6:	ad b7       	in	r26, 0x3d	; 61
    26a8:	be b7       	in	r27, 0x3e	; 62
    26aa:	12 96       	adiw	r26, 0x02	; 2
    26ac:	9c 92       	st	X, r9
    26ae:	8e 92       	st	-X, r8
    26b0:	11 97       	sbiw	r26, 0x01	; 1
    26b2:	92 83       	std	Z+2, r25	; 0x02
    26b4:	13 82       	std	Z+3, r1	; 0x03
    26b6:	0e 94 a6 13 	call	0x274c	; 0x274c <rprintf>
    26ba:	0f 90       	pop	r0
    26bc:	0f 90       	pop	r0
    26be:	0f 90       	pop	r0
    26c0:	0f 90       	pop	r0
    26c2:	20 91 d8 03 	lds	r18, 0x03D8
    26c6:	e3 cc       	rjmp	.-1594   	; 0x208e <main+0x48e>
				//************************************************************************************************************
				 case 8:	//toggle aux font
				
					if (aux_font==1)	//if using aux font, set back to default
					{
						aux_font=0;
    26c8:	10 92 df 03 	sts	0x03DF, r1
						font_w = pgm_read_byte(&text_array[0]);	
    26cc:	b8 85       	ldd	r27, Y+8	; 0x08
    26ce:	b0 93 0d 04 	sts	0x040D, r27
						font_h = pgm_read_byte(&text_array[1]);	
    26d2:	e9 85       	ldd	r30, Y+9	; 0x09
    26d4:	e0 93 f0 03 	sts	0x03F0, r30
						font_space = pgm_read_byte(&text_array[2]);
    26d8:	fa 85       	ldd	r31, Y+10	; 0x0a
    26da:	f0 93 0e 05 	sts	0x050E, r31
						font_bytes = font_h/8;	//8 pixels/byte
    26de:	2b 85       	ldd	r18, Y+11	; 0x0b
    26e0:	20 93 ef 03 	sts	0x03EF, r18
						if (font_h % 8 != 0)
    26e4:	8c 85       	ldd	r24, Y+12	; 0x0c
    26e6:	9d 85       	ldd	r25, Y+13	; 0x0d
    26e8:	89 2b       	or	r24, r25
    26ea:	09 f4       	brne	.+2      	; 0x26ee <main+0xaee>
    26ec:	ed ce       	rjmp	.-550    	; 0x24c8 <main+0x8c8>
							font_bytes++;	//partial rows count too
    26ee:	9e 85       	ldd	r25, Y+14	; 0x0e
    26f0:	90 93 ef 03 	sts	0x03EF, r25
    26f4:	e9 ce       	rjmp	.-558    	; 0x24c8 <main+0x8c8>
						//wait for byte (y coord of corner2)
					q = RX_get_byte();	//store it and increment RX_read
 						//wrap if necessary

					p=0;				//do erase by drawing a block filled with 0x00
					if (reverse==1)			//if display is reversed, draw a block filled with 0xFF
    26f6:	0f ef       	ldi	r16, 0xFF	; 255
    26f8:	21 cf       	rjmp	.-446    	; 0x253c <main+0x93c>
					circle(q, y, z, temp);
				 break;
				//************************************************************************************************************
				 case 4:	//toggles CR_LF
					if (CR_LF==1)
						CR_LF=0;
    26fa:	10 92 d0 03 	sts	0x03D0, r1
    26fe:	2d cf       	rjmp	.-422    	; 0x255a <main+0x95a>

	
	//Logo==========================================================
	if (splash_screen == 1)
	{
		draw_sprite(56,24,0,4);	//XOR'ing the sprite works in normal and reverse modes
    2700:	88 e3       	ldi	r24, 0x38	; 56
    2702:	68 e1       	ldi	r22, 0x18	; 24
    2704:	40 e0       	ldi	r20, 0x00	; 0
    2706:	24 e0       	ldi	r18, 0x04	; 4
    2708:	0e 94 95 0d 	call	0x1b2a	; 0x1b2a <draw_sprite>
    270c:	ed ca       	rjmp	.-2598   	; 0x1ce8 <main+0xe8>
		EEPROM_write((unsigned int) BPS, 6);
		
		sei();//Enable Interrupts
	}
	
	else (set_baud(baud_rate));
    270e:	80 91 37 01 	lds	r24, 0x0137
    2712:	0e 94 b0 0d 	call	0x1b60	; 0x1b60 <set_baud>
    2716:	1c cb       	rjmp	.-2504   	; 0x1d50 <main+0x150>

00002718 <rprintf_devopen>:

static int (*putcharfunc)(int c);

void rprintf_devopen( int(*put)(int) )
{
   putcharfunc = put;
    2718:	90 93 ee 03 	sts	0x03EE, r25
    271c:	80 93 ed 03 	sts	0x03ED, r24
}
    2720:	08 95       	ret

00002722 <myputchar>:

static void myputchar(unsigned char c)
{
    2722:	1f 93       	push	r17
    2724:	18 2f       	mov	r17, r24
	if(c == '\n') putcharfunc('\r');
    2726:	8a 30       	cpi	r24, 0x0A	; 10
    2728:	49 f0       	breq	.+18     	; 0x273c <myputchar+0x1a>
	putcharfunc(c);
    272a:	e0 91 ed 03 	lds	r30, 0x03ED
    272e:	f0 91 ee 03 	lds	r31, 0x03EE
    2732:	81 2f       	mov	r24, r17
    2734:	90 e0       	ldi	r25, 0x00	; 0
    2736:	09 95       	icall
}
    2738:	1f 91       	pop	r17
    273a:	08 95       	ret
   putcharfunc = put;
}

static void myputchar(unsigned char c)
{
	if(c == '\n') putcharfunc('\r');
    273c:	e0 91 ed 03 	lds	r30, 0x03ED
    2740:	f0 91 ee 03 	lds	r31, 0x03EE
    2744:	8d e0       	ldi	r24, 0x0D	; 13
    2746:	90 e0       	ldi	r25, 0x00	; 0
    2748:	09 95       	icall
    274a:	ef cf       	rjmp	.-34     	; 0x272a <myputchar+0x8>

0000274c <rprintf>:
	putcharfunc(c);
}

void rprintf(char const *format, ...)
{
    274c:	2f 92       	push	r2
    274e:	3f 92       	push	r3
    2750:	4f 92       	push	r4
    2752:	5f 92       	push	r5
    2754:	6f 92       	push	r6
    2756:	7f 92       	push	r7
    2758:	8f 92       	push	r8
    275a:	9f 92       	push	r9
    275c:	af 92       	push	r10
    275e:	bf 92       	push	r11
    2760:	cf 92       	push	r12
    2762:	df 92       	push	r13
    2764:	ef 92       	push	r14
    2766:	ff 92       	push	r15
    2768:	0f 93       	push	r16
    276a:	1f 93       	push	r17
    276c:	df 93       	push	r29
    276e:	cf 93       	push	r28
    2770:	cd b7       	in	r28, 0x3d	; 61
    2772:	de b7       	in	r29, 0x3e	; 62
    2774:	2d 97       	sbiw	r28, 0x0d	; 13
    2776:	0f b6       	in	r0, 0x3f	; 63
    2778:	f8 94       	cli
    277a:	de bf       	out	0x3e, r29	; 62
    277c:	0f be       	out	0x3f, r0	; 63
    277e:	cd bf       	out	0x3d, r28	; 61
    2780:	8e 01       	movw	r16, r28
    2782:	0e 5d       	subi	r16, 0xDE	; 222
    2784:	1f 4f       	sbci	r17, 0xFF	; 255
    2786:	f8 01       	movw	r30, r16
    2788:	21 90       	ld	r2, Z+
    278a:	31 90       	ld	r3, Z+
    278c:	8f 01       	movw	r16, r30
  unsigned char fill;
  unsigned char width;

  va_start (ap, format);
  for (;;){
    while ((format_flag = *(format++)) != '%'){      // Until '%' or '\0' 
    278e:	f1 01       	movw	r30, r2
    2790:	81 91       	ld	r24, Z+
    2792:	1f 01       	movw	r2, r30
    2794:	85 32       	cpi	r24, 0x25	; 37
    2796:	61 f0       	breq	.+24     	; 0x27b0 <rprintf+0x64>
      if (!format_flag){va_end (ap); return;}
    2798:	88 23       	and	r24, r24
    279a:	09 f4       	brne	.+2      	; 0x279e <rprintf+0x52>
    279c:	b3 c0       	rjmp	.+358    	; 0x2904 <rprintf+0x1b8>
      myputchar(format_flag);
    279e:	0e 94 91 13 	call	0x2722	; 0x2722 <myputchar>
    27a2:	28 01       	movw	r4, r16
    27a4:	82 01       	movw	r16, r4
  unsigned char fill;
  unsigned char width;

  va_start (ap, format);
  for (;;){
    while ((format_flag = *(format++)) != '%'){      // Until '%' or '\0' 
    27a6:	f1 01       	movw	r30, r2
    27a8:	81 91       	ld	r24, Z+
    27aa:	1f 01       	movw	r2, r30
    27ac:	85 32       	cpi	r24, 0x25	; 37
    27ae:	a1 f7       	brne	.-24     	; 0x2798 <rprintf+0x4c>
    }

    issigned=0; //default unsigned
    base = 10;

    format_flag = *format++; //get char after '%'
    27b0:	91 91       	ld	r25, Z+
    27b2:	1f 01       	movw	r2, r30

#ifdef PADDING
    width=0; //no formatting
    fill=0;  //no formatting
    if(format_flag=='0' || format_flag==' ') //SPACE or ZERO padding  ?
    27b4:	90 33       	cpi	r25, 0x30	; 48
    27b6:	09 f4       	brne	.+2      	; 0x27ba <rprintf+0x6e>
    27b8:	9a c0       	rjmp	.+308    	; 0x28ee <rprintf+0x1a2>
    27ba:	90 32       	cpi	r25, 0x20	; 32
    27bc:	09 f4       	brne	.+2      	; 0x27c0 <rprintf+0x74>
    27be:	97 c0       	rjmp	.+302    	; 0x28ee <rprintf+0x1a2>
    27c0:	89 2f       	mov	r24, r25
    27c2:	66 24       	eor	r6, r6
    27c4:	1d 86       	std	Y+13, r1	; 0x0d
#endif

#ifdef USE_LONG
    islong=0; //default int value
#ifdef USE_UPPER
    if(format_flag=='l' || format_flag=='L') //Long value 
    27c6:	8c 36       	cpi	r24, 0x6C	; 108
    27c8:	41 f1       	breq	.+80     	; 0x281a <rprintf+0xce>
    27ca:	8c 34       	cpi	r24, 0x4C	; 76
    27cc:	31 f1       	breq	.+76     	; 0x281a <rprintf+0xce>
    27ce:	90 e0       	ldi	r25, 0x00	; 0
      islong=1;
      format_flag = *format++; //get char after 'l' or 'L'
     }
#endif

    switch (format_flag)
    27d0:	88 35       	cpi	r24, 0x58	; 88
    27d2:	49 f1       	breq	.+82     	; 0x2826 <rprintf+0xda>
    27d4:	89 35       	cpi	r24, 0x59	; 89
    27d6:	68 f4       	brcc	.+26     	; 0x27f2 <rprintf+0xa6>
    27d8:	89 34       	cpi	r24, 0x49	; 73
    27da:	09 f4       	brne	.+2      	; 0x27de <rprintf+0x92>
    27dc:	b4 c0       	rjmp	.+360    	; 0x2946 <rprintf+0x1fa>
    27de:	8a 34       	cpi	r24, 0x4A	; 74
    27e0:	08 f0       	brcs	.+2      	; 0x27e4 <rprintf+0x98>
    27e2:	01 c1       	rjmp	.+514    	; 0x29e6 <rprintf+0x29a>
    27e4:	83 34       	cpi	r24, 0x43	; 67
    27e6:	71 f0       	breq	.+28     	; 0x2804 <rprintf+0xb8>
    27e8:	84 34       	cpi	r24, 0x44	; 68
    27ea:	09 f4       	brne	.+2      	; 0x27ee <rprintf+0xa2>
    27ec:	ac c0       	rjmp	.+344    	; 0x2946 <rprintf+0x1fa>
    27ee:	28 01       	movw	r4, r16
    27f0:	10 c0       	rjmp	.+32     	; 0x2812 <rprintf+0xc6>
    27f2:	89 36       	cpi	r24, 0x69	; 105
    27f4:	09 f4       	brne	.+2      	; 0x27f8 <rprintf+0xac>
    27f6:	a7 c0       	rjmp	.+334    	; 0x2946 <rprintf+0x1fa>
    27f8:	8a 36       	cpi	r24, 0x6A	; 106
    27fa:	08 f0       	brcs	.+2      	; 0x27fe <rprintf+0xb2>
    27fc:	d5 c0       	rjmp	.+426    	; 0x29a8 <rprintf+0x25c>
    27fe:	83 36       	cpi	r24, 0x63	; 99
    2800:	09 f0       	breq	.+2      	; 0x2804 <rprintf+0xb8>
    2802:	9e c0       	rjmp	.+316    	; 0x2940 <rprintf+0x1f4>
#ifdef USE_CHAR
    case 'c':
#ifdef USE_UPPER
    case 'C':
#endif
      format_flag = va_arg(ap,int);
    2804:	f2 e0       	ldi	r31, 0x02	; 2
    2806:	4f 2e       	mov	r4, r31
    2808:	51 2c       	mov	r5, r1
    280a:	40 0e       	add	r4, r16
    280c:	51 1e       	adc	r5, r17
    280e:	f8 01       	movw	r30, r16
    2810:	80 81       	ld	r24, Z
      // no break -> run into default
#endif

    default:
      myputchar(format_flag);
    2812:	0e 94 91 13 	call	0x2722	; 0x2722 <myputchar>

  va_start (ap, format);
  for (;;){
    while ((format_flag = *(format++)) != '%'){      // Until '%' or '\0' 
      if (!format_flag){va_end (ap); return;}
      myputchar(format_flag);
    2816:	82 01       	movw	r16, r4
    2818:	c6 cf       	rjmp	.-116    	; 0x27a6 <rprintf+0x5a>
#else
    if(format_flag=='l') //Long value 
#endif
     {
      islong=1;
      format_flag = *format++; //get char after 'l' or 'L'
    281a:	f1 01       	movw	r30, r2
    281c:	81 91       	ld	r24, Z+
    281e:	1f 01       	movw	r2, r30
    2820:	91 e0       	ldi	r25, 0x01	; 1
     }
#endif

    switch (format_flag)
    2822:	88 35       	cpi	r24, 0x58	; 88
    2824:	b9 f6       	brne	.-82     	; 0x27d4 <rprintf+0x88>
    2826:	a0 e1       	ldi	r26, 0x10	; 16
    2828:	8a 2e       	mov	r8, r26
    282a:	91 2c       	mov	r9, r1
    282c:	a1 2c       	mov	r10, r1
    282e:	b1 2c       	mov	r11, r1
        u_val = (unsigned long)s_val;
       }
      else //Unsigned types
       {
#ifdef USE_LONG
        if(islong) { u_val = va_arg(ap,unsigned long); }
    2830:	99 23       	and	r25, r25
    2832:	09 f4       	brne	.+2      	; 0x2836 <rprintf+0xea>
    2834:	e5 c0       	rjmp	.+458    	; 0x2a00 <rprintf+0x2b4>
    2836:	44 e0       	ldi	r20, 0x04	; 4
    2838:	44 2e       	mov	r4, r20
    283a:	51 2c       	mov	r5, r1
    283c:	40 0e       	add	r4, r16
    283e:	51 1e       	adc	r5, r17
    2840:	f8 01       	movw	r30, r16
    2842:	c0 80       	ld	r12, Z
    2844:	d1 80       	ldd	r13, Z+1	; 0x01
    2846:	e2 80       	ldd	r14, Z+2	; 0x02
    2848:	f3 80       	ldd	r15, Z+3	; 0x03
        u_val = va_arg(ap,unsigned int);
#endif
       }
    
      ptr = scratch + SCRATCH;
      *--ptr = 0;
    284a:	8e 01       	movw	r16, r28
    284c:	04 5f       	subi	r16, 0xF4	; 244
    284e:	1f 4f       	sbci	r17, 0xFF	; 255
    2850:	1c 86       	std	Y+12, r1	; 0x0c
      do
       {
        char ch = u_val % base + '0';
    2852:	c7 01       	movw	r24, r14
    2854:	b6 01       	movw	r22, r12
    2856:	a5 01       	movw	r20, r10
    2858:	94 01       	movw	r18, r8
    285a:	0e 94 2d 15 	call	0x2a5a	; 0x2a5a <__udivmodsi4>
    285e:	20 e3       	ldi	r18, 0x30	; 48
    2860:	72 2e       	mov	r7, r18
    2862:	76 0e       	add	r7, r22
#ifdef USE_HEX
        if (ch > '9')
    2864:	f9 e3       	ldi	r31, 0x39	; 57
    2866:	f7 15       	cp	r31, r7
    2868:	18 f4       	brcc	.+6      	; 0x2870 <rprintf+0x124>
         {
          ch += 'a' - '9' - 1;
#ifdef USE_UPPERHEX
          ch-=0x20;
    286a:	97 e3       	ldi	r25, 0x37	; 55
    286c:	79 2e       	mov	r7, r25
    286e:	76 0e       	add	r7, r22
#endif
         }
#endif          
        *--ptr = ch;
    2870:	f8 01       	movw	r30, r16
    2872:	72 92       	st	-Z, r7
    2874:	8f 01       	movw	r16, r30
        u_val /= base;
    2876:	c7 01       	movw	r24, r14
    2878:	b6 01       	movw	r22, r12
    287a:	a5 01       	movw	r20, r10
    287c:	94 01       	movw	r18, r8
    287e:	0e 94 2d 15 	call	0x2a5a	; 0x2a5a <__udivmodsi4>
    2882:	c9 01       	movw	r24, r18
    2884:	da 01       	movw	r26, r20
    2886:	6c 01       	movw	r12, r24
    2888:	7d 01       	movw	r14, r26

#ifdef PADDING
        if(width) width--; //calculate number of padding chars
    288a:	fd 85       	ldd	r31, Y+13	; 0x0d
    288c:	ff 23       	and	r31, r31
    288e:	11 f0       	breq	.+4      	; 0x2894 <rprintf+0x148>
    2890:	f1 50       	subi	r31, 0x01	; 1
    2892:	fd 87       	std	Y+13, r31	; 0x0d
#endif
      } while (u_val);
    2894:	00 97       	sbiw	r24, 0x00	; 0
    2896:	a1 05       	cpc	r26, r1
    2898:	b1 05       	cpc	r27, r1
    289a:	d9 f6       	brne	.-74     	; 0x2852 <rprintf+0x106>
    289c:	a8 01       	movw	r20, r16

#ifdef PADDING
     while(width--) *--ptr = fill; //insert padding chars		      
    289e:	2d 85       	ldd	r18, Y+13	; 0x0d
    28a0:	22 23       	and	r18, r18
    28a2:	09 f4       	brne	.+2      	; 0x28a6 <rprintf+0x15a>
    28a4:	b9 c0       	rjmp	.+370    	; 0x2a18 <rprintf+0x2cc>
    28a6:	8d 85       	ldd	r24, Y+13	; 0x0d
    28a8:	81 50       	subi	r24, 0x01	; 1
    28aa:	28 2f       	mov	r18, r24
    28ac:	30 e0       	ldi	r19, 0x00	; 0
    28ae:	01 50       	subi	r16, 0x01	; 1
    28b0:	10 40       	sbci	r17, 0x00	; 0
    28b2:	c8 01       	movw	r24, r16
    28b4:	82 1b       	sub	r24, r18
    28b6:	93 0b       	sbc	r25, r19
    28b8:	0f 5f       	subi	r16, 0xFF	; 255
    28ba:	1f 4f       	sbci	r17, 0xFF	; 255
    28bc:	f8 01       	movw	r30, r16
    28be:	62 92       	st	-Z, r6
    28c0:	8f 01       	movw	r16, r30
    28c2:	e8 17       	cp	r30, r24
    28c4:	f9 07       	cpc	r31, r25
    28c6:	d1 f7       	brne	.-12     	; 0x28bc <rprintf+0x170>
    28c8:	89 01       	movw	r16, r18
    28ca:	00 95       	com	r16
    28cc:	10 95       	com	r17
    28ce:	04 0f       	add	r16, r20
    28d0:	15 1f       	adc	r17, r21
#endif

      while(*ptr) { myputchar(*ptr); ptr++; }
    28d2:	66 20       	and	r6, r6
    28d4:	09 f4       	brne	.+2      	; 0x28d8 <rprintf+0x18c>
    28d6:	66 cf       	rjmp	.-308    	; 0x27a4 <rprintf+0x58>
    28d8:	86 2d       	mov	r24, r6
    28da:	0e 94 91 13 	call	0x2722	; 0x2722 <myputchar>
    28de:	0f 5f       	subi	r16, 0xFF	; 255
    28e0:	1f 4f       	sbci	r17, 0xFF	; 255
    28e2:	f8 01       	movw	r30, r16
    28e4:	60 80       	ld	r6, Z
    28e6:	66 20       	and	r6, r6
    28e8:	b9 f7       	brne	.-18     	; 0x28d8 <rprintf+0x18c>

  va_start (ap, format);
  for (;;){
    while ((format_flag = *(format++)) != '%'){      // Until '%' or '\0' 
      if (!format_flag){va_end (ap); return;}
      myputchar(format_flag);
    28ea:	82 01       	movw	r16, r4
    28ec:	5c cf       	rjmp	.-328    	; 0x27a6 <rprintf+0x5a>
    width=0; //no formatting
    fill=0;  //no formatting
    if(format_flag=='0' || format_flag==' ') //SPACE or ZERO padding  ?
     {
      fill=format_flag;
      format_flag = *format++; //get char after padding char
    28ee:	f1 01       	movw	r30, r2
    28f0:	81 91       	ld	r24, Z+
    28f2:	1f 01       	movw	r2, r30
      if(format_flag>='0' && format_flag<='9')
    28f4:	f8 2f       	mov	r31, r24
    28f6:	f0 53       	subi	r31, 0x30	; 48
    28f8:	fd 87       	std	Y+13, r31	; 0x0d
    28fa:	fa 30       	cpi	r31, 0x0A	; 10
    28fc:	e0 f0       	brcs	.+56     	; 0x2936 <rprintf+0x1ea>
    28fe:	69 2e       	mov	r6, r25
    2900:	1d 86       	std	Y+13, r1	; 0x0d
    2902:	61 cf       	rjmp	.-318    	; 0x27c6 <rprintf+0x7a>
#endif

      while(*ptr) { myputchar(*ptr); ptr++; }
    }
  }
}
    2904:	2d 96       	adiw	r28, 0x0d	; 13
    2906:	0f b6       	in	r0, 0x3f	; 63
    2908:	f8 94       	cli
    290a:	de bf       	out	0x3e, r29	; 62
    290c:	0f be       	out	0x3f, r0	; 63
    290e:	cd bf       	out	0x3d, r28	; 61
    2910:	cf 91       	pop	r28
    2912:	df 91       	pop	r29
    2914:	1f 91       	pop	r17
    2916:	0f 91       	pop	r16
    2918:	ff 90       	pop	r15
    291a:	ef 90       	pop	r14
    291c:	df 90       	pop	r13
    291e:	cf 90       	pop	r12
    2920:	bf 90       	pop	r11
    2922:	af 90       	pop	r10
    2924:	9f 90       	pop	r9
    2926:	8f 90       	pop	r8
    2928:	7f 90       	pop	r7
    292a:	6f 90       	pop	r6
    292c:	5f 90       	pop	r5
    292e:	4f 90       	pop	r4
    2930:	3f 90       	pop	r3
    2932:	2f 90       	pop	r2
    2934:	08 95       	ret
      fill=format_flag;
      format_flag = *format++; //get char after padding char
      if(format_flag>='0' && format_flag<='9')
       {
        width=format_flag-'0';
        format_flag = *format++; //get char after width char
    2936:	f1 01       	movw	r30, r2
    2938:	81 91       	ld	r24, Z+
    293a:	1f 01       	movw	r2, r30
    293c:	69 2e       	mov	r6, r25
    293e:	43 cf       	rjmp	.-378    	; 0x27c6 <rprintf+0x7a>
      islong=1;
      format_flag = *format++; //get char after 'l' or 'L'
     }
#endif

    switch (format_flag)
    2940:	84 36       	cpi	r24, 0x64	; 100
    2942:	09 f0       	breq	.+2      	; 0x2946 <rprintf+0x1fa>
    2944:	54 cf       	rjmp	.-344    	; 0x27ee <rprintf+0xa2>
    CONVERSION_LOOP:

      if(issigned) //Signed types
       {
#ifdef USE_LONG
        if(islong) { s_val = va_arg(ap,long); }
    2946:	99 23       	and	r25, r25
    2948:	b9 f4       	brne	.+46     	; 0x2978 <rprintf+0x22c>
        else { s_val = va_arg(ap,int); }
    294a:	62 e0       	ldi	r22, 0x02	; 2
    294c:	46 2e       	mov	r4, r22
    294e:	51 2c       	mov	r5, r1
    2950:	40 0e       	add	r4, r16
    2952:	51 1e       	adc	r5, r17
    2954:	f8 01       	movw	r30, r16
    2956:	80 81       	ld	r24, Z
    2958:	91 81       	ldd	r25, Z+1	; 0x01
    295a:	7c 01       	movw	r14, r24
    295c:	00 27       	eor	r16, r16
    295e:	f7 fc       	sbrc	r15, 7
    2960:	00 95       	com	r16
    2962:	10 2f       	mov	r17, r16
#else
        s_val = va_arg(ap,int);
#endif

        if(s_val < 0) //Value negativ ?
    2964:	17 fd       	sbrc	r17, 7
    2966:	14 c0       	rjmp	.+40     	; 0x2990 <rprintf+0x244>
         {
          s_val = - s_val; //Make it positiv
          myputchar('-');    //Output sign
         }

        u_val = (unsigned long)s_val;
    2968:	67 01       	movw	r12, r14
    296a:	78 01       	movw	r14, r16
    296c:	5a e0       	ldi	r21, 0x0A	; 10
    296e:	85 2e       	mov	r8, r21
    2970:	91 2c       	mov	r9, r1
    2972:	a1 2c       	mov	r10, r1
    2974:	b1 2c       	mov	r11, r1
    2976:	69 cf       	rjmp	.-302    	; 0x284a <rprintf+0xfe>
    CONVERSION_LOOP:

      if(issigned) //Signed types
       {
#ifdef USE_LONG
        if(islong) { s_val = va_arg(ap,long); }
    2978:	74 e0       	ldi	r23, 0x04	; 4
    297a:	47 2e       	mov	r4, r23
    297c:	51 2c       	mov	r5, r1
    297e:	40 0e       	add	r4, r16
    2980:	51 1e       	adc	r5, r17
    2982:	f8 01       	movw	r30, r16
    2984:	e0 80       	ld	r14, Z
    2986:	f1 80       	ldd	r15, Z+1	; 0x01
    2988:	02 81       	ldd	r16, Z+2	; 0x02
    298a:	13 81       	ldd	r17, Z+3	; 0x03
        else { s_val = va_arg(ap,int); }
#else
        s_val = va_arg(ap,int);
#endif

        if(s_val < 0) //Value negativ ?
    298c:	17 ff       	sbrs	r17, 7
    298e:	ec cf       	rjmp	.-40     	; 0x2968 <rprintf+0x21c>
         {
          s_val = - s_val; //Make it positiv
    2990:	10 95       	com	r17
    2992:	00 95       	com	r16
    2994:	f0 94       	com	r15
    2996:	e0 94       	com	r14
    2998:	e1 1c       	adc	r14, r1
    299a:	f1 1c       	adc	r15, r1
    299c:	01 1d       	adc	r16, r1
    299e:	11 1d       	adc	r17, r1
          myputchar('-');    //Output sign
    29a0:	8d e2       	ldi	r24, 0x2D	; 45
    29a2:	0e 94 91 13 	call	0x2722	; 0x2722 <myputchar>
    29a6:	e0 cf       	rjmp	.-64     	; 0x2968 <rprintf+0x21c>
      islong=1;
      format_flag = *format++; //get char after 'l' or 'L'
     }
#endif

    switch (format_flag)
    29a8:	85 37       	cpi	r24, 0x75	; 117
    29aa:	11 f1       	breq	.+68     	; 0x29f0 <rprintf+0x2a4>
    29ac:	88 37       	cpi	r24, 0x78	; 120
    29ae:	09 f4       	brne	.+2      	; 0x29b2 <rprintf+0x266>
    29b0:	3a cf       	rjmp	.-396    	; 0x2826 <rprintf+0xda>
    29b2:	83 37       	cpi	r24, 0x73	; 115
    29b4:	09 f0       	breq	.+2      	; 0x29b8 <rprintf+0x26c>
    29b6:	1b cf       	rjmp	.-458    	; 0x27ee <rprintf+0xa2>
#ifdef USE_STRING
#ifdef USE_UPPER
    case 'S':
#endif
    case 's':
      ptr = (unsigned char*)va_arg(ap,char *);
    29b8:	e2 e0       	ldi	r30, 0x02	; 2
    29ba:	4e 2e       	mov	r4, r30
    29bc:	51 2c       	mov	r5, r1
    29be:	40 0e       	add	r4, r16
    29c0:	51 1e       	adc	r5, r17
    29c2:	f8 01       	movw	r30, r16
    29c4:	00 81       	ld	r16, Z
    29c6:	11 81       	ldd	r17, Z+1	; 0x01
      while(*ptr) { myputchar(*ptr); ptr++; }
    29c8:	f8 01       	movw	r30, r16
    29ca:	80 81       	ld	r24, Z
    29cc:	88 23       	and	r24, r24
    29ce:	09 f4       	brne	.+2      	; 0x29d2 <rprintf+0x286>
    29d0:	e9 ce       	rjmp	.-558    	; 0x27a4 <rprintf+0x58>
    29d2:	0e 94 91 13 	call	0x2722	; 0x2722 <myputchar>
    29d6:	0f 5f       	subi	r16, 0xFF	; 255
    29d8:	1f 4f       	sbci	r17, 0xFF	; 255
    29da:	f8 01       	movw	r30, r16
    29dc:	80 81       	ld	r24, Z
    29de:	88 23       	and	r24, r24
    29e0:	c1 f7       	brne	.-16     	; 0x29d2 <rprintf+0x286>

  va_start (ap, format);
  for (;;){
    while ((format_flag = *(format++)) != '%'){      // Until '%' or '\0' 
      if (!format_flag){va_end (ap); return;}
      myputchar(format_flag);
    29e2:	82 01       	movw	r16, r4
    29e4:	e0 ce       	rjmp	.-576    	; 0x27a6 <rprintf+0x5a>
      islong=1;
      format_flag = *format++; //get char after 'l' or 'L'
     }
#endif

    switch (format_flag)
    29e6:	83 35       	cpi	r24, 0x53	; 83
    29e8:	39 f3       	breq	.-50     	; 0x29b8 <rprintf+0x26c>
    29ea:	85 35       	cpi	r24, 0x55	; 85
    29ec:	09 f0       	breq	.+2      	; 0x29f0 <rprintf+0x2a4>
    29ee:	ff ce       	rjmp	.-514    	; 0x27ee <rprintf+0xa2>

#ifdef PADDING
     while(width--) *--ptr = fill; //insert padding chars		      
#endif

      while(*ptr) { myputchar(*ptr); ptr++; }
    29f0:	8a e0       	ldi	r24, 0x0A	; 10
    29f2:	88 2e       	mov	r8, r24
    29f4:	91 2c       	mov	r9, r1
    29f6:	a1 2c       	mov	r10, r1
    29f8:	b1 2c       	mov	r11, r1
        u_val = (unsigned long)s_val;
       }
      else //Unsigned types
       {
#ifdef USE_LONG
        if(islong) { u_val = va_arg(ap,unsigned long); }
    29fa:	99 23       	and	r25, r25
    29fc:	09 f0       	breq	.+2      	; 0x2a00 <rprintf+0x2b4>
    29fe:	1b cf       	rjmp	.-458    	; 0x2836 <rprintf+0xea>
        else { u_val = va_arg(ap,unsigned int); }
    2a00:	32 e0       	ldi	r19, 0x02	; 2
    2a02:	43 2e       	mov	r4, r19
    2a04:	51 2c       	mov	r5, r1
    2a06:	40 0e       	add	r4, r16
    2a08:	51 1e       	adc	r5, r17
    2a0a:	f8 01       	movw	r30, r16
    2a0c:	80 81       	ld	r24, Z
    2a0e:	91 81       	ldd	r25, Z+1	; 0x01
    2a10:	6c 01       	movw	r12, r24
    2a12:	ee 24       	eor	r14, r14
    2a14:	ff 24       	eor	r15, r15
    2a16:	19 cf       	rjmp	.-462    	; 0x284a <rprintf+0xfe>
        if(width) width--; //calculate number of padding chars
#endif
      } while (u_val);

#ifdef PADDING
     while(width--) *--ptr = fill; //insert padding chars		      
    2a18:	67 2c       	mov	r6, r7
    2a1a:	5b cf       	rjmp	.-330    	; 0x28d2 <rprintf+0x186>

00002a1c <__udivmodqi4>:
    2a1c:	99 1b       	sub	r25, r25
    2a1e:	79 e0       	ldi	r23, 0x09	; 9
    2a20:	04 c0       	rjmp	.+8      	; 0x2a2a <__udivmodqi4_ep>

00002a22 <__udivmodqi4_loop>:
    2a22:	99 1f       	adc	r25, r25
    2a24:	96 17       	cp	r25, r22
    2a26:	08 f0       	brcs	.+2      	; 0x2a2a <__udivmodqi4_ep>
    2a28:	96 1b       	sub	r25, r22

00002a2a <__udivmodqi4_ep>:
    2a2a:	88 1f       	adc	r24, r24
    2a2c:	7a 95       	dec	r23
    2a2e:	c9 f7       	brne	.-14     	; 0x2a22 <__udivmodqi4_loop>
    2a30:	80 95       	com	r24
    2a32:	08 95       	ret

00002a34 <__divmodhi4>:
    2a34:	97 fb       	bst	r25, 7
    2a36:	09 2e       	mov	r0, r25
    2a38:	07 26       	eor	r0, r23
    2a3a:	0a d0       	rcall	.+20     	; 0x2a50 <__divmodhi4_neg1>
    2a3c:	77 fd       	sbrc	r23, 7
    2a3e:	04 d0       	rcall	.+8      	; 0x2a48 <__divmodhi4_neg2>
    2a40:	2e d0       	rcall	.+92     	; 0x2a9e <__udivmodhi4>
    2a42:	06 d0       	rcall	.+12     	; 0x2a50 <__divmodhi4_neg1>
    2a44:	00 20       	and	r0, r0
    2a46:	1a f4       	brpl	.+6      	; 0x2a4e <__divmodhi4_exit>

00002a48 <__divmodhi4_neg2>:
    2a48:	70 95       	com	r23
    2a4a:	61 95       	neg	r22
    2a4c:	7f 4f       	sbci	r23, 0xFF	; 255

00002a4e <__divmodhi4_exit>:
    2a4e:	08 95       	ret

00002a50 <__divmodhi4_neg1>:
    2a50:	f6 f7       	brtc	.-4      	; 0x2a4e <__divmodhi4_exit>
    2a52:	90 95       	com	r25
    2a54:	81 95       	neg	r24
    2a56:	9f 4f       	sbci	r25, 0xFF	; 255
    2a58:	08 95       	ret

00002a5a <__udivmodsi4>:
    2a5a:	a1 e2       	ldi	r26, 0x21	; 33
    2a5c:	1a 2e       	mov	r1, r26
    2a5e:	aa 1b       	sub	r26, r26
    2a60:	bb 1b       	sub	r27, r27
    2a62:	fd 01       	movw	r30, r26
    2a64:	0d c0       	rjmp	.+26     	; 0x2a80 <__udivmodsi4_ep>

00002a66 <__udivmodsi4_loop>:
    2a66:	aa 1f       	adc	r26, r26
    2a68:	bb 1f       	adc	r27, r27
    2a6a:	ee 1f       	adc	r30, r30
    2a6c:	ff 1f       	adc	r31, r31
    2a6e:	a2 17       	cp	r26, r18
    2a70:	b3 07       	cpc	r27, r19
    2a72:	e4 07       	cpc	r30, r20
    2a74:	f5 07       	cpc	r31, r21
    2a76:	20 f0       	brcs	.+8      	; 0x2a80 <__udivmodsi4_ep>
    2a78:	a2 1b       	sub	r26, r18
    2a7a:	b3 0b       	sbc	r27, r19
    2a7c:	e4 0b       	sbc	r30, r20
    2a7e:	f5 0b       	sbc	r31, r21

00002a80 <__udivmodsi4_ep>:
    2a80:	66 1f       	adc	r22, r22
    2a82:	77 1f       	adc	r23, r23
    2a84:	88 1f       	adc	r24, r24
    2a86:	99 1f       	adc	r25, r25
    2a88:	1a 94       	dec	r1
    2a8a:	69 f7       	brne	.-38     	; 0x2a66 <__udivmodsi4_loop>
    2a8c:	60 95       	com	r22
    2a8e:	70 95       	com	r23
    2a90:	80 95       	com	r24
    2a92:	90 95       	com	r25
    2a94:	9b 01       	movw	r18, r22
    2a96:	ac 01       	movw	r20, r24
    2a98:	bd 01       	movw	r22, r26
    2a9a:	cf 01       	movw	r24, r30
    2a9c:	08 95       	ret

00002a9e <__udivmodhi4>:
    2a9e:	aa 1b       	sub	r26, r26
    2aa0:	bb 1b       	sub	r27, r27
    2aa2:	51 e1       	ldi	r21, 0x11	; 17
    2aa4:	07 c0       	rjmp	.+14     	; 0x2ab4 <__udivmodhi4_ep>

00002aa6 <__udivmodhi4_loop>:
    2aa6:	aa 1f       	adc	r26, r26
    2aa8:	bb 1f       	adc	r27, r27
    2aaa:	a6 17       	cp	r26, r22
    2aac:	b7 07       	cpc	r27, r23
    2aae:	10 f0       	brcs	.+4      	; 0x2ab4 <__udivmodhi4_ep>
    2ab0:	a6 1b       	sub	r26, r22
    2ab2:	b7 0b       	sbc	r27, r23

00002ab4 <__udivmodhi4_ep>:
    2ab4:	88 1f       	adc	r24, r24
    2ab6:	99 1f       	adc	r25, r25
    2ab8:	5a 95       	dec	r21
    2aba:	a9 f7       	brne	.-22     	; 0x2aa6 <__udivmodhi4_loop>
    2abc:	80 95       	com	r24
    2abe:	90 95       	com	r25
    2ac0:	bc 01       	movw	r22, r24
    2ac2:	cd 01       	movw	r24, r26
    2ac4:	08 95       	ret

00002ac6 <_exit>:
    2ac6:	f8 94       	cli

00002ac8 <__stop_program>:
    2ac8:	ff cf       	rjmp	.-2      	; 0x2ac8 <__stop_program>
