   1               		.file	"main.c"
   2               	__SREG__ = 0x3f
   3               	__SP_H__ = 0x3e
   4               	__SP_L__ = 0x3d
   5               	__CCP__  = 0x34
   6               	__tmp_reg__ = 0
   7               	__zero_reg__ = 1
  15               	.Ltext0:
  16               	.global	__vector_20
  18               	__vector_20:
  19               	.LFB4:
  20               	.LM1:
  21 0000 1F92      		push __zero_reg__
  22 0002 0F92      		push r0
  23 0004 0FB6      		in r0,__SREG__
  24 0006 0F92      		push r0
  25 0008 1124      		clr __zero_reg__
  26 000a 8F93      		push r24
  27 000c 9F93      		push r25
  28 000e EF93      		push r30
  29 0010 FF93      		push r31
  30               	/* prologue: Signal */
  31               	/* frame size = 0 */
  32               	.LM2:
  33               	/* #APP */
  34               	 ;  200 "main.c" 1
  35 0012 F894      		cli
  36               	 ;  0 "" 2
  37               	.LM3:
  38               	/* #NOAPP */
  39 0014 8091 0000 		lds r24,RX_in
  40 0018 9091 C600 		lds r25,198
  41 001c E82F      		mov r30,r24
  42 001e F0E0      		ldi r31,lo8(0)
  43 0020 E050      		subi r30,lo8(-(RX_array))
  44 0022 F040      		sbci r31,hi8(-(RX_array))
  45 0024 9083      		st Z,r25
  46 0026 8F5F      		subi r24,lo8(-(1))
  47 0028 8093 0000 		sts RX_in,r24
  48               	.LM4:
  49 002c 8091 0000 		lds r24,RX_in
  50               	.LM5:
  51 0030 8091 0000 		lds r24,RX_bytes
  52 0034 8F5F      		subi r24,lo8(-(1))
  53 0036 8093 0000 		sts RX_bytes,r24
  54               	.LM6:
  55 003a 8091 0000 		lds r24,RX_bytes
  56 003e 813C      		cpi r24,lo8(-63)
  57 0040 00F0      		brlo .L2
  58               	.LM7:
  59 0042 1798      		cbi 34-32,7
  60               	.LM8:
  61 0044 81E0      		ldi r24,lo8(1)
  62 0046 8093 0000 		sts RX_pause,r24
  63               	.L2:
  64               	.LM9:
  65               	/* #APP */
  66               	 ;  213 "main.c" 1
  67 004a 7894      		sei
  68               	 ;  0 "" 2
  69               	/* epilogue start */
  70               	.LM10:
  71               	/* #NOAPP */
  72 004c FF91      		pop r31
  73 004e EF91      		pop r30
  74 0050 9F91      		pop r25
  75 0052 8F91      		pop r24
  76 0054 0F90      		pop r0
  77 0056 0FBE      		out __SREG__,r0
  78 0058 0F90      		pop r0
  79 005a 1F90      		pop __zero_reg__
  80 005c 1895      		reti
  81               	.LFE4:
  83               	.global	__vector_16
  85               	__vector_16:
  86               	.LFB5:
  87               	.LM11:
  88 005e 1F92      		push __zero_reg__
  89 0060 0F92      		push r0
  90 0062 0FB6      		in r0,__SREG__
  91 0064 0F92      		push r0
  92 0066 1124      		clr __zero_reg__
  93 0068 8F93      		push r24
  94 006a 9F93      		push r25
  95               	/* prologue: Signal */
  96               	/* frame size = 0 */
  97               	.LM12:
  98 006c 15BC      		out 69-32,__zero_reg__
  99               	.LM13:
 100 006e 1092 6E00 		sts 110,__zero_reg__
 101               	.LM14:
 102 0072 82E0      		ldi r24,lo8(2)
 103 0074 85BB      		out 53-32,r24
 104               	.LM15:
 105 0076 16BC      		out 70-32,__zero_reg__
 106               	.LM16:
 107 0078 0399      		sbic 32-32,3
 108 007a 00C0      		rjmp .L9
 109               	.LM17:
 110 007c 139A      		sbi 34-32,3
 111               	.LM18:
 112 007e 8091 0000 		lds r24,BL_dutycycle
 113 0082 87BD      		out 71-32,r24
 114               	.L7:
 115               	.LM19:
 116 0084 82E0      		ldi r24,lo8(2)
 117 0086 8093 6E00 		sts 110,r24
 118               	.LM20:
 119 008a 85BD      		out 69-32,r24
 120               	/* epilogue start */
 121               	.LM21:
 122 008c 9F91      		pop r25
 123 008e 8F91      		pop r24
 124 0090 0F90      		pop r0
 125 0092 0FBE      		out __SREG__,r0
 126 0094 0F90      		pop r0
 127 0096 1F90      		pop __zero_reg__
 128 0098 1895      		reti
 129               	.L9:
 130               	.LM22:
 131 009a 1398      		cbi 34-32,3
 132               	.LM23:
 133 009c 84E6      		ldi r24,lo8(100)
 134 009e 9091 0000 		lds r25,BL_dutycycle
 135 00a2 891B      		sub r24,r25
 136 00a4 87BD      		out 71-32,r24
 137 00a6 00C0      		rjmp .L7
 138               	.LFE5:
 140               	.global	ioinit
 142               	ioinit:
 143               	.LFB7:
 144               	.LM24:
 145               	/* prologue: function */
 146               	/* frame size = 0 */
 147               	.LM25:
 148 00a8 14B8      		out 36-32,__zero_reg__
 149               	.LM26:
 150 00aa 17B8      		out 39-32,__zero_reg__
 151               	.LM27:
 152 00ac 80EF      		ldi r24,lo8(-16)
 153 00ae 82B9      		out 34-32,r24
 154               	.LM28:
 155 00b0 81B9      		out 33-32,r24
 156               	.LM29:
 157 00b2 8EEF      		ldi r24,lo8(-2)
 158 00b4 8AB9      		out 42-32,r24
 159               	.LM30:
 160 00b6 80E2      		ldi r24,lo8(32)
 161 00b8 8BB9      		out 43-32,r24
 162               	.LM31:
 163 00ba 82E0      		ldi r24,lo8(2)
 164 00bc 8093 B100 		sts 177,r24
 165               	.LM32:
 166 00c0 84BD      		out 68-32,r24
 167               	.LM33:
 168 00c2 8093 6E00 		sts 110,r24
 169               	.LM34:
 170 00c6 8091 0000 		lds r24,BL_dutycycle
 171 00ca 87BD      		out 71-32,r24
 172               	/* epilogue start */
 173               	.LM35:
 174 00cc 0895      		ret
 175               	.LFE7:
 177               	.global	delay_us
 179               	delay_us:
 180               	.LFB9:
 181               	.LM36:
 182               	.LVL0:
 183               	/* prologue: function */
 184               	/* frame size = 0 */
 185               	.LM37:
 186 00ce 8823      		tst r24
 187 00d0 01F4      		brne .L13
 188 00d2 9FEF      		ldi r25,lo8(-1)
 189               	.L14:
 190               	.LM38:
 191 00d4 B89A      		sbi 55-32,0
 192               	.LM39:
 193 00d6 9093 B200 		sts 178,r25
 194               	.L15:
 195               	.LM40:
 196 00da B89B      		sbis 55-32,0
 197 00dc 00C0      		rjmp .L15
 198               	.LM41:
 199 00de 8823      		tst r24
 200 00e0 01F0      		breq .L18
 201               	.LM42:
 202 00e2 B89A      		sbi 55-32,0
 203               	.LM43:
 204 00e4 9093 B200 		sts 178,r25
 205               	.L17:
 206               	.LM44:
 207 00e8 B89B      		sbis 55-32,0
 208 00ea 00C0      		rjmp .L17
 209               	.L18:
 210 00ec 0895      		ret
 211               	.L13:
 212               	.LM45:
 213 00ee 982F      		mov r25,r24
 214 00f0 9195      		neg r25
 215 00f2 00C0      		rjmp .L14
 216               	.LFE9:
 218               	.global	delay_ms
 220               	delay_ms:
 221               	.LFB8:
 222               	.LM46:
 223               	.LVL1:
 224 00f4 CF93      		push r28
 225 00f6 DF93      		push r29
 226               	/* prologue: function */
 227               	/* frame size = 0 */
 228 00f8 EC01      		movw r28,r24
 229               	.LM47:
 230 00fa 0097      		sbiw r24,0
 231 00fc 01F0      		breq .L24
 232               	.L25:
 233               	.LM48:
 234 00fe 8AEF      		ldi r24,lo8(-6)
 235               	.LVL2:
 236 0100 0E94 0000 		call delay_us
 237               	.LM49:
 238 0104 8AEF      		ldi r24,lo8(-6)
 239 0106 0E94 0000 		call delay_us
 240               	.LM50:
 241 010a 8AEF      		ldi r24,lo8(-6)
 242 010c 0E94 0000 		call delay_us
 243               	.LM51:
 244 0110 8AEF      		ldi r24,lo8(-6)
 245 0112 0E94 0000 		call delay_us
 246               	.LM52:
 247 0116 2197      		sbiw r28,1
 248 0118 01F4      		brne .L25
 249               	.LVL3:
 250               	.L24:
 251               	/* epilogue start */
 252               	.LM53:
 253 011a DF91      		pop r29
 254 011c CF91      		pop r28
 255               	.LVL4:
 256 011e 0895      		ret
 257               	.LFE8:
 259               	.global	USART_Init
 261               	USART_Init:
 262               	.LFB10:
 263               	.LM54:
 264               	.LVL5:
 265               	/* prologue: function */
 266               	/* frame size = 0 */
 267               	.LM55:
 268 0120 9093 C500 		sts 197,r25
 269               	.LVL6:
 270               	.LM56:
 271 0124 8093 C400 		sts 196,r24
 272               	.LM57:
 273 0128 82E0      		ldi r24,lo8(2)
 274               	.LVL7:
 275 012a 8093 C000 		sts 192,r24
 276               	.LM58:
 277 012e 88E9      		ldi r24,lo8(-104)
 278 0130 8093 C100 		sts 193,r24
 279               	.LM59:
 280 0134 86E0      		ldi r24,lo8(6)
 281 0136 8093 C200 		sts 194,r24
 282               	.LM60:
 283               	/* #APP */
 284               	 ;  1121 "main.c" 1
 285 013a 7894      		sei
 286               	 ;  0 "" 2
 287               	/* epilogue start */
 288               	.LM61:
 289               	/* #NOAPP */
 290 013c 0895      		ret
 291               	.LFE10:
 293               	.global	RX_get_byte
 295               	RX_get_byte:
 296               	.LFB11:
 297               	.LM62:
 298               	/* prologue: function */
 299               	/* frame size = 0 */
 300               	.L30:
 301               	.LM63:
 302 013e 8091 0000 		lds r24,RX_bytes
 303 0142 8823      		tst r24
 304 0144 01F0      		breq .L30
 305               	.LM64:
 306 0146 8091 0000 		lds r24,RX_read
 307 014a 9091 0000 		lds r25,(RX_read)+1
 308 014e FC01      		movw r30,r24
 309 0150 E050      		subi r30,lo8(-(RX_array))
 310 0152 F040      		sbci r31,hi8(-(RX_array))
 311 0154 E081      		ld r30,Z
 312               	.LVL8:
 313 0156 0196      		adiw r24,1
 314 0158 9093 0000 		sts (RX_read)+1,r25
 315 015c 8093 0000 		sts RX_read,r24
 316               	.LM65:
 317 0160 8F3F      		cpi r24,255
 318 0162 9105      		cpc r25,__zero_reg__
 319 0164 01F0      		breq .L31
 320 0166 00F0      		brlo .L31
 321 0168 1092 0000 		sts (RX_read)+1,__zero_reg__
 322 016c 1092 0000 		sts RX_read,__zero_reg__
 323               	.L31:
 324               	.LM66:
 325               	/* #APP */
 326               	 ;  1131 "main.c" 1
 327 0170 F894      		cli
 328               	 ;  0 "" 2
 329               	.LM67:
 330               	/* #NOAPP */
 331 0172 8091 0000 		lds r24,RX_bytes
 332 0176 8150      		subi r24,lo8(-(-1))
 333 0178 8093 0000 		sts RX_bytes,r24
 334               	.LM68:
 335               	/* #APP */
 336               	 ;  1133 "main.c" 1
 337 017c 7894      		sei
 338               	 ;  0 "" 2
 339               	.LM69:
 340               	/* #NOAPP */
 341 017e 8091 0000 		lds r24,RX_pause
 342 0182 8130      		cpi r24,lo8(1)
 343 0184 01F0      		breq .L35
 344               	.L32:
 345               	.LM70:
 346 0186 8E2F      		mov r24,r30
 347               	/* epilogue start */
 348 0188 0895      		ret
 349               	.L35:
 350               	.LM71:
 351 018a 8091 0000 		lds r24,RX_bytes
 352 018e 8034      		cpi r24,lo8(64)
 353 0190 00F4      		brsh .L32
 354               	.LM72:
 355 0192 179A      		sbi 34-32,7
 356               	.LM73:
 357 0194 1092 0000 		sts RX_pause,__zero_reg__
 358 0198 00C0      		rjmp .L32
 359               	.LFE11:
 361               	.global	put_char
 363               	put_char:
 364               	.LFB12:
 365               	.LM74:
 366               	.LVL9:
 367               	/* prologue: function */
 368               	/* frame size = 0 */
 369 019a 982F      		mov r25,r24
 370               	.LVL10:
 371               	.L37:
 372               	.LM75:
 373 019c 8091 C000 		lds r24,192
 374 01a0 85FF      		sbrs r24,5
 375 01a2 00C0      		rjmp .L37
 376               	.LM76:
 377 01a4 9093 C600 		sts 198,r25
 378               	/* epilogue start */
 379               	.LM77:
 380 01a8 0895      		ret
 381               	.LFE12:
 383               	.global	delay
 385               	delay:
 386               	.LFB13:
 387               	.LM78:
 388               	/* prologue: function */
 389               	/* frame size = 0 */
 390               	.LM79:
 391 01aa 80E0      		ldi r24,lo8(0)
 392               	.LVL11:
 393               	.L41:
 394               	.LM80:
 395               	/* #APP */
 396               	 ;  1161 "main.c" 1
 397 01ac 0000      		nop
 398               	 ;  0 "" 2
 399               	.LM81:
 400               	/* #NOAPP */
 401 01ae 8F5F      		subi r24,lo8(-(1))
 402 01b0 8632      		cpi r24,lo8(38)
 403 01b2 01F4      		brne .L41
 404               	/* epilogue start */
 405               	.LM82:
 406 01b4 0895      		ret
 407               	.LFE13:
 409               	.global	write_command_LCD
 411               	write_command_LCD:
 412               	.LFB16:
 413               	.LM83:
 414               	.LVL12:
 415               	/* prologue: function */
 416               	/* frame size = 0 */
 417 01b6 982F      		mov r25,r24
 418               	.LM84:
 419 01b8 8FEF      		ldi r24,lo8(-1)
 420               	.LVL13:
 421 01ba 87B9      		out 39-32,r24
 422               	.LM85:
 423 01bc 6130      		cpi r22,lo8(1)
 424 01be 01F0      		breq .L57
 425               	.LM86:
 426 01c0 6230      		cpi r22,lo8(2)
 427 01c2 01F0      		breq .L58
 428               	.LM87:
 429 01c4 80EE      		ldi r24,lo8(-32)
 430 01c6 8BB9      		out 43-32,r24
 431               	.L46:
 432               	.LM88:
 433 01c8 98B9      		out 40-32,r25
 434 01ca 80E0      		ldi r24,lo8(0)
 435               	.LVL14:
 436               	.L48:
 437               	.LBB101:
 438               	.LBB102:
 439               	.LM89:
 440               	/* #APP */
 441               	 ;  1161 "main.c" 1
 442 01cc 0000      		nop
 443               	 ;  0 "" 2
 444               	.LM90:
 445               	/* #NOAPP */
 446 01ce 8F5F      		subi r24,lo8(-(1))
 447 01d0 8632      		cpi r24,lo8(38)
 448 01d2 01F4      		brne .L48
 449               	.LBE102:
 450               	.LBE101:
 451               	.LM91:
 452 01d4 5A9A      		sbi 43-32,2
 453 01d6 80E0      		ldi r24,lo8(0)
 454               	.LVL15:
 455               	.L49:
 456               	.LBB103:
 457               	.LBB104:
 458               	.LM92:
 459               	/* #APP */
 460               	 ;  1161 "main.c" 1
 461 01d8 0000      		nop
 462               	 ;  0 "" 2
 463               	.LM93:
 464               	/* #NOAPP */
 465 01da 8F5F      		subi r24,lo8(-(1))
 466 01dc 8632      		cpi r24,lo8(38)
 467 01de 01F4      		brne .L49
 468               	.LBE104:
 469               	.LBE103:
 470               	.LM94:
 471 01e0 5A98      		cbi 43-32,2
 472 01e2 80E0      		ldi r24,lo8(0)
 473               	.LVL16:
 474               	.L50:
 475               	.LBB105:
 476               	.LBB106:
 477               	.LM95:
 478               	/* #APP */
 479               	 ;  1161 "main.c" 1
 480 01e4 0000      		nop
 481               	 ;  0 "" 2
 482               	.LM96:
 483               	/* #NOAPP */
 484 01e6 8F5F      		subi r24,lo8(-(1))
 485 01e8 8632      		cpi r24,lo8(38)
 486 01ea 01F4      		brne .L50
 487               	.LBE106:
 488               	.LBE105:
 489               	.LM97:
 490 01ec 80E2      		ldi r24,lo8(32)
 491               	.LVL17:
 492 01ee 8BB9      		out 43-32,r24
 493 01f0 80E0      		ldi r24,lo8(0)
 494               	.LVL18:
 495               	.L51:
 496               	.LBB107:
 497               	.LBB108:
 498               	.LM98:
 499               	/* #APP */
 500               	 ;  1161 "main.c" 1
 501 01f2 0000      		nop
 502               	 ;  0 "" 2
 503               	.LM99:
 504               	/* #NOAPP */
 505 01f4 8F5F      		subi r24,lo8(-(1))
 506 01f6 8632      		cpi r24,lo8(38)
 507 01f8 01F4      		brne .L51
 508               	.LBE108:
 509               	.LBE107:
 510               	.LM100:
 511 01fa 17B8      		out 39-32,__zero_reg__
 512               	/* epilogue start */
 513               	.LM101:
 514 01fc 0895      		ret
 515               	.LVL19:
 516               	.L58:
 517               	.LM102:
 518 01fe 80E6      		ldi r24,lo8(96)
 519 0200 8BB9      		out 43-32,r24
 520 0202 00C0      		rjmp .L46
 521               	.L57:
 522               	.LM103:
 523 0204 80EA      		ldi r24,lo8(-96)
 524 0206 8BB9      		out 43-32,r24
 525 0208 00C0      		rjmp .L46
 526               	.LFE16:
 528               	.global	write_data_LCD
 530               	write_data_LCD:
 531               	.LFB17:
 532               	.LM104:
 533               	.LVL20:
 534               	/* prologue: function */
 535               	/* frame size = 0 */
 536 020a 982F      		mov r25,r24
 537               	.LM105:
 538 020c 8FEF      		ldi r24,lo8(-1)
 539               	.LVL21:
 540 020e 87B9      		out 39-32,r24
 541               	.LM106:
 542 0210 6130      		cpi r22,lo8(1)
 543 0212 01F0      		breq .L72
 544               	.LM107:
 545 0214 6230      		cpi r22,lo8(2)
 546 0216 01F0      		breq .L73
 547               	.LM108:
 548 0218 88EE      		ldi r24,lo8(-24)
 549 021a 8BB9      		out 43-32,r24
 550               	.L61:
 551               	.LM109:
 552 021c 98B9      		out 40-32,r25
 553 021e 80E0      		ldi r24,lo8(0)
 554               	.LVL22:
 555               	.L63:
 556               	.LBB109:
 557               	.LBB110:
 558               	.LM110:
 559               	/* #APP */
 560               	 ;  1161 "main.c" 1
 561 0220 0000      		nop
 562               	 ;  0 "" 2
 563               	.LM111:
 564               	/* #NOAPP */
 565 0222 8F5F      		subi r24,lo8(-(1))
 566 0224 8632      		cpi r24,lo8(38)
 567 0226 01F4      		brne .L63
 568               	.LBE110:
 569               	.LBE109:
 570               	.LM112:
 571 0228 5A9A      		sbi 43-32,2
 572 022a 80E0      		ldi r24,lo8(0)
 573               	.LVL23:
 574               	.L64:
 575               	.LBB111:
 576               	.LBB112:
 577               	.LM113:
 578               	/* #APP */
 579               	 ;  1161 "main.c" 1
 580 022c 0000      		nop
 581               	 ;  0 "" 2
 582               	.LM114:
 583               	/* #NOAPP */
 584 022e 8F5F      		subi r24,lo8(-(1))
 585 0230 8632      		cpi r24,lo8(38)
 586 0232 01F4      		brne .L64
 587               	.LBE112:
 588               	.LBE111:
 589               	.LM115:
 590 0234 5A98      		cbi 43-32,2
 591 0236 80E0      		ldi r24,lo8(0)
 592               	.LVL24:
 593               	.L65:
 594               	.LBB113:
 595               	.LBB114:
 596               	.LM116:
 597               	/* #APP */
 598               	 ;  1161 "main.c" 1
 599 0238 0000      		nop
 600               	 ;  0 "" 2
 601               	.LM117:
 602               	/* #NOAPP */
 603 023a 8F5F      		subi r24,lo8(-(1))
 604 023c 8632      		cpi r24,lo8(38)
 605 023e 01F4      		brne .L65
 606               	.LBE114:
 607               	.LBE113:
 608               	.LM118:
 609 0240 80E2      		ldi r24,lo8(32)
 610               	.LVL25:
 611 0242 8BB9      		out 43-32,r24
 612 0244 80E0      		ldi r24,lo8(0)
 613               	.LVL26:
 614               	.L66:
 615               	.LBB115:
 616               	.LBB116:
 617               	.LM119:
 618               	/* #APP */
 619               	 ;  1161 "main.c" 1
 620 0246 0000      		nop
 621               	 ;  0 "" 2
 622               	.LM120:
 623               	/* #NOAPP */
 624 0248 8F5F      		subi r24,lo8(-(1))
 625 024a 8632      		cpi r24,lo8(38)
 626 024c 01F4      		brne .L66
 627               	.LBE116:
 628               	.LBE115:
 629               	.LM121:
 630 024e 17B8      		out 39-32,__zero_reg__
 631               	/* epilogue start */
 632               	.LM122:
 633 0250 0895      		ret
 634               	.LVL27:
 635               	.L73:
 636               	.LM123:
 637 0252 88E6      		ldi r24,lo8(104)
 638 0254 8BB9      		out 43-32,r24
 639 0256 00C0      		rjmp .L61
 640               	.L72:
 641               	.LM124:
 642 0258 88EA      		ldi r24,lo8(-88)
 643 025a 8BB9      		out 43-32,r24
 644 025c 00C0      		rjmp .L61
 645               	.LFE17:
 647               	.global	write_block
 649               	write_block:
 650               	.LFB18:
 651               	.LM125:
 652               	.LVL28:
 653 025e CF92      		push r12
 654 0260 DF92      		push r13
 655 0262 FF92      		push r15
 656 0264 0F93      		push r16
 657 0266 1F93      		push r17
 658 0268 DF93      		push r29
 659 026a CF93      		push r28
 660 026c 0F92      		push __tmp_reg__
 661 026e CDB7      		in r28,__SP_L__
 662 0270 DEB7      		in r29,__SP_H__
 663               	/* prologue: function */
 664               	/* frame size = 1 */
 665 0272 082F      		mov r16,r24
 666 0274 862F      		mov r24,r22
 667               	.LVL29:
 668 0276 142F      		mov r17,r20
 669 0278 6901      		movw r12,r18
 670               	.LM126:
 671 027a 886B      		ori r24,lo8(-72)
 672 027c 60E0      		ldi r22,lo8(0)
 673               	.LVL30:
 674 027e 0E94 0000 		call write_command_LCD
 675               	.LVL31:
 676               	.LM127:
 677 0282 0034      		cpi r16,lo8(64)
 678 0284 00F0      		brlo .+2
 679 0286 00C0      		rjmp .L75
 680 0288 81E0      		ldi r24,lo8(1)
 681 028a 8983      		std Y+1,r24
 682               	.LVL32:
 683               	.L76:
 684               	.LM128:
 685 028c 40E4      		ldi r20,lo8(64)
 686               	.LVL33:
 687 028e 401B      		sub r20,r16
 688               	.LM129:
 689 0290 4117      		cp r20,r17
 690 0292 00F4      		brsh .+2
 691 0294 00C0      		rjmp .L77
 692 0296 FF24      		clr r15
 693               	.LVL34:
 694               	.L78:
 695               	.LM130:
 696 0298 802F      		mov r24,r16
 697 029a 8064      		ori r24,lo8(64)
 698 029c 60E0      		ldi r22,lo8(0)
 699 029e 0E94 0000 		call write_command_LCD
 700               	.LVL35:
 701               	.LM131:
 702 02a2 8FEF      		ldi r24,lo8(-1)
 703 02a4 87B9      		out 39-32,r24
 704               	.LM132:
 705 02a6 F981      		ldd r31,Y+1
 706 02a8 F130      		cpi r31,lo8(1)
 707 02aa 01F4      		brne .+2
 708 02ac 00C0      		rjmp .L107
 709               	.LM133:
 710 02ae 88E6      		ldi r24,lo8(104)
 711 02b0 8BB9      		out 43-32,r24
 712               	.L82:
 713               	.LM134:
 714 02b2 1123      		tst r17
 715 02b4 01F0      		breq .L81
 716               	.LM135:
 717 02b6 4C2D      		mov r20,r12
 718 02b8 C601      		movw r24,r12
 719               	.LVL36:
 720 02ba FC01      		movw r30,r24
 721               	.L86:
 722               	.LM136:
 723 02bc 8081      		ld r24,Z
 724 02be 88B9      		out 40-32,r24
 725 02c0 80E0      		ldi r24,lo8(0)
 726               	.LVL37:
 727               	.L83:
 728               	.LBB117:
 729               	.LBB118:
 730               	.LM137:
 731               	/* #APP */
 732               	 ;  1161 "main.c" 1
 733 02c2 0000      		nop
 734               	 ;  0 "" 2
 735               	.LM138:
 736               	/* #NOAPP */
 737 02c4 8F5F      		subi r24,lo8(-(1))
 738 02c6 8632      		cpi r24,lo8(38)
 739 02c8 01F4      		brne .L83
 740               	.LBE118:
 741               	.LBE117:
 742               	.LM139:
 743 02ca 5A9A      		sbi 43-32,2
 744 02cc 80E0      		ldi r24,lo8(0)
 745               	.LVL38:
 746               	.L84:
 747               	.LBB119:
 748               	.LBB120:
 749               	.LM140:
 750               	/* #APP */
 751               	 ;  1161 "main.c" 1
 752 02ce 0000      		nop
 753               	 ;  0 "" 2
 754               	.LM141:
 755               	/* #NOAPP */
 756 02d0 8F5F      		subi r24,lo8(-(1))
 757 02d2 8632      		cpi r24,lo8(38)
 758 02d4 01F4      		brne .L84
 759               	.LBE120:
 760               	.LBE119:
 761               	.LM142:
 762 02d6 5A98      		cbi 43-32,2
 763 02d8 80E0      		ldi r24,lo8(0)
 764               	.LVL39:
 765               	.L85:
 766               	.LBB121:
 767               	.LBB122:
 768               	.LM143:
 769               	/* #APP */
 770               	 ;  1161 "main.c" 1
 771 02da 0000      		nop
 772               	 ;  0 "" 2
 773               	.LM144:
 774               	/* #NOAPP */
 775 02dc 8F5F      		subi r24,lo8(-(1))
 776 02de 8632      		cpi r24,lo8(38)
 777 02e0 01F4      		brne .L85
 778 02e2 3196      		adiw r30,1
 779               	.LBE122:
 780               	.LBE121:
 781               	.LM145:
 782 02e4 8E2F      		mov r24,r30
 783               	.LVL40:
 784 02e6 841B      		sub r24,r20
 785 02e8 8117      		cp r24,r17
 786 02ea 00F0      		brlo .L86
 787               	.LVL41:
 788               	.L81:
 789               	.LM146:
 790 02ec 80E2      		ldi r24,lo8(32)
 791 02ee 8BB9      		out 43-32,r24
 792 02f0 80E0      		ldi r24,lo8(0)
 793               	.LVL42:
 794               	.L87:
 795               	.LBB123:
 796               	.LBB124:
 797               	.LM147:
 798               	/* #APP */
 799               	 ;  1161 "main.c" 1
 800 02f2 0000      		nop
 801               	 ;  0 "" 2
 802               	.LM148:
 803               	/* #NOAPP */
 804 02f4 8F5F      		subi r24,lo8(-(1))
 805 02f6 8632      		cpi r24,lo8(38)
 806 02f8 01F4      		brne .L87
 807               	.LBE124:
 808               	.LBE123:
 809               	.LM149:
 810 02fa FF20      		tst r15
 811 02fc 01F4      		brne .L108
 812               	.LVL43:
 813               	.L88:
 814               	.LM150:
 815 02fe 17B8      		out 39-32,__zero_reg__
 816               	/* epilogue start */
 817               	.LM151:
 818 0300 0F90      		pop __tmp_reg__
 819 0302 CF91      		pop r28
 820 0304 DF91      		pop r29
 821 0306 1F91      		pop r17
 822               	.LVL44:
 823 0308 0F91      		pop r16
 824               	.LVL45:
 825 030a FF90      		pop r15
 826               	.LVL46:
 827 030c DF90      		pop r13
 828 030e CF90      		pop r12
 829               	.LVL47:
 830 0310 0895      		ret
 831               	.LVL48:
 832               	.L77:
 833               	.LM152:
 834 0312 F12E      		mov r15,r17
 835               	.LVL49:
 836 0314 F41A      		sub r15,r20
 837 0316 142F      		mov r17,r20
 838               	.LVL50:
 839 0318 00C0      		rjmp .L78
 840               	.LVL51:
 841               	.L75:
 842               	.LM153:
 843 031a 0054      		subi r16,lo8(-(-64))
 844 031c E2E0      		ldi r30,lo8(2)
 845 031e E983      		std Y+1,r30
 846               	.LVL52:
 847 0320 00C0      		rjmp .L76
 848               	.LVL53:
 849               	.L108:
 850               	.LM154:
 851 0322 80E4      		ldi r24,lo8(64)
 852               	.LVL54:
 853 0324 60E0      		ldi r22,lo8(0)
 854 0326 0E94 0000 		call write_command_LCD
 855               	.LM155:
 856 032a 8FEF      		ldi r24,lo8(-1)
 857 032c 87B9      		out 39-32,r24
 858               	.LM156:
 859 032e 8981      		ldd r24,Y+1
 860 0330 8130      		cpi r24,lo8(1)
 861 0332 01F0      		breq .L109
 862               	.LM157:
 863 0334 88EA      		ldi r24,lo8(-88)
 864 0336 8BB9      		out 43-32,r24
 865 0338 90E0      		ldi r25,lo8(0)
 866               	.LVL55:
 867               	.L96:
 868               	.LM158:
 869 033a F601      		movw r30,r12
 870 033c E10F      		add r30,r17
 871 033e F11D      		adc r31,__zero_reg__
 872 0340 8081      		ld r24,Z
 873               	.LVL56:
 874 0342 88B9      		out 40-32,r24
 875 0344 1F5F      		subi r17,lo8(-(1))
 876               	.LVL57:
 877 0346 80E0      		ldi r24,lo8(0)
 878               	.LVL58:
 879               	.L91:
 880               	.LBB125:
 881               	.LBB126:
 882               	.LM159:
 883               	/* #APP */
 884               	 ;  1161 "main.c" 1
 885 0348 0000      		nop
 886               	 ;  0 "" 2
 887               	.LM160:
 888               	/* #NOAPP */
 889 034a 8F5F      		subi r24,lo8(-(1))
 890 034c 8632      		cpi r24,lo8(38)
 891 034e 01F4      		brne .L91
 892               	.LBE126:
 893               	.LBE125:
 894               	.LM161:
 895 0350 5A9A      		sbi 43-32,2
 896 0352 80E0      		ldi r24,lo8(0)
 897               	.LVL59:
 898               	.L92:
 899               	.LBB127:
 900               	.LBB128:
 901               	.LM162:
 902               	/* #APP */
 903               	 ;  1161 "main.c" 1
 904 0354 0000      		nop
 905               	 ;  0 "" 2
 906               	.LM163:
 907               	/* #NOAPP */
 908 0356 8F5F      		subi r24,lo8(-(1))
 909 0358 8632      		cpi r24,lo8(38)
 910 035a 01F4      		brne .L92
 911               	.LBE128:
 912               	.LBE127:
 913               	.LM164:
 914 035c 5A98      		cbi 43-32,2
 915 035e 80E0      		ldi r24,lo8(0)
 916               	.LVL60:
 917               	.L93:
 918               	.LBB129:
 919               	.LBB130:
 920               	.LM165:
 921               	/* #APP */
 922               	 ;  1161 "main.c" 1
 923 0360 0000      		nop
 924               	 ;  0 "" 2
 925               	.LM166:
 926               	/* #NOAPP */
 927 0362 8F5F      		subi r24,lo8(-(1))
 928 0364 8632      		cpi r24,lo8(38)
 929 0366 01F4      		brne .L93
 930               	.LBE130:
 931               	.LBE129:
 932               	.LM167:
 933 0368 9F5F      		subi r25,lo8(-(1))
 934 036a 9F15      		cp r25,r15
 935 036c 00F0      		brlo .L96
 936               	.LM168:
 937 036e 80E2      		ldi r24,lo8(32)
 938               	.LVL61:
 939 0370 8BB9      		out 43-32,r24
 940 0372 80E0      		ldi r24,lo8(0)
 941               	.LVL62:
 942               	.L94:
 943               	.LBB131:
 944               	.LBB132:
 945               	.LM169:
 946               	/* #APP */
 947               	 ;  1161 "main.c" 1
 948 0374 0000      		nop
 949               	 ;  0 "" 2
 950               	.LM170:
 951               	/* #NOAPP */
 952 0376 8F5F      		subi r24,lo8(-(1))
 953 0378 8632      		cpi r24,lo8(38)
 954 037a 01F4      		brne .L94
 955 037c 00C0      		rjmp .L88
 956               	.LVL63:
 957               	.L107:
 958               	.LBE132:
 959               	.LBE131:
 960               	.LM171:
 961 037e 88EA      		ldi r24,lo8(-88)
 962 0380 8BB9      		out 43-32,r24
 963 0382 00C0      		rjmp .L82
 964               	.L109:
 965               	.LM172:
 966 0384 88E6      		ldi r24,lo8(104)
 967 0386 8BB9      		out 43-32,r24
 968 0388 90E0      		ldi r25,lo8(0)
 969               	.LVL64:
 970 038a 00C0      		rjmp .L96
 971               	.LFE18:
 973               	.global	read_data_LCD
 975               	read_data_LCD:
 976               	.LFB19:
 977               	.LM173:
 978               	.LVL65:
 979               	/* prologue: function */
 980               	/* frame size = 0 */
 981               	.LM174:
 982 038c 8130      		cpi r24,lo8(1)
 983 038e 01F0      		breq .L124
 984               	.LM175:
 985 0390 88E7      		ldi r24,lo8(120)
 986               	.LVL66:
 987 0392 8BB9      		out 43-32,r24
 988               	.L112:
 989               	.LM176:
 990 0394 5A9A      		sbi 43-32,2
 991 0396 80E0      		ldi r24,lo8(0)
 992               	.LVL67:
 993               	.L113:
 994               	.LBB133:
 995               	.LBB134:
 996               	.LM177:
 997               	/* #APP */
 998               	 ;  1161 "main.c" 1
 999 0398 0000      		nop
 1000               	 ;  0 "" 2
 1001               	.LM178:
 1002               	/* #NOAPP */
 1003 039a 8F5F      		subi r24,lo8(-(1))
 1004 039c 8632      		cpi r24,lo8(38)
 1005 039e 01F4      		brne .L113
 1006               	.LBE134:
 1007               	.LBE133:
 1008               	.LM179:
 1009 03a0 5A98      		cbi 43-32,2
 1010 03a2 80E0      		ldi r24,lo8(0)
 1011               	.LVL68:
 1012               	.L114:
 1013               	.LBB135:
 1014               	.LBB136:
 1015               	.LM180:
 1016               	/* #APP */
 1017               	 ;  1161 "main.c" 1
 1018 03a4 0000      		nop
 1019               	 ;  0 "" 2
 1020               	.LM181:
 1021               	/* #NOAPP */
 1022 03a6 8F5F      		subi r24,lo8(-(1))
 1023 03a8 8632      		cpi r24,lo8(38)
 1024 03aa 01F4      		brne .L114
 1025               	.LBE136:
 1026               	.LBE135:
 1027               	.LM182:
 1028 03ac 5A9A      		sbi 43-32,2
 1029 03ae 80E0      		ldi r24,lo8(0)
 1030               	.LVL69:
 1031               	.L115:
 1032               	.LBB137:
 1033               	.LBB138:
 1034               	.LM183:
 1035               	/* #APP */
 1036               	 ;  1161 "main.c" 1
 1037 03b0 0000      		nop
 1038               	 ;  0 "" 2
 1039               	.LM184:
 1040               	/* #NOAPP */
 1041 03b2 8F5F      		subi r24,lo8(-(1))
 1042 03b4 8632      		cpi r24,lo8(38)
 1043 03b6 01F4      		brne .L115
 1044               	.LBE138:
 1045               	.LBE137:
 1046               	.LM185:
 1047 03b8 96B1      		in r25,38-32
 1048               	.LVL70:
 1049               	.LM186:
 1050 03ba 5A98      		cbi 43-32,2
 1051 03bc 80E0      		ldi r24,lo8(0)
 1052               	.LVL71:
 1053               	.L116:
 1054               	.LBB139:
 1055               	.LBB140:
 1056               	.LM187:
 1057               	/* #APP */
 1058               	 ;  1161 "main.c" 1
 1059 03be 0000      		nop
 1060               	 ;  0 "" 2
 1061               	.LM188:
 1062               	/* #NOAPP */
 1063 03c0 8F5F      		subi r24,lo8(-(1))
 1064 03c2 8632      		cpi r24,lo8(38)
 1065 03c4 01F4      		brne .L116
 1066               	.LBE140:
 1067               	.LBE139:
 1068               	.LM189:
 1069 03c6 80E2      		ldi r24,lo8(32)
 1070               	.LVL72:
 1071 03c8 8BB9      		out 43-32,r24
 1072 03ca 80E0      		ldi r24,lo8(0)
 1073               	.LVL73:
 1074               	.L117:
 1075               	.LBB141:
 1076               	.LBB142:
 1077               	.LM190:
 1078               	/* #APP */
 1079               	 ;  1161 "main.c" 1
 1080 03cc 0000      		nop
 1081               	 ;  0 "" 2
 1082               	.LM191:
 1083               	/* #NOAPP */
 1084 03ce 8F5F      		subi r24,lo8(-(1))
 1085 03d0 8632      		cpi r24,lo8(38)
 1086 03d2 01F4      		brne .L117
 1087               	.LBE142:
 1088               	.LBE141:
 1089               	.LM192:
 1090 03d4 892F      		mov r24,r25
 1091               	.LVL74:
 1092               	/* epilogue start */
 1093 03d6 0895      		ret
 1094               	.LVL75:
 1095               	.L124:
 1096               	.LM193:
 1097 03d8 88EB      		ldi r24,lo8(-72)
 1098               	.LVL76:
 1099 03da 8BB9      		out 43-32,r24
 1100 03dc 00C0      		rjmp .L112
 1101               	.LFE19:
 1103               	.global	read_block
 1105               	read_block:
 1106               	.LFB20:
 1107               	.LM194:
 1108               	.LVL77:
 1109 03de CF92      		push r12
 1110 03e0 DF92      		push r13
 1111 03e2 FF92      		push r15
 1112 03e4 0F93      		push r16
 1113 03e6 1F93      		push r17
 1114 03e8 DF93      		push r29
 1115 03ea CF93      		push r28
 1116 03ec 0F92      		push __tmp_reg__
 1117 03ee CDB7      		in r28,__SP_L__
 1118 03f0 DEB7      		in r29,__SP_H__
 1119               	/* prologue: function */
 1120               	/* frame size = 1 */
 1121 03f2 082F      		mov r16,r24
 1122 03f4 862F      		mov r24,r22
 1123               	.LVL78:
 1124 03f6 142F      		mov r17,r20
 1125 03f8 6901      		movw r12,r18
 1126               	.LM195:
 1127 03fa 886B      		ori r24,lo8(-72)
 1128 03fc 60E0      		ldi r22,lo8(0)
 1129               	.LVL79:
 1130 03fe 0E94 0000 		call write_command_LCD
 1131               	.LVL80:
 1132               	.LM196:
 1133 0402 0034      		cpi r16,lo8(64)
 1134 0404 00F0      		brlo .+2
 1135 0406 00C0      		rjmp .L126
 1136 0408 81E0      		ldi r24,lo8(1)
 1137 040a 8983      		std Y+1,r24
 1138               	.LVL81:
 1139               	.L127:
 1140               	.LM197:
 1141 040c 40E4      		ldi r20,lo8(64)
 1142               	.LVL82:
 1143 040e 401B      		sub r20,r16
 1144               	.LM198:
 1145 0410 4117      		cp r20,r17
 1146 0412 00F4      		brsh .+2
 1147 0414 00C0      		rjmp .L128
 1148 0416 FF24      		clr r15
 1149               	.LVL83:
 1150               	.LM199:
 1151 0418 802F      		mov r24,r16
 1152 041a 8064      		ori r24,lo8(64)
 1153 041c 60E0      		ldi r22,lo8(0)
 1154 041e 0E94 0000 		call write_command_LCD
 1155               	.LVL84:
 1156               	.LM200:
 1157 0422 F981      		ldd r31,Y+1
 1158 0424 F130      		cpi r31,lo8(1)
 1159 0426 01F4      		brne .+2
 1160 0428 00C0      		rjmp .L162
 1161               	.LVL85:
 1162               	.L130:
 1163               	.LM201:
 1164 042a 88E7      		ldi r24,lo8(120)
 1165 042c 8BB9      		out 43-32,r24
 1166               	.L131:
 1167               	.LM202:
 1168 042e 5A9A      		sbi 43-32,2
 1169 0430 80E0      		ldi r24,lo8(0)
 1170               	.LVL86:
 1171               	.L132:
 1172               	.LBB143:
 1173               	.LBB144:
 1174               	.LM203:
 1175               	/* #APP */
 1176               	 ;  1161 "main.c" 1
 1177 0432 0000      		nop
 1178               	 ;  0 "" 2
 1179               	.LM204:
 1180               	/* #NOAPP */
 1181 0434 8F5F      		subi r24,lo8(-(1))
 1182 0436 8632      		cpi r24,lo8(38)
 1183 0438 01F4      		brne .L132
 1184               	.LBE144:
 1185               	.LBE143:
 1186               	.LM205:
 1187 043a 5A98      		cbi 43-32,2
 1188 043c 80E0      		ldi r24,lo8(0)
 1189               	.LVL87:
 1190               	.L133:
 1191               	.LBB145:
 1192               	.LBB146:
 1193               	.LM206:
 1194               	/* #APP */
 1195               	 ;  1161 "main.c" 1
 1196 043e 0000      		nop
 1197               	 ;  0 "" 2
 1198               	.LM207:
 1199               	/* #NOAPP */
 1200 0440 8F5F      		subi r24,lo8(-(1))
 1201 0442 8632      		cpi r24,lo8(38)
 1202 0444 01F4      		brne .L133
 1203               	.LBE146:
 1204               	.LBE145:
 1205               	.LM208:
 1206 0446 1123      		tst r17
 1207 0448 01F0      		breq .L135
 1208 044a 4C2D      		mov r20,r12
 1209 044c C601      		movw r24,r12
 1210               	.LVL88:
 1211 044e FC01      		movw r30,r24
 1212               	.L138:
 1213               	.LM209:
 1214 0450 5A9A      		sbi 43-32,2
 1215 0452 80E0      		ldi r24,lo8(0)
 1216               	.LVL89:
 1217               	.L136:
 1218               	.LBB147:
 1219               	.LBB148:
 1220               	.LM210:
 1221               	/* #APP */
 1222               	 ;  1161 "main.c" 1
 1223 0454 0000      		nop
 1224               	 ;  0 "" 2
 1225               	.LM211:
 1226               	/* #NOAPP */
 1227 0456 8F5F      		subi r24,lo8(-(1))
 1228 0458 8632      		cpi r24,lo8(38)
 1229 045a 01F4      		brne .L136
 1230               	.LBE148:
 1231               	.LBE147:
 1232               	.LM212:
 1233 045c 86B1      		in r24,38-32
 1234               	.LVL90:
 1235 045e 8083      		st Z,r24
 1236               	.LM213:
 1237 0460 5A98      		cbi 43-32,2
 1238 0462 80E0      		ldi r24,lo8(0)
 1239               	.LVL91:
 1240               	.L137:
 1241               	.LBB149:
 1242               	.LBB150:
 1243               	.LM214:
 1244               	/* #APP */
 1245               	 ;  1161 "main.c" 1
 1246 0464 0000      		nop
 1247               	 ;  0 "" 2
 1248               	.LM215:
 1249               	/* #NOAPP */
 1250 0466 8F5F      		subi r24,lo8(-(1))
 1251 0468 8632      		cpi r24,lo8(38)
 1252 046a 01F4      		brne .L137
 1253 046c 3196      		adiw r30,1
 1254               	.LBE150:
 1255               	.LBE149:
 1256               	.LM216:
 1257 046e 8E2F      		mov r24,r30
 1258               	.LVL92:
 1259 0470 841B      		sub r24,r20
 1260 0472 8117      		cp r24,r17
 1261 0474 00F0      		brlo .L138
 1262               	.LVL93:
 1263               	.L135:
 1264               	.LM217:
 1265 0476 80E2      		ldi r24,lo8(32)
 1266               	.LVL94:
 1267 0478 8BB9      		out 43-32,r24
 1268 047a 80E0      		ldi r24,lo8(0)
 1269               	.LVL95:
 1270               	.L139:
 1271               	.LBB151:
 1272               	.LBB152:
 1273               	.LM218:
 1274               	/* #APP */
 1275               	 ;  1161 "main.c" 1
 1276 047c 0000      		nop
 1277               	 ;  0 "" 2
 1278               	.LM219:
 1279               	/* #NOAPP */
 1280 047e 8F5F      		subi r24,lo8(-(1))
 1281 0480 8632      		cpi r24,lo8(38)
 1282 0482 01F4      		brne .L139
 1283               	.LBE152:
 1284               	.LBE151:
 1285               	.LM220:
 1286 0484 FF20      		tst r15
 1287 0486 01F4      		brne .L163
 1288               	.LVL96:
 1289               	.L149:
 1290               	/* epilogue start */
 1291               	.LM221:
 1292 0488 0F90      		pop __tmp_reg__
 1293 048a CF91      		pop r28
 1294 048c DF91      		pop r29
 1295 048e 1F91      		pop r17
 1296               	.LVL97:
 1297 0490 0F91      		pop r16
 1298               	.LVL98:
 1299 0492 FF90      		pop r15
 1300               	.LVL99:
 1301 0494 DF90      		pop r13
 1302 0496 CF90      		pop r12
 1303               	.LVL100:
 1304 0498 0895      		ret
 1305               	.LVL101:
 1306               	.L128:
 1307               	.LM222:
 1308 049a F12E      		mov r15,r17
 1309               	.LVL102:
 1310 049c F41A      		sub r15,r20
 1311 049e 142F      		mov r17,r20
 1312               	.LVL103:
 1313               	.LM223:
 1314 04a0 802F      		mov r24,r16
 1315 04a2 8064      		ori r24,lo8(64)
 1316 04a4 60E0      		ldi r22,lo8(0)
 1317 04a6 0E94 0000 		call write_command_LCD
 1318               	.LVL104:
 1319               	.LM224:
 1320 04aa F981      		ldd r31,Y+1
 1321 04ac F130      		cpi r31,lo8(1)
 1322 04ae 01F0      		breq .+2
 1323 04b0 00C0      		rjmp .L130
 1324               	.LVL105:
 1325               	.L162:
 1326               	.LM225:
 1327 04b2 88EB      		ldi r24,lo8(-72)
 1328 04b4 8BB9      		out 43-32,r24
 1329 04b6 00C0      		rjmp .L131
 1330               	.LVL106:
 1331               	.L126:
 1332               	.LM226:
 1333 04b8 0054      		subi r16,lo8(-(-64))
 1334 04ba E2E0      		ldi r30,lo8(2)
 1335 04bc E983      		std Y+1,r30
 1336               	.LVL107:
 1337 04be 00C0      		rjmp .L127
 1338               	.LVL108:
 1339               	.L163:
 1340               	.LM227:
 1341 04c0 80E4      		ldi r24,lo8(64)
 1342               	.LVL109:
 1343 04c2 60E0      		ldi r22,lo8(0)
 1344 04c4 0E94 0000 		call write_command_LCD
 1345               	.LM228:
 1346 04c8 8981      		ldd r24,Y+1
 1347 04ca 8130      		cpi r24,lo8(1)
 1348 04cc 01F0      		breq .L164
 1349               	.LM229:
 1350 04ce 88EB      		ldi r24,lo8(-72)
 1351 04d0 8BB9      		out 43-32,r24
 1352               	.L142:
 1353               	.LM230:
 1354 04d2 5A9A      		sbi 43-32,2
 1355 04d4 80E0      		ldi r24,lo8(0)
 1356               	.LVL110:
 1357               	.L143:
 1358               	.LBB153:
 1359               	.LBB154:
 1360               	.LM231:
 1361               	/* #APP */
 1362               	 ;  1161 "main.c" 1
 1363 04d6 0000      		nop
 1364               	 ;  0 "" 2
 1365               	.LM232:
 1366               	/* #NOAPP */
 1367 04d8 8F5F      		subi r24,lo8(-(1))
 1368 04da 8632      		cpi r24,lo8(38)
 1369 04dc 01F4      		brne .L143
 1370               	.LBE154:
 1371               	.LBE153:
 1372               	.LM233:
 1373 04de 5A98      		cbi 43-32,2
 1374 04e0 80E0      		ldi r24,lo8(0)
 1375               	.LVL111:
 1376               	.L144:
 1377               	.LBB155:
 1378               	.LBB156:
 1379               	.LM234:
 1380               	/* #APP */
 1381               	 ;  1161 "main.c" 1
 1382 04e2 0000      		nop
 1383               	 ;  0 "" 2
 1384               	.LM235:
 1385               	/* #NOAPP */
 1386 04e4 8F5F      		subi r24,lo8(-(1))
 1387 04e6 8632      		cpi r24,lo8(38)
 1388 04e8 01F4      		brne .L144
 1389 04ea 90E0      		ldi r25,lo8(0)
 1390               	.LVL112:
 1391               	.L147:
 1392 04ec 292F      		mov r18,r25
 1393 04ee 210F      		add r18,r17
 1394               	.LBE156:
 1395               	.LBE155:
 1396               	.LM236:
 1397 04f0 5A9A      		sbi 43-32,2
 1398 04f2 80E0      		ldi r24,lo8(0)
 1399               	.LVL113:
 1400               	.L145:
 1401               	.LBB157:
 1402               	.LBB158:
 1403               	.LM237:
 1404               	/* #APP */
 1405               	 ;  1161 "main.c" 1
 1406 04f4 0000      		nop
 1407               	 ;  0 "" 2
 1408               	.LM238:
 1409               	/* #NOAPP */
 1410 04f6 8F5F      		subi r24,lo8(-(1))
 1411 04f8 8632      		cpi r24,lo8(38)
 1412 04fa 01F4      		brne .L145
 1413               	.LBE158:
 1414               	.LBE157:
 1415               	.LM239:
 1416 04fc 86B1      		in r24,38-32
 1417               	.LVL114:
 1418 04fe F601      		movw r30,r12
 1419 0500 E20F      		add r30,r18
 1420 0502 F11D      		adc r31,__zero_reg__
 1421 0504 8083      		st Z,r24
 1422               	.LM240:
 1423 0506 5A98      		cbi 43-32,2
 1424 0508 80E0      		ldi r24,lo8(0)
 1425               	.LVL115:
 1426               	.L146:
 1427               	.LBB159:
 1428               	.LBB160:
 1429               	.LM241:
 1430               	/* #APP */
 1431               	 ;  1161 "main.c" 1
 1432 050a 0000      		nop
 1433               	 ;  0 "" 2
 1434               	.LM242:
 1435               	/* #NOAPP */
 1436 050c 8F5F      		subi r24,lo8(-(1))
 1437 050e 8632      		cpi r24,lo8(38)
 1438 0510 01F4      		brne .L146
 1439               	.LBE160:
 1440               	.LBE159:
 1441               	.LM243:
 1442 0512 9F5F      		subi r25,lo8(-(1))
 1443 0514 9F15      		cp r25,r15
 1444 0516 00F0      		brlo .L147
 1445               	.LM244:
 1446 0518 80E2      		ldi r24,lo8(32)
 1447               	.LVL116:
 1448 051a 8BB9      		out 43-32,r24
 1449 051c 80E0      		ldi r24,lo8(0)
 1450               	.LVL117:
 1451               	.L148:
 1452               	.LBB161:
 1453               	.LBB162:
 1454               	.LM245:
 1455               	/* #APP */
 1456               	 ;  1161 "main.c" 1
 1457 051e 0000      		nop
 1458               	 ;  0 "" 2
 1459               	.LM246:
 1460               	/* #NOAPP */
 1461 0520 8F5F      		subi r24,lo8(-(1))
 1462 0522 8632      		cpi r24,lo8(38)
 1463 0524 01F4      		brne .L148
 1464 0526 00C0      		rjmp .L149
 1465               	.LVL118:
 1466               	.L164:
 1467               	.LBE162:
 1468               	.LBE161:
 1469               	.LM247:
 1470 0528 88E7      		ldi r24,lo8(120)
 1471 052a 8BB9      		out 43-32,r24
 1472 052c 00C0      		rjmp .L142
 1473               	.LFE20:
 1475               	.global	clear_screen
 1477               	clear_screen:
 1478               	.LFB14:
 1479               	.LM248:
 1480               	.LVL119:
 1481 052e EF92      		push r14
 1482 0530 FF92      		push r15
 1483 0532 0F93      		push r16
 1484 0534 1F93      		push r17
 1485               	/* prologue: function */
 1486               	/* frame size = 0 */
 1487               	.LM249:
 1488 0536 8823      		tst r24
 1489 0538 01F4      		brne .L166
 1490 053a 10E0      		ldi r17,lo8(0)
 1491               	.LVL120:
 1492               	.LM250:
 1493 053c 0FEF      		ldi r16,lo8(-1)
 1494               	.LM251:
 1495 053e 98EE      		ldi r25,lo8(-24)
 1496 0540 F92E      		mov r15,r25
 1497               	.LM252:
 1498 0542 80E2      		ldi r24,lo8(32)
 1499 0544 E82E      		mov r14,r24
 1500               	.LVL121:
 1501               	.L174:
 1502               	.LM253:
 1503 0546 812F      		mov r24,r17
 1504               	.LVL122:
 1505 0548 886B      		ori r24,lo8(-72)
 1506 054a 60E0      		ldi r22,lo8(0)
 1507 054c 0E94 0000 		call write_command_LCD
 1508               	.LVL123:
 1509               	.LM254:
 1510 0550 80E4      		ldi r24,lo8(64)
 1511 0552 60E0      		ldi r22,lo8(0)
 1512 0554 0E94 0000 		call write_command_LCD
 1513               	.LM255:
 1514 0558 07B9      		out 39-32,r16
 1515               	.LM256:
 1516 055a 8091 0000 		lds r24,reverse
 1517 055e 8130      		cpi r24,lo8(1)
 1518 0560 01F0      		breq .L185
 1519               	.LM257:
 1520 0562 18B8      		out 40-32,__zero_reg__
 1521               	.L168:
 1522               	.LM258:
 1523 0564 FBB8      		out 43-32,r15
 1524 0566 90E0      		ldi r25,lo8(0)
 1525               	.LVL124:
 1526               	.L169:
 1527               	.LM259:
 1528 0568 80E0      		ldi r24,lo8(0)
 1529               	.LVL125:
 1530               	.L170:
 1531               	.LBB163:
 1532               	.LBB164:
 1533               	.LM260:
 1534               	/* #APP */
 1535               	 ;  1161 "main.c" 1
 1536 056a 0000      		nop
 1537               	 ;  0 "" 2
 1538               	.LM261:
 1539               	/* #NOAPP */
 1540 056c 8F5F      		subi r24,lo8(-(1))
 1541 056e 8632      		cpi r24,lo8(38)
 1542 0570 01F4      		brne .L170
 1543               	.LBE164:
 1544               	.LBE163:
 1545               	.LM262:
 1546 0572 5A9A      		sbi 43-32,2
 1547 0574 80E0      		ldi r24,lo8(0)
 1548               	.LVL126:
 1549               	.L171:
 1550               	.LBB165:
 1551               	.LBB166:
 1552               	.LM263:
 1553               	/* #APP */
 1554               	 ;  1161 "main.c" 1
 1555 0576 0000      		nop
 1556               	 ;  0 "" 2
 1557               	.LM264:
 1558               	/* #NOAPP */
 1559 0578 8F5F      		subi r24,lo8(-(1))
 1560 057a 8632      		cpi r24,lo8(38)
 1561 057c 01F4      		brne .L171
 1562               	.LBE166:
 1563               	.LBE165:
 1564               	.LM265:
 1565 057e 5A98      		cbi 43-32,2
 1566 0580 80E0      		ldi r24,lo8(0)
 1567               	.LVL127:
 1568               	.L172:
 1569               	.LBB167:
 1570               	.LBB168:
 1571               	.LM266:
 1572               	/* #APP */
 1573               	 ;  1161 "main.c" 1
 1574 0582 0000      		nop
 1575               	 ;  0 "" 2
 1576               	.LM267:
 1577               	/* #NOAPP */
 1578 0584 8F5F      		subi r24,lo8(-(1))
 1579 0586 8632      		cpi r24,lo8(38)
 1580 0588 01F4      		brne .L172
 1581               	.LBE168:
 1582               	.LBE167:
 1583               	.LM268:
 1584 058a 9F5F      		subi r25,lo8(-(1))
 1585 058c 9034      		cpi r25,lo8(64)
 1586 058e 01F4      		brne .L169
 1587               	.LM269:
 1588 0590 EBB8      		out 43-32,r14
 1589               	.LM270:
 1590 0592 17B8      		out 39-32,__zero_reg__
 1591               	.LM271:
 1592 0594 1092 0000 		sts x_offset,__zero_reg__
 1593               	.LM272:
 1594 0598 1092 0000 		sts y_offset,__zero_reg__
 1595               	.LM273:
 1596 059c 1F5F      		subi r17,lo8(-(1))
 1597 059e 1830      		cpi r17,lo8(8)
 1598 05a0 01F4      		brne .L174
 1599               	.LVL128:
 1600               	.L178:
 1601               	/* epilogue start */
 1602               	.LM274:
 1603 05a2 1F91      		pop r17
 1604               	.LVL129:
 1605 05a4 0F91      		pop r16
 1606 05a6 FF90      		pop r15
 1607 05a8 EF90      		pop r14
 1608 05aa 0895      		ret
 1609               	.LVL130:
 1610               	.L185:
 1611               	.LM275:
 1612 05ac 08B9      		out 40-32,r16
 1613 05ae 00C0      		rjmp .L168
 1614               	.LVL131:
 1615               	.L166:
 1616               	.LM276:
 1617 05b0 10E0      		ldi r17,lo8(0)
 1618               	.LVL132:
 1619               	.L177:
 1620               	.LM277:
 1621 05b2 80E0      		ldi r24,lo8(0)
 1622               	.LVL133:
 1623 05b4 612F      		mov r22,r17
 1624 05b6 40E8      		ldi r20,lo8(-128)
 1625 05b8 20E0      		ldi r18,lo8(buffer)
 1626 05ba 30E0      		ldi r19,hi8(buffer)
 1627 05bc 0E94 0000 		call read_block
 1628 05c0 90E0      		ldi r25,lo8(0)
 1629               	.LVL134:
 1630               	.L176:
 1631               	.LM278:
 1632 05c2 E92F      		mov r30,r25
 1633 05c4 F0E0      		ldi r31,lo8(0)
 1634 05c6 E050      		subi r30,lo8(-(buffer))
 1635 05c8 F040      		sbci r31,hi8(-(buffer))
 1636 05ca 8081      		ld r24,Z
 1637 05cc 8095      		com r24
 1638 05ce 8083      		st Z,r24
 1639               	.LM279:
 1640 05d0 9F5F      		subi r25,lo8(-(1))
 1641 05d2 9038      		cpi r25,lo8(-128)
 1642 05d4 01F4      		brne .L176
 1643               	.LM280:
 1644 05d6 80E0      		ldi r24,lo8(0)
 1645 05d8 612F      		mov r22,r17
 1646 05da 40E8      		ldi r20,lo8(-128)
 1647 05dc 20E0      		ldi r18,lo8(buffer)
 1648 05de 30E0      		ldi r19,hi8(buffer)
 1649 05e0 0E94 0000 		call write_block
 1650               	.LVL135:
 1651               	.LM281:
 1652 05e4 1F5F      		subi r17,lo8(-(1))
 1653 05e6 1830      		cpi r17,lo8(8)
 1654 05e8 01F4      		brne .L177
 1655 05ea 00C0      		rjmp .L178
 1656               	.LFE14:
 1658               	.global	bitblt
 1660               	bitblt:
 1661               	.LFB21:
 1662               	.LM282:
 1663               	.LVL136:
 1664 05ec 2F92      		push r2
 1665 05ee 3F92      		push r3
 1666 05f0 4F92      		push r4
 1667 05f2 5F92      		push r5
 1668 05f4 6F92      		push r6
 1669 05f6 7F92      		push r7
 1670 05f8 8F92      		push r8
 1671 05fa 9F92      		push r9
 1672 05fc AF92      		push r10
 1673 05fe BF92      		push r11
 1674 0600 CF92      		push r12
 1675 0602 DF92      		push r13
 1676 0604 EF92      		push r14
 1677               	.LVL137:
 1678 0606 FF92      		push r15
 1679 0608 0F93      		push r16
 1680               	.LVL138:
 1681 060a 1F93      		push r17
 1682 060c DF93      		push r29
 1683 060e CF93      		push r28
 1684 0610 CDB7      		in r28,__SP_L__
 1685 0612 DEB7      		in r29,__SP_H__
 1686 0614 2E97      		sbiw r28,14
 1687 0616 0FB6      		in __tmp_reg__,__SREG__
 1688 0618 F894      		cli
 1689 061a DEBF      		out __SP_H__,r29
 1690 061c 0FBE      		out __SREG__,__tmp_reg__
 1691 061e CDBF      		out __SP_L__,r28
 1692               	/* prologue: function */
 1693               	/* frame size = 14 */
 1694 0620 8887      		std Y+8,r24
 1695 0622 342E      		mov r3,r20
 1696 0624 A22E      		mov r10,r18
 1697 0626 B02E      		mov r11,r16
 1698               	.LVL139:
 1699 0628 8701      		movw r16,r14
 1700               	.LVL140:
 1701               	.LM283:
 1702 062a 822F      		mov r24,r18
 1703               	.LVL141:
 1704 062c 8150      		subi r24,lo8(-(-1))
 1705 062e 8034      		cpi r24,lo8(64)
 1706 0630 00F0      		brlo .L187
 1707               	.LVL142:
 1708               	.LM284:
 1709 0632 2223      		tst r18
 1710 0634 01F0      		breq .L223
 1711 0636 10E0      		ldi r17,lo8(0)
 1712               	.LVL143:
 1713               	.L189:
 1714               	.LM285:
 1715 0638 3320      		tst r3
 1716 063a 01F0      		breq .L192
 1717               	.LM286:
 1718 063c 00E0      		ldi r16,lo8(0)
 1719               	.LVL144:
 1720               	.L190:
 1721               	.LM287:
 1722 063e 0E94 0000 		call RX_get_byte
 1723               	.LVL145:
 1724               	.LM288:
 1725 0642 0F5F      		subi r16,lo8(-(1))
 1726 0644 0315      		cp r16,r3
 1727 0646 00F0      		brlo .L190
 1728               	.LVL146:
 1729               	.L192:
 1730               	.LM289:
 1731 0648 1F5F      		subi r17,lo8(-(1))
 1732 064a 1A15      		cp r17,r10
 1733 064c 00F0      		brlo .L189
 1734               	.LVL147:
 1735               	.L223:
 1736               	/* epilogue start */
 1737               	.LM290:
 1738 064e 2E96      		adiw r28,14
 1739 0650 0FB6      		in __tmp_reg__,__SREG__
 1740 0652 F894      		cli
 1741 0654 DEBF      		out __SP_H__,r29
 1742 0656 0FBE      		out __SREG__,__tmp_reg__
 1743 0658 CDBF      		out __SP_L__,r28
 1744 065a CF91      		pop r28
 1745 065c DF91      		pop r29
 1746 065e 1F91      		pop r17
 1747               	.LVL148:
 1748 0660 0F91      		pop r16
 1749               	.LVL149:
 1750 0662 FF90      		pop r15
 1751 0664 EF90      		pop r14
 1752               	.LVL150:
 1753 0666 DF90      		pop r13
 1754 0668 CF90      		pop r12
 1755 066a BF90      		pop r11
 1756               	.LVL151:
 1757 066c AF90      		pop r10
 1758 066e 9F90      		pop r9
 1759 0670 8F90      		pop r8
 1760 0672 7F90      		pop r7
 1761 0674 6F90      		pop r6
 1762 0676 5F90      		pop r5
 1763 0678 4F90      		pop r4
 1764 067a 3F90      		pop r3
 1765               	.LVL152:
 1766 067c 2F90      		pop r2
 1767               	.LVL153:
 1768 067e 0895      		ret
 1769               	.LVL154:
 1770               	.L187:
 1771               	.LM291:
 1772 0680 842F      		mov r24,r20
 1773 0682 8150      		subi r24,lo8(-(-1))
 1774 0684 87FD      		sbrc r24,7
 1775 0686 00C0      		rjmp .L232
 1776               	.LVL155:
 1777               	.LM292:
 1778 0688 862F      		mov r24,r22
 1779               	.LVL156:
 1780 068a 8770      		andi r24,lo8(7)
 1781               	.LM293:
 1782 068c 58E0      		ldi r21,lo8(8)
 1783 068e 252E      		mov r2,r21
 1784               	.LVL157:
 1785 0690 281A      		sub r2,r24
 1786               	.LM294:
 1787 0692 30E0      		ldi r19,lo8(0)
 1788 0694 C82E      		mov r12,r24
 1789 0696 DD24      		clr r13
 1790 0698 0894      		sec
 1791 069a C108      		sbc r12,__zero_reg__
 1792 069c D108      		sbc r13,__zero_reg__
 1793 069e C601      		movw r24,r12
 1794               	.LVL158:
 1795 06a0 820F      		add r24,r18
 1796 06a2 931F      		adc r25,r19
 1797               	.LVL159:
 1798 06a4 0894      		sec
 1799 06a6 C11C      		adc r12,__zero_reg__
 1800 06a8 D11C      		adc r13,__zero_reg__
 1801 06aa 97FD      		sbrc r25,7
 1802 06ac 00C0      		rjmp .L233
 1803               	.L198:
 1804 06ae 9595      		asr r25
 1805 06b0 8795      		ror r24
 1806 06b2 9595      		asr r25
 1807 06b4 8795      		ror r24
 1808 06b6 9595      		asr r25
 1809 06b8 8795      		ror r24
 1810               	.LVL160:
 1811 06ba 482F      		mov r20,r24
 1812 06bc 4F5F      		subi r20,lo8(-(1))
 1813 06be 4C83      		std Y+4,r20
 1814               	.LVL161:
 1815               	.LM295:
 1816 06c0 A694      		lsr r10
 1817 06c2 A694      		lsr r10
 1818 06c4 A694      		lsr r10
 1819 06c6 AB82      		std Y+3,r10
 1820               	.LVL162:
 1821               	.LM296:
 1822 06c8 C901      		movw r24,r18
 1823 06ca 8770      		andi r24,lo8(7)
 1824 06cc 9070      		andi r25,hi8(7)
 1825 06ce 892B      		or r24,r25
 1826 06d0 01F0      		breq .L199
 1827               	.LM297:
 1828 06d2 8A2D      		mov r24,r10
 1829 06d4 8F5F      		subi r24,lo8(-(1))
 1830 06d6 8B83      		std Y+3,r24
 1831               	.LVL163:
 1832               	.L199:
 1833               	.LM298:
 1834 06d8 4FEF      		ldi r20,lo8(255)
 1835 06da 50E0      		ldi r21,hi8(255)
 1836 06dc CA01      		movw r24,r20
 1837 06de 0C2C      		mov r0,r12
 1838 06e0 00C0      		rjmp 2f
 1839 06e2 880F      	1:	lsl r24
 1840 06e4 991F      		rol r25
 1841 06e6 0A94      	2:	dec r0
 1842 06e8 02F4      		brpl 1b
 1843 06ea 8E83      		std Y+6,r24
 1844               	.LVL164:
 1845               	.LM299:
 1846 06ec 260F      		add r18,r22
 1847 06ee 311D      		adc r19,__zero_reg__
 1848 06f0 2770      		andi r18,lo8(7)
 1849 06f2 3070      		andi r19,hi8(7)
 1850               	.LM300:
 1851 06f4 2115      		cp r18,__zero_reg__
 1852 06f6 3105      		cpc r19,__zero_reg__
 1853 06f8 01F0      		breq .+2
 1854 06fa 00C0      		rjmp .L200
 1855 06fc 9FEF      		ldi r25,lo8(-1)
 1856 06fe 9D83      		std Y+5,r25
 1857               	.LVL165:
 1858               	.L201:
 1859               	.LM301:
 1860 0700 832D      		mov r24,r3
 1861 0702 90E0      		ldi r25,lo8(0)
 1862               	.LVL166:
 1863 0704 EE24      		clr r14
 1864 0706 FF24      		clr r15
 1865 0708 E81A      		sub r14,r24
 1866 070a F90A      		sbc r15,r25
 1867               	.LVL167:
 1868 070c 6695      		lsr r22
 1869 070e 6695      		lsr r22
 1870 0710 6695      		lsr r22
 1871               	.LVL168:
 1872 0712 6983      		std Y+1,r22
 1873 0714 1C86      		std Y+12,__zero_reg__
 1874 0716 1B86      		std Y+11,__zero_reg__
 1875               	.LVL169:
 1876 0718 6624      		clr r6
 1877 071a 7724      		clr r7
 1878               	.LM302:
 1879 071c 8B2C      		mov r8,r11
 1880 071e 9924      		clr r9
 1881 0720 A1E0      		ldi r26,lo8(1)
 1882 0722 8A22      		and r8,r26
 1883 0724 9924      		clr r9
 1884               	.LM303:
 1885 0726 BC81      		ldd r27,Y+4
 1886 0728 4B2E      		mov r4,r27
 1887 072a 5524      		clr r5
 1888 072c 0894      		sec
 1889 072e 4108      		sbc r4,__zero_reg__
 1890 0730 5108      		sbc r5,__zero_reg__
 1891               	.LM304:
 1892 0732 ED81      		ldd r30,Y+5
 1893 0734 E095      		com r30
 1894 0736 E987      		std Y+9,r30
 1895               	.LM305:
 1896 0738 FE81      		ldd r31,Y+6
 1897 073a F095      		com r31
 1898 073c FA87      		std Y+10,r31
 1899               	.L222:
 1900               	.LM306:
 1901 073e A62C      		mov r10,r6
 1902               	.LVL170:
 1903 0740 2981      		ldd r18,Y+1
 1904 0742 260D      		add r18,r6
 1905 0744 2F83      		std Y+7,r18
 1906               	.LM307:
 1907 0746 8885      		ldd r24,Y+8
 1908 0748 622F      		mov r22,r18
 1909               	.LVL171:
 1910 074a 432D      		mov r20,r3
 1911 074c 20E0      		ldi r18,lo8(buffer)
 1912 074e 30E0      		ldi r19,hi8(buffer)
 1913 0750 0E94 0000 		call read_block
 1914               	.LVL172:
 1915               	.LM308:
 1916 0754 3320      		tst r3
 1917 0756 01F4      		brne .+2
 1918 0758 00C0      		rjmp .L202
 1919 075a 60E0      		ldi r22,lo8(buffer+128)
 1920 075c 70E0      		ldi r23,hi8(buffer+128)
 1921 075e 40E0      		ldi r20,lo8(0)
 1922 0760 50E0      		ldi r21,hi8(0)
 1923 0762 00C0      		rjmp .L221
 1924               	.LVL173:
 1925               	.L236:
 1926               	.LM309:
 1927 0764 BE81      		ldd r27,Y+6
 1928 0766 2B23      		and r18,r27
 1929               	.L210:
 1930               	.LM310:
 1931 0768 F3E0      		ldi r31,lo8(3)
 1932 076a FB15      		cp r31,r11
 1933 076c 00F4      		brsh .+2
 1934 076e 00C0      		rjmp .L215
 1935               	.L237:
 1936 0770 32E0      		ldi r19,lo8(2)
 1937               	.LVL174:
 1938 0772 B316      		cp r11,r19
 1939 0774 00F4      		brsh .+2
 1940 0776 00C0      		rjmp .L234
 1941               	.LM311:
 1942 0778 FA01      		movw r30,r20
 1943 077a E050      		subi r30,lo8(-(buffer))
 1944 077c F040      		sbci r31,hi8(-(buffer))
 1945 077e 8081      		ld r24,Z
 1946 0780 282B      		or r18,r24
 1947 0782 2083      		st Z,r18
 1948               	.LVL175:
 1949               	.L216:
 1950               	.LM312:
 1951 0784 8114      		cp r8,__zero_reg__
 1952 0786 9104      		cpc r9,__zero_reg__
 1953 0788 01F0      		breq .L220
 1954 078a B5E0      		ldi r27,lo8(5)
 1955 078c BB15      		cp r27,r11
 1956 078e 00F0      		brlo .L220
 1957               	.LM313:
 1958 0790 8081      		ld r24,Z
 1959 0792 8095      		com r24
 1960 0794 8083      		st Z,r24
 1961               	.L220:
 1962 0796 4F5F      		subi r20,lo8(-(1))
 1963 0798 5F4F      		sbci r21,hi8(-(1))
 1964 079a 6F5F      		subi r22,lo8(-(1))
 1965 079c 7F4F      		sbci r23,hi8(-(1))
 1966               	.LM314:
 1967 079e 4315      		cp r20,r3
 1968 07a0 00F0      		brlo .+2
 1969 07a2 00C0      		rjmp .L202
 1970               	.L221:
 1971               	.LM315:
 1972 07a4 0115      		cp r16,__zero_reg__
 1973 07a6 1105      		cpc r17,__zero_reg__
 1974 07a8 01F4      		brne .+2
 1975 07aa 00C0      		rjmp .L203
 1976               	.LM316:
 1977 07ac F801      		movw r30,r16
 1978 07ae EE0D      		add r30,r14
 1979 07b0 FF1D      		adc r31,r15
 1980 07b2 2081      		ld r18,Z
 1981               	.LVL176:
 1982 07b4 30E0      		ldi r19,lo8(0)
 1983               	.LVL177:
 1984 07b6 022C      		mov r0,r2
 1985 07b8 00C0      		rjmp 2f
 1986 07ba 3595      	1:	asr r19
 1987 07bc 2795      		ror r18
 1988 07be 0A94      	2:	dec r0
 1989 07c0 02F4      		brpl 1b
 1990 07c2 EB85      		ldd r30,Y+11
 1991 07c4 FC85      		ldd r31,Y+12
 1992 07c6 E00F      		add r30,r16
 1993 07c8 F11F      		adc r31,r17
 1994 07ca 8081      		ld r24,Z
 1995 07cc 90E0      		ldi r25,lo8(0)
 1996 07ce 0C2C      		mov r0,r12
 1997 07d0 00C0      		rjmp 2f
 1998 07d2 880F      	1:	lsl r24
 1999 07d4 991F      		rol r25
 2000 07d6 0A94      	2:	dec r0
 2001 07d8 02F4      		brpl 1b
 2002 07da 282B      		or r18,r24
 2003               	.LVL178:
 2004 07dc 8B85      		ldd r24,Y+11
 2005 07de 9C85      		ldd r25,Y+12
 2006 07e0 0196      		adiw r24,1
 2007 07e2 9C87      		std Y+12,r25
 2008 07e4 8B87      		std Y+11,r24
 2009               	.LVL179:
 2010 07e6 0894      		sec
 2011 07e8 E11C      		adc r14,__zero_reg__
 2012 07ea F11C      		adc r15,__zero_reg__
 2013               	.LVL180:
 2014               	.L204:
 2015               	.LM317:
 2016 07ec F6E0      		ldi r31,lo8(6)
 2017 07ee BF16      		cp r11,r31
 2018 07f0 01F0      		breq .L235
 2019               	.L208:
 2020               	.LM318:
 2021 07f2 AA20      		tst r10
 2022 07f4 01F4      		brne .+2
 2023 07f6 00C0      		rjmp .L236
 2024               	.LM319:
 2025 07f8 6414      		cp r6,r4
 2026 07fa 7504      		cpc r7,r5
 2027 07fc 01F0      		breq .+2
 2028 07fe 00C0      		rjmp .L210
 2029               	.LM320:
 2030 0800 ED81      		ldd r30,Y+5
 2031 0802 2E23      		and r18,r30
 2032               	.LM321:
 2033 0804 F3E0      		ldi r31,lo8(3)
 2034 0806 FB15      		cp r31,r11
 2035 0808 00F0      		brlo .+2
 2036 080a 00C0      		rjmp .L237
 2037               	.L215:
 2038 080c 85E0      		ldi r24,lo8(5)
 2039 080e 8B15      		cp r24,r11
 2040 0810 00F4      		brsh .L238
 2041               	.LM322:
 2042 0812 AA20      		tst r10
 2043 0814 01F0      		breq .+2
 2044 0816 00C0      		rjmp .L217
 2045               	.LM323:
 2046 0818 FA01      		movw r30,r20
 2047 081a E050      		subi r30,lo8(-(buffer))
 2048 081c F040      		sbci r31,hi8(-(buffer))
 2049 081e 8081      		ld r24,Z
 2050 0820 9A85      		ldd r25,Y+10
 2051 0822 8923      		and r24,r25
 2052 0824 8083      		st Z,r24
 2053               	.L218:
 2054               	.LM324:
 2055 0826 8081      		ld r24,Z
 2056 0828 282B      		or r18,r24
 2057 082a 2083      		st Z,r18
 2058 082c 00C0      		rjmp .L216
 2059               	.L235:
 2060               	.LM325:
 2061 082e D801      		movw r26,r16
 2062 0830 8C91      		ld r24,X
 2063 0832 90E0      		ldi r25,lo8(0)
 2064 0834 9C01      		movw r18,r24
 2065               	.LVL181:
 2066 0836 022C      		mov r0,r2
 2067 0838 00C0      		rjmp 2f
 2068 083a 3595      	1:	asr r19
 2069 083c 2795      		ror r18
 2070 083e 0A94      	2:	dec r0
 2071 0840 02F4      		brpl 1b
 2072 0842 0C2C      		mov r0,r12
 2073 0844 00C0      		rjmp 2f
 2074 0846 880F      	1:	lsl r24
 2075 0848 991F      		rol r25
 2076 084a 0A94      	2:	dec r0
 2077 084c 02F4      		brpl 1b
 2078 084e 282B      		or r18,r24
 2079               	.LVL182:
 2080 0850 00C0      		rjmp .L208
 2081               	.LVL183:
 2082               	.L234:
 2083               	.LM326:
 2084 0852 FA01      		movw r30,r20
 2085 0854 E050      		subi r30,lo8(-(buffer))
 2086 0856 F040      		sbci r31,hi8(-(buffer))
 2087 0858 8081      		ld r24,Z
 2088 085a 2823      		and r18,r24
 2089 085c 2083      		st Z,r18
 2090 085e 00C0      		rjmp .L216
 2091               	.LVL184:
 2092               	.L238:
 2093               	.LM327:
 2094 0860 FA01      		movw r30,r20
 2095 0862 E050      		subi r30,lo8(-(buffer))
 2096 0864 F040      		sbci r31,hi8(-(buffer))
 2097 0866 8081      		ld r24,Z
 2098 0868 2827      		eor r18,r24
 2099 086a 2083      		st Z,r18
 2100 086c 00C0      		rjmp .L216
 2101               	.L203:
 2102               	.LM328:
 2103 086e 9B81      		ldd r25,Y+3
 2104 0870 A916      		cp r10,r25
 2105 0872 00F0      		brlo .L224
 2106               	.LVL185:
 2107               	.L205:
 2108               	.LM329:
 2109 0874 EA81      		ldd r30,Y+2
 2110 0876 2E2F      		mov r18,r30
 2111               	.LVL186:
 2112 0878 30E0      		ldi r19,lo8(0)
 2113 087a 0C2C      		mov r0,r12
 2114 087c 00C0      		rjmp 2f
 2115 087e 220F      	1:	lsl r18
 2116 0880 331F      		rol r19
 2117 0882 0A94      	2:	dec r0
 2118 0884 02F4      		brpl 1b
 2119               	.LVL187:
 2120 0886 DB01      		movw r26,r22
 2121 0888 8C91      		ld r24,X
 2122 088a 90E0      		ldi r25,lo8(0)
 2123 088c 022C      		mov r0,r2
 2124 088e 00C0      		rjmp 2f
 2125 0890 9595      	1:	asr r25
 2126 0892 8795      		ror r24
 2127 0894 0A94      	2:	dec r0
 2128 0896 02F4      		brpl 1b
 2129 0898 282B      		or r18,r24
 2130               	.LVL188:
 2131               	.LM330:
 2132 089a EC93      		st X,r30
 2133 089c 00C0      		rjmp .L204
 2134               	.L224:
 2135               	.LM331:
 2136 089e 8091 0000 		lds r24,RX_bytes
 2137 08a2 8823      		tst r24
 2138 08a4 01F0      		breq .L224
 2139               	.LM332:
 2140 08a6 8091 0000 		lds r24,RX_read
 2141 08aa 9091 0000 		lds r25,(RX_read)+1
 2142 08ae DC01      		movw r26,r24
 2143 08b0 A050      		subi r26,lo8(-(RX_array))
 2144 08b2 B040      		sbci r27,hi8(-(RX_array))
 2145 08b4 BC91      		ld r27,X
 2146 08b6 BA83      		std Y+2,r27
 2147               	.LVL189:
 2148 08b8 0196      		adiw r24,1
 2149 08ba 9093 0000 		sts (RX_read)+1,r25
 2150 08be 8093 0000 		sts RX_read,r24
 2151               	.LM333:
 2152 08c2 8F3F      		cpi r24,255
 2153 08c4 9105      		cpc r25,__zero_reg__
 2154 08c6 01F0      		breq .L207
 2155 08c8 00F0      		brlo .L207
 2156 08ca 1092 0000 		sts (RX_read)+1,__zero_reg__
 2157 08ce 1092 0000 		sts RX_read,__zero_reg__
 2158               	.L207:
 2159               	.LM334:
 2160               	/* #APP */
 2161               	 ;  1580 "main.c" 1
 2162 08d2 F894      		cli
 2163               	 ;  0 "" 2
 2164               	.LM335:
 2165               	/* #NOAPP */
 2166 08d4 8091 0000 		lds r24,RX_bytes
 2167 08d8 8150      		subi r24,lo8(-(-1))
 2168 08da 8093 0000 		sts RX_bytes,r24
 2169               	.LM336:
 2170               	/* #APP */
 2171               	 ;  1582 "main.c" 1
 2172 08de 7894      		sei
 2173               	 ;  0 "" 2
 2174               	.LM337:
 2175               	/* #NOAPP */
 2176 08e0 8091 0000 		lds r24,RX_pause
 2177 08e4 8130      		cpi r24,lo8(1)
 2178 08e6 01F4      		brne .L205
 2179               	.LM338:
 2180 08e8 8091 0000 		lds r24,RX_bytes
 2181 08ec 8034      		cpi r24,lo8(64)
 2182 08ee 00F0      		brlo .+2
 2183 08f0 00C0      		rjmp .L205
 2184               	.LM339:
 2185 08f2 179A      		sbi 34-32,7
 2186               	.LM340:
 2187 08f4 1092 0000 		sts RX_pause,__zero_reg__
 2188 08f8 00C0      		rjmp .L205
 2189               	.LVL190:
 2190               	.L217:
 2191               	.LM341:
 2192 08fa 6414      		cp r6,r4
 2193 08fc 7504      		cpc r7,r5
 2194 08fe 01F0      		breq .L239
 2195               	.LM342:
 2196 0900 FA01      		movw r30,r20
 2197 0902 E050      		subi r30,lo8(-(buffer))
 2198 0904 F040      		sbci r31,hi8(-(buffer))
 2199 0906 1082      		st Z,__zero_reg__
 2200 0908 00C0      		rjmp .L218
 2201               	.L239:
 2202               	.LM343:
 2203 090a FA01      		movw r30,r20
 2204 090c E050      		subi r30,lo8(-(buffer))
 2205 090e F040      		sbci r31,hi8(-(buffer))
 2206 0910 8081      		ld r24,Z
 2207 0912 A985      		ldd r26,Y+9
 2208 0914 8A23      		and r24,r26
 2209 0916 8083      		st Z,r24
 2210 0918 00C0      		rjmp .L218
 2211               	.L202:
 2212               	.LM344:
 2213 091a 8885      		ldd r24,Y+8
 2214 091c 6F81      		ldd r22,Y+7
 2215 091e 432D      		mov r20,r3
 2216 0920 20E0      		ldi r18,lo8(buffer)
 2217 0922 30E0      		ldi r19,hi8(buffer)
 2218               	.LVL191:
 2219 0924 0E94 0000 		call write_block
 2220               	.LVL192:
 2221 0928 0894      		sec
 2222 092a 611C      		adc r6,__zero_reg__
 2223 092c 711C      		adc r7,__zero_reg__
 2224               	.LM345:
 2225 092e EC81      		ldd r30,Y+4
 2226 0930 6E16      		cp r6,r30
 2227 0932 00F4      		brsh .+2
 2228 0934 00C0      		rjmp .L222
 2229 0936 00C0      		rjmp .L223
 2230               	.LVL193:
 2231               	.L200:
 2232               	.LM346:
 2233 0938 88E0      		ldi r24,lo8(8)
 2234 093a 90E0      		ldi r25,hi8(8)
 2235 093c 821B      		sub r24,r18
 2236 093e 930B      		sbc r25,r19
 2237 0940 00C0      		rjmp 2f
 2238 0942 5595      	1:	asr r21
 2239 0944 4795      		ror r20
 2240 0946 8A95      	2:	dec r24
 2241 0948 02F4      		brpl 1b
 2242 094a 4D83      		std Y+5,r20
 2243               	.LVL194:
 2244 094c 00C0      		rjmp .L201
 2245               	.LVL195:
 2246               	.L232:
 2247               	.LM347:
 2248 094e 2223      		tst r18
 2249 0950 01F4      		brne .+2
 2250 0952 00C0      		rjmp .L223
 2251 0954 00E0      		ldi r16,lo8(0)
 2252               	.LVL196:
 2253               	.L194:
 2254               	.LM348:
 2255 0956 3320      		tst r3
 2256 0958 01F0      		breq .L197
 2257               	.LM349:
 2258 095a 10E0      		ldi r17,lo8(0)
 2259               	.LVL197:
 2260               	.L195:
 2261               	.LM350:
 2262 095c 0E94 0000 		call RX_get_byte
 2263               	.LVL198:
 2264               	.LM351:
 2265 0960 1F5F      		subi r17,lo8(-(1))
 2266 0962 1315      		cp r17,r3
 2267 0964 00F0      		brlo .L195
 2268               	.LVL199:
 2269               	.L197:
 2270               	.LM352:
 2271 0966 0F5F      		subi r16,lo8(-(1))
 2272 0968 0A15      		cp r16,r10
 2273 096a 00F0      		brlo .L194
 2274 096c 00C0      		rjmp .L223
 2275               	.LVL200:
 2276               	.L233:
 2277               	.LM353:
 2278 096e 0796      		adiw r24,7
 2279 0970 00C0      		rjmp .L198
 2280               	.LFE21:
 2282               	.global	print_char
 2284               	print_char:
 2285               	.LFB15:
 2286               	.LM354:
 2287               	.LVL201:
 2288 0972 EF92      		push r14
 2289 0974 FF92      		push r15
 2290 0976 0F93      		push r16
 2291               	/* prologue: function */
 2292               	/* frame size = 0 */
 2293               	.LM355:
 2294 0978 9091 0000 		lds r25,font_bytes
 2295 097c 492F      		mov r20,r25
 2296 097e 50E0      		ldi r21,lo8(0)
 2297 0980 90E0      		ldi r25,lo8(0)
 2298               	.LVL202:
 2299 0982 8097      		sbiw r24,32
 2300               	.LVL203:
 2301 0984 849F      		mul r24,r20
 2302 0986 9001      		movw r18,r0
 2303 0988 859F      		mul r24,r21
 2304 098a 300D      		add r19,r0
 2305 098c 949F      		mul r25,r20
 2306 098e 300D      		add r19,r0
 2307 0990 1124      		clr r1
 2308               	.LVL204:
 2309 0992 2D5F      		subi r18,lo8(-(3))
 2310 0994 3F4F      		sbci r19,hi8(-(3))
 2311               	.LM356:
 2312 0996 8091 0000 		lds r24,aux_font
 2313               	.LVL205:
 2314 099a 8823      		tst r24
 2315 099c 01F0      		breq .+2
 2316 099e 00C0      		rjmp .L241
 2317               	.LM357:
 2318 09a0 8091 0000 		lds r24,reverse
 2319 09a4 8130      		cpi r24,lo8(1)
 2320 09a6 01F4      		brne .+2
 2321 09a8 00C0      		rjmp .L242
 2322               	.LM358:
 2323 09aa C901      		movw r24,r18
 2324 09ac 840F      		add r24,r20
 2325 09ae 951F      		adc r25,r21
 2326 09b0 2817      		cp r18,r24
 2327 09b2 3907      		cpc r19,r25
 2328 09b4 04F4      		brge .L244
 2329               	.LM359:
 2330 09b6 2050      		subi r18,lo8(-(text_array))
 2331 09b8 3040      		sbci r19,hi8(-(text_array))
 2332               	.LVL206:
 2333 09ba 40E8      		ldi r20,lo8(-128)
 2334               	.LVL207:
 2335 09bc BC01      		movw r22,r24
 2336 09be 6050      		subi r22,lo8(-(text_array))
 2337 09c0 7040      		sbci r23,hi8(-(text_array))
 2338               	.L246:
 2339               	.LBB169:
 2340               	.LM360:
 2341 09c2 F901      		movw r30,r18
 2342               	/* #APP */
 2343               	 ;  1242 "main.c" 1
 2344 09c4 8491      		lpm r24, Z
 2345               		
 2346               	 ;  0 "" 2
 2347               	.LVL208:
 2348               	/* #NOAPP */
 2349               	.LBE169:
 2350 09c6 E42F      		mov r30,r20
 2351 09c8 F0E0      		ldi r31,lo8(0)
 2352               	.LVL209:
 2353 09ca E050      		subi r30,lo8(-(buffer))
 2354 09cc F040      		sbci r31,hi8(-(buffer))
 2355               	.LVL210:
 2356 09ce 8083      		st Z,r24
 2357 09d0 4F5F      		subi r20,lo8(-(1))
 2358               	.LVL211:
 2359 09d2 2F5F      		subi r18,lo8(-(1))
 2360 09d4 3F4F      		sbci r19,hi8(-(1))
 2361               	.LM361:
 2362 09d6 2617      		cp r18,r22
 2363 09d8 3707      		cpc r19,r23
 2364 09da 01F4      		brne .L246
 2365               	.LVL212:
 2366               	.L244:
 2367               	.LM362:
 2368 09dc 8091 0000 		lds r24,x_offset
 2369               	.LVL213:
 2370 09e0 6091 0000 		lds r22,y_offset
 2371 09e4 4091 0000 		lds r20,font_w
 2372               	.LVL214:
 2373 09e8 2091 0000 		lds r18,font_h
 2374               	.LVL215:
 2375 09ec 0091 0000 		lds r16,font_mode
 2376 09f0 70E0      		ldi r23,lo8(buffer+128)
 2377 09f2 E72E      		mov r14,r23
 2378 09f4 70E0      		ldi r23,hi8(buffer+128)
 2379 09f6 F72E      		mov r15,r23
 2380 09f8 0E94 0000 		call bitblt
 2381               	.LVL216:
 2382               	.LM363:
 2383 09fc 2091 0000 		lds r18,font_w
 2384 0a00 3091 0000 		lds r19,font_space
 2385 0a04 832F      		mov r24,r19
 2386 0a06 820F      		add r24,r18
 2387 0a08 9091 0000 		lds r25,x_offset
 2388 0a0c 890F      		add r24,r25
 2389 0a0e 8093 0000 		sts x_offset,r24
 2390               	.LM364:
 2391 0a12 482F      		mov r20,r24
 2392 0a14 50E0      		ldi r21,lo8(0)
 2393 0a16 622F      		mov r22,r18
 2394 0a18 70E0      		ldi r23,lo8(0)
 2395 0a1a 630F      		add r22,r19
 2396 0a1c 711D      		adc r23,__zero_reg__
 2397 0a1e CA01      		movw r24,r20
 2398 0a20 860F      		add r24,r22
 2399 0a22 971F      		adc r25,r23
 2400 0a24 8038      		cpi r24,128
 2401 0a26 9105      		cpc r25,__zero_reg__
 2402 0a28 04F0      		brlt .L253
 2403               	.LM365:
 2404 0a2a CA01      		movw r24,r20
 2405 0a2c 0E94 0000 		call __divmodhi4
 2406 0a30 8093 0000 		sts x_offset,r24
 2407               	.LM366:
 2408 0a34 7091 0000 		lds r23,y_offset
 2409 0a38 6091 0000 		lds r22,font_h
 2410 0a3c 862F      		mov r24,r22
 2411 0a3e 90E0      		ldi r25,lo8(0)
 2412 0a40 472F      		mov r20,r23
 2413 0a42 50E0      		ldi r21,lo8(0)
 2414 0a44 2227      		clr r18
 2415 0a46 3327      		clr r19
 2416 0a48 281B      		sub r18,r24
 2417 0a4a 390B      		sbc r19,r25
 2418 0a4c 281B      		sub r18,r24
 2419 0a4e 390B      		sbc r19,r25
 2420 0a50 205C      		subi r18,lo8(-(64))
 2421 0a52 3F4F      		sbci r19,hi8(-(64))
 2422 0a54 2417      		cp r18,r20
 2423 0a56 3507      		cpc r19,r21
 2424 0a58 04F0      		brlt .L258
 2425               	.LM367:
 2426 0a5a 670F      		add r22,r23
 2427 0a5c 6093 0000 		sts y_offset,r22
 2428               	.L253:
 2429               	/* epilogue start */
 2430               	.LM368:
 2431 0a60 0F91      		pop r16
 2432 0a62 FF90      		pop r15
 2433 0a64 EF90      		pop r14
 2434 0a66 0895      		ret
 2435               	.LVL217:
 2436               	.L241:
 2437               	.LM369:
 2438 0a68 8091 0000 		lds r24,reverse
 2439 0a6c 8130      		cpi r24,lo8(1)
 2440 0a6e 01F0      		breq .L247
 2441               	.LM370:
 2442 0a70 C901      		movw r24,r18
 2443 0a72 840F      		add r24,r20
 2444 0a74 951F      		adc r25,r21
 2445 0a76 2817      		cp r18,r24
 2446 0a78 3907      		cpc r19,r25
 2447 0a7a 04F0      		brlt .+2
 2448 0a7c 00C0      		rjmp .L244
 2449               	.LM371:
 2450 0a7e 2050      		subi r18,lo8(-(aux_text_array))
 2451 0a80 3040      		sbci r19,hi8(-(aux_text_array))
 2452               	.LVL218:
 2453 0a82 40E8      		ldi r20,lo8(-128)
 2454               	.LVL219:
 2455 0a84 BC01      		movw r22,r24
 2456 0a86 6050      		subi r22,lo8(-(aux_text_array))
 2457 0a88 7040      		sbci r23,hi8(-(aux_text_array))
 2458               	.L250:
 2459               	.LBB170:
 2460               	.LM372:
 2461 0a8a F901      		movw r30,r18
 2462               	/* #APP */
 2463               	 ;  1256 "main.c" 1
 2464 0a8c 8491      		lpm r24, Z
 2465               		
 2466               	 ;  0 "" 2
 2467               	.LVL220:
 2468               	/* #NOAPP */
 2469               	.LBE170:
 2470 0a8e E42F      		mov r30,r20
 2471 0a90 F0E0      		ldi r31,lo8(0)
 2472               	.LVL221:
 2473 0a92 E050      		subi r30,lo8(-(buffer))
 2474 0a94 F040      		sbci r31,hi8(-(buffer))
 2475               	.LVL222:
 2476 0a96 8083      		st Z,r24
 2477 0a98 4F5F      		subi r20,lo8(-(1))
 2478               	.LVL223:
 2479 0a9a 2F5F      		subi r18,lo8(-(1))
 2480 0a9c 3F4F      		sbci r19,hi8(-(1))
 2481               	.LM373:
 2482 0a9e 2617      		cp r18,r22
 2483 0aa0 3707      		cpc r19,r23
 2484 0aa2 01F4      		brne .L250
 2485 0aa4 00C0      		rjmp .L244
 2486               	.LVL224:
 2487               	.L258:
 2488               	.LM374:
 2489 0aa6 872F      		mov r24,r23
 2490 0aa8 0E94 0000 		call __udivmodqi4
 2491 0aac 9093 0000 		sts y_offset,r25
 2492               	.LM375:
 2493 0ab0 0F91      		pop r16
 2494 0ab2 FF90      		pop r15
 2495 0ab4 EF90      		pop r14
 2496 0ab6 0895      		ret
 2497               	.LVL225:
 2498               	.L247:
 2499               	.LM376:
 2500 0ab8 C901      		movw r24,r18
 2501 0aba 840F      		add r24,r20
 2502 0abc 951F      		adc r25,r21
 2503 0abe 2817      		cp r18,r24
 2504 0ac0 3907      		cpc r19,r25
 2505 0ac2 04F0      		brlt .+2
 2506 0ac4 00C0      		rjmp .L244
 2507 0ac6 2050      		subi r18,lo8(-(aux_text_array))
 2508 0ac8 3040      		sbci r19,hi8(-(aux_text_array))
 2509               	.LVL226:
 2510 0aca 40E8      		ldi r20,lo8(-128)
 2511               	.LVL227:
 2512 0acc BC01      		movw r22,r24
 2513 0ace 6050      		subi r22,lo8(-(aux_text_array))
 2514 0ad0 7040      		sbci r23,hi8(-(aux_text_array))
 2515               	.L249:
 2516               	.LBB171:
 2517               	.LM377:
 2518 0ad2 F901      		movw r30,r18
 2519               	/* #APP */
 2520               	 ;  1251 "main.c" 1
 2521 0ad4 8491      		lpm r24, Z
 2522               		
 2523               	 ;  0 "" 2
 2524               	.LVL228:
 2525               	/* #NOAPP */
 2526               	.LBE171:
 2527 0ad6 E42F      		mov r30,r20
 2528 0ad8 F0E0      		ldi r31,lo8(0)
 2529               	.LVL229:
 2530 0ada E050      		subi r30,lo8(-(buffer))
 2531 0adc F040      		sbci r31,hi8(-(buffer))
 2532               	.LVL230:
 2533 0ade 8095      		com r24
 2534 0ae0 8083      		st Z,r24
 2535 0ae2 4F5F      		subi r20,lo8(-(1))
 2536               	.LVL231:
 2537 0ae4 2F5F      		subi r18,lo8(-(1))
 2538 0ae6 3F4F      		sbci r19,hi8(-(1))
 2539               	.LM378:
 2540 0ae8 2617      		cp r18,r22
 2541 0aea 3707      		cpc r19,r23
 2542 0aec 01F4      		brne .L249
 2543 0aee 00C0      		rjmp .L244
 2544               	.LVL232:
 2545               	.L242:
 2546               	.LM379:
 2547 0af0 C901      		movw r24,r18
 2548 0af2 840F      		add r24,r20
 2549 0af4 951F      		adc r25,r21
 2550 0af6 2817      		cp r18,r24
 2551 0af8 3907      		cpc r19,r25
 2552 0afa 04F0      		brlt .+2
 2553 0afc 00C0      		rjmp .L244
 2554 0afe 2050      		subi r18,lo8(-(text_array))
 2555 0b00 3040      		sbci r19,hi8(-(text_array))
 2556               	.LVL233:
 2557 0b02 40E8      		ldi r20,lo8(-128)
 2558               	.LVL234:
 2559 0b04 BC01      		movw r22,r24
 2560 0b06 6050      		subi r22,lo8(-(text_array))
 2561 0b08 7040      		sbci r23,hi8(-(text_array))
 2562               	.L245:
 2563               	.LBB172:
 2564               	.LM380:
 2565 0b0a F901      		movw r30,r18
 2566               	/* #APP */
 2567               	 ;  1237 "main.c" 1
 2568 0b0c 8491      		lpm r24, Z
 2569               		
 2570               	 ;  0 "" 2
 2571               	.LVL235:
 2572               	/* #NOAPP */
 2573               	.LBE172:
 2574 0b0e E42F      		mov r30,r20
 2575 0b10 F0E0      		ldi r31,lo8(0)
 2576               	.LVL236:
 2577 0b12 E050      		subi r30,lo8(-(buffer))
 2578 0b14 F040      		sbci r31,hi8(-(buffer))
 2579               	.LVL237:
 2580 0b16 8095      		com r24
 2581 0b18 8083      		st Z,r24
 2582 0b1a 4F5F      		subi r20,lo8(-(1))
 2583               	.LVL238:
 2584 0b1c 2F5F      		subi r18,lo8(-(1))
 2585 0b1e 3F4F      		sbci r19,hi8(-(1))
 2586               	.LM381:
 2587 0b20 2617      		cp r18,r22
 2588 0b22 3707      		cpc r19,r23
 2589 0b24 01F4      		brne .L245
 2590 0b26 00C0      		rjmp .L244
 2591               	.LFE15:
 2593               	.global	read_byte
 2595               	read_byte:
 2596               	.LFB24:
 2597               	.LM382:
 2598               	.LVL239:
 2599 0b28 1F93      		push r17
 2600               	/* prologue: function */
 2601               	/* frame size = 0 */
 2602 0b2a 162F      		mov r17,r22
 2603               	.LM383:
 2604 0b2c 8064      		ori r24,lo8(64)
 2605               	.LVL240:
 2606 0b2e 60E0      		ldi r22,lo8(0)
 2607               	.LVL241:
 2608 0b30 0E94 0000 		call write_command_LCD
 2609               	.LM384:
 2610 0b34 812F      		mov r24,r17
 2611 0b36 0E94 0000 		call read_data_LCD
 2612               	/* epilogue start */
 2613               	.LM385:
 2614 0b3a 1F91      		pop r17
 2615               	.LVL242:
 2616 0b3c 0895      		ret
 2617               	.LFE24:
 2619               	.global	pixel
 2621               	pixel:
 2622               	.LFB22:
 2623               	.LM386:
 2624               	.LVL243:
 2625 0b3e EF92      		push r14
 2626 0b40 FF92      		push r15
 2627 0b42 0F93      		push r16
 2628 0b44 1F93      		push r17
 2629               	/* prologue: function */
 2630               	/* frame size = 0 */
 2631 0b46 F82E      		mov r15,r24
 2632               	.LM387:
 2633 0b48 67FD      		sbrc r22,7
 2634 0b4a 00C0      		rjmp .L268
 2635               	.LVL244:
 2636               	.LM388:
 2637 0b4c 4034      		cpi r20,lo8(64)
 2638 0b4e 00F0      		brlo .+2
 2639 0b50 00C0      		rjmp .L268
 2640               	.LM389:
 2641 0b52 5FE3      		ldi r21,lo8(63)
 2642               	.LVL245:
 2643 0b54 541B      		sub r21,r20
 2644               	.LM390:
 2645 0b56 8091 0000 		lds r24,reverse
 2646 0b5a 8130      		cpi r24,lo8(1)
 2647 0b5c 01F4      		brne .+2
 2648 0b5e 00C0      		rjmp .L269
 2649               	.L263:
 2650               	.LM391:
 2651 0b60 6034      		cpi r22,lo8(64)
 2652 0b62 00F0      		brlo .+2
 2653 0b64 00C0      		rjmp .L270
 2654               	.LM392:
 2655 0b66 81E0      		ldi r24,lo8(1)
 2656 0b68 8093 0000 		sts temp_side.2470,r24
 2657 0b6c 6093 0000 		sts temp_x.2471,r22
 2658               	.L265:
 2659               	.LM393:
 2660 0b70 952F      		mov r25,r21
 2661 0b72 9695      		lsr r25
 2662 0b74 9695      		lsr r25
 2663 0b76 9695      		lsr r25
 2664 0b78 87E0      		ldi r24,lo8(7)
 2665 0b7a 891B      		sub r24,r25
 2666 0b7c 8093 0000 		sts temp_page.2469,r24
 2667               	.LM394:
 2668 0b80 27E0      		ldi r18,lo8(7)
 2669 0b82 30E0      		ldi r19,hi8(7)
 2670 0b84 B901      		movw r22,r18
 2671               	.LVL246:
 2672 0b86 651B      		sub r22,r21
 2673 0b88 7109      		sbc r23,__zero_reg__
 2674 0b8a AB01      		movw r20,r22
 2675 0b8c 281B      		sub r18,r24
 2676 0b8e 3109      		sbc r19,__zero_reg__
 2677 0b90 220F      		lsl r18
 2678 0b92 331F      		rol r19
 2679 0b94 220F      		lsl r18
 2680 0b96 331F      		rol r19
 2681 0b98 220F      		lsl r18
 2682 0b9a 331F      		rol r19
 2683 0b9c 420F      		add r20,r18
 2684 0b9e 531F      		adc r21,r19
 2685 0ba0 21E0      		ldi r18,lo8(1)
 2686 0ba2 30E0      		ldi r19,hi8(1)
 2687 0ba4 00C0      		rjmp 2f
 2688 0ba6 220F      	1:	lsl r18
 2689 0ba8 331F      		rol r19
 2690 0baa 4A95      	2:	dec r20
 2691 0bac 02F4      		brpl 1b
 2692 0bae 122F      		mov r17,r18
 2693 0bb0 2093 0000 		sts temp_data1.2472,r18
 2694               	.LM395:
 2695 0bb4 886B      		ori r24,lo8(-72)
 2696 0bb6 60E0      		ldi r22,lo8(0)
 2697 0bb8 0E94 0000 		call write_command_LCD
 2698               	.LVL247:
 2699               	.LM396:
 2700 0bbc 0091 0000 		lds r16,temp_x.2471
 2701 0bc0 E090 0000 		lds r14,temp_side.2470
 2702 0bc4 802F      		mov r24,r16
 2703 0bc6 6E2D      		mov r22,r14
 2704 0bc8 0E94 0000 		call read_byte
 2705 0bcc 8093 0000 		sts temp_data2.2473,r24
 2706               	.LM397:
 2707 0bd0 FF20      		tst r15
 2708 0bd2 01F4      		brne .L266
 2709               	.LM398:
 2710 0bd4 1095      		com r17
 2711               	.LM399:
 2712 0bd6 1823      		and r17,r24
 2713 0bd8 1093 0000 		sts temp_data1.2472,r17
 2714               	.L267:
 2715               	.LM400:
 2716 0bdc 802F      		mov r24,r16
 2717 0bde 8064      		ori r24,lo8(64)
 2718 0be0 60E0      		ldi r22,lo8(0)
 2719 0be2 0E94 0000 		call write_command_LCD
 2720               	.LM401:
 2721 0be6 8091 0000 		lds r24,temp_data1.2472
 2722 0bea 6E2D      		mov r22,r14
 2723 0bec 0E94 0000 		call write_data_LCD
 2724               	.LVL248:
 2725               	.L268:
 2726               	/* epilogue start */
 2727               	.LM402:
 2728 0bf0 1F91      		pop r17
 2729 0bf2 0F91      		pop r16
 2730 0bf4 FF90      		pop r15
 2731               	.LVL249:
 2732 0bf6 EF90      		pop r14
 2733 0bf8 0895      		ret
 2734               	.LVL250:
 2735               	.L270:
 2736               	.LM403:
 2737 0bfa 82E0      		ldi r24,lo8(2)
 2738 0bfc 8093 0000 		sts temp_side.2470,r24
 2739 0c00 6054      		subi r22,lo8(-(-64))
 2740               	.LVL251:
 2741 0c02 6093 0000 		sts temp_x.2471,r22
 2742 0c06 00C0      		rjmp .L265
 2743               	.LVL252:
 2744               	.L266:
 2745               	.LM404:
 2746 0c08 182B      		or r17,r24
 2747 0c0a 1093 0000 		sts temp_data1.2472,r17
 2748 0c0e 00C0      		rjmp .L267
 2749               	.LVL253:
 2750               	.L269:
 2751               	.LM405:
 2752 0c10 F826      		eor r15,r24
 2753 0c12 00C0      		rjmp .L263
 2754               	.LFE22:
 2756               	.global	line
 2758               	line:
 2759               	.LFB23:
 2760               	.LM406:
 2761               	.LVL254:
 2762 0c14 4F92      		push r4
 2763 0c16 5F92      		push r5
 2764 0c18 6F92      		push r6
 2765 0c1a 7F92      		push r7
 2766 0c1c 8F92      		push r8
 2767 0c1e 9F92      		push r9
 2768 0c20 AF92      		push r10
 2769 0c22 BF92      		push r11
 2770 0c24 CF92      		push r12
 2771 0c26 DF92      		push r13
 2772 0c28 EF92      		push r14
 2773 0c2a FF92      		push r15
 2774 0c2c 0F93      		push r16
 2775               	.LVL255:
 2776 0c2e 1F93      		push r17
 2777 0c30 CF93      		push r28
 2778 0c32 DF93      		push r29
 2779               	/* prologue: function */
 2780               	/* frame size = 0 */
 2781 0c34 482E      		mov r4,r24
 2782 0c36 A42F      		mov r26,r20
 2783 0c38 722F      		mov r23,r18
 2784               	.LM407:
 2785 0c3a 402F      		mov r20,r16
 2786               	.LVL256:
 2787 0c3c 50E0      		ldi r21,lo8(0)
 2788               	.LVL257:
 2789 0c3e EA2F      		mov r30,r26
 2790               	.LVL258:
 2791 0c40 F0E0      		ldi r31,lo8(0)
 2792               	.LVL259:
 2793 0c42 E22E      		mov r14,r18
 2794               	.LVL260:
 2795 0c44 FF24      		clr r15
 2796               	.LVL261:
 2797 0c46 A62E      		mov r10,r22
 2798               	.LVL262:
 2799 0c48 BB24      		clr r11
 2800               	.LVL263:
 2801 0c4a 5524      		clr r5
 2802               	.LVL264:
 2803 0c4c 9A01      		movw r18,r20
 2804               	.LVL265:
 2805 0c4e 2E1B      		sub r18,r30
 2806 0c50 3F0B      		sbc r19,r31
 2807 0c52 37FD      		sbrc r19,7
 2808 0c54 00C0      		rjmp .L289
 2809               	.LVL266:
 2810 0c56 C701      		movw r24,r14
 2811 0c58 8A19      		sub r24,r10
 2812 0c5a 9B09      		sbc r25,r11
 2813 0c5c 97FD      		sbrc r25,7
 2814 0c5e 00C0      		rjmp .L290
 2815               	.LVL267:
 2816               	.L274:
 2817 0c60 8217      		cp r24,r18
 2818 0c62 9307      		cpc r25,r19
 2819 0c64 04F4      		brge .L275
 2820 0c66 5524      		clr r5
 2821 0c68 5394      		inc r5
 2822               	.LM408:
 2823 0c6a 8A2F      		mov r24,r26
 2824 0c6c A62F      		mov r26,r22
 2825 0c6e 682F      		mov r22,r24
 2826               	.LVL268:
 2827 0c70 802F      		mov r24,r16
 2828 0c72 072F      		mov r16,r23
 2829 0c74 782F      		mov r23,r24
 2830 0c76 CF01      		movw r24,r30
 2831 0c78 F501      		movw r30,r10
 2832 0c7a 5C01      		movw r10,r24
 2833 0c7c CA01      		movw r24,r20
 2834 0c7e A701      		movw r20,r14
 2835 0c80 7C01      		movw r14,r24
 2836               	.LVL269:
 2837               	.L275:
 2838               	.LM409:
 2839 0c82 7617      		cp r23,r22
 2840 0c84 00F4      		brsh .+2
 2841 0c86 00C0      		rjmp .L276
 2842 0c88 C701      		movw r24,r14
 2843               	.LVL270:
 2844 0c8a 7501      		movw r14,r10
 2845 0c8c 5C01      		movw r10,r24
 2846 0c8e CA01      		movw r24,r20
 2847 0c90 AF01      		movw r20,r30
 2848 0c92 FC01      		movw r30,r24
 2849               	.LM410:
 2850 0c94 6F01      		movw r12,r30
 2851               	.LVL271:
 2852 0c96 C41A      		sub r12,r20
 2853 0c98 D50A      		sbc r13,r21
 2854 0c9a D7FC      		sbrc r13,7
 2855 0c9c 00C0      		rjmp .L291
 2856               	.LVL272:
 2857               	.L278:
 2858               	.LM411:
 2859 0c9e A017      		cp r26,r16
 2860 0ca0 00F4      		brsh .+2
 2861 0ca2 00C0      		rjmp .L279
 2862               	.L295:
 2863 0ca4 6624      		clr r6
 2864 0ca6 6A94      		dec r6
 2865 0ca8 762C      		mov r7,r6
 2866               	.LVL273:
 2867               	.L280:
 2868               	.LM412:
 2869 0caa AE14      		cp r10,r14
 2870 0cac BF04      		cpc r11,r15
 2871 0cae 04F0      		brlt .L287
 2872               	.LVL274:
 2873               	.LM413:
 2874 0cb0 4501      		movw r8,r10
 2875               	.LVL275:
 2876 0cb2 8E18      		sub r8,r14
 2877 0cb4 9F08      		sbc r9,r15
 2878               	.LM414:
 2879 0cb6 C401      		movw r24,r8
 2880 0cb8 97FC      		sbrc r9,7
 2881 0cba 00C0      		rjmp .L292
 2882               	.LVL276:
 2883               	.L282:
 2884 0cbc EC01      		movw r28,r24
 2885               	.LVL277:
 2886 0cbe D595      		asr r29
 2887 0cc0 C795      		ror r28
 2888 0cc2 8A01      		movw r16,r20
 2889               	.LVL278:
 2890 0cc4 00C0      		rjmp .L286
 2891               	.LVL279:
 2892               	.L294:
 2893               	.LM415:
 2894 0cc6 842D      		mov r24,r4
 2895               	.LVL280:
 2896 0cc8 602F      		mov r22,r16
 2897               	.LVL281:
 2898 0cca 4E2D      		mov r20,r14
 2899               	.LVL282:
 2900 0ccc 0E94 0000 		call pixel
 2901               	.LVL283:
 2902               	.LM416:
 2903 0cd0 CC19      		sub r28,r12
 2904 0cd2 DD09      		sbc r29,r13
 2905               	.LM417:
 2906 0cd4 D7FD      		sbrc r29,7
 2907 0cd6 00C0      		rjmp .L293
 2908               	.L285:
 2909               	.LM418:
 2910 0cd8 0894      		sec
 2911 0cda E11C      		adc r14,__zero_reg__
 2912 0cdc F11C      		adc r15,__zero_reg__
 2913               	.LVL284:
 2914 0cde AE14      		cp r10,r14
 2915 0ce0 BF04      		cpc r11,r15
 2916 0ce2 04F0      		brlt .L287
 2917               	.LVL285:
 2918               	.L286:
 2919               	.LM419:
 2920 0ce4 5520      		tst r5
 2921 0ce6 01F4      		brne .L294
 2922               	.LVL286:
 2923 0ce8 842D      		mov r24,r4
 2924               	.LVL287:
 2925 0cea 6E2D      		mov r22,r14
 2926               	.LVL288:
 2927 0cec 402F      		mov r20,r16
 2928               	.LVL289:
 2929 0cee 0E94 0000 		call pixel
 2930               	.LVL290:
 2931               	.LM420:
 2932 0cf2 CC19      		sub r28,r12
 2933 0cf4 DD09      		sbc r29,r13
 2934               	.LM421:
 2935 0cf6 D7FF      		sbrs r29,7
 2936 0cf8 00C0      		rjmp .L285
 2937               	.L293:
 2938               	.LM422:
 2939 0cfa 060D      		add r16,r6
 2940 0cfc 171D      		adc r17,r7
 2941               	.LM423:
 2942 0cfe C80D      		add r28,r8
 2943 0d00 D91D      		adc r29,r9
 2944               	.LM424:
 2945 0d02 0894      		sec
 2946 0d04 E11C      		adc r14,__zero_reg__
 2947 0d06 F11C      		adc r15,__zero_reg__
 2948               	.LVL291:
 2949 0d08 AE14      		cp r10,r14
 2950 0d0a BF04      		cpc r11,r15
 2951 0d0c 04F4      		brge .L286
 2952               	.LVL292:
 2953               	.L287:
 2954               	/* epilogue start */
 2955               	.LM425:
 2956 0d0e DF91      		pop r29
 2957 0d10 CF91      		pop r28
 2958               	.LVL293:
 2959 0d12 1F91      		pop r17
 2960 0d14 0F91      		pop r16
 2961               	.LVL294:
 2962 0d16 FF90      		pop r15
 2963 0d18 EF90      		pop r14
 2964               	.LVL295:
 2965 0d1a DF90      		pop r13
 2966 0d1c CF90      		pop r12
 2967               	.LVL296:
 2968 0d1e BF90      		pop r11
 2969               	.LVL297:
 2970 0d20 AF90      		pop r10
 2971               	.LVL298:
 2972 0d22 9F90      		pop r9
 2973 0d24 8F90      		pop r8
 2974               	.LVL299:
 2975 0d26 7F90      		pop r7
 2976 0d28 6F90      		pop r6
 2977               	.LVL300:
 2978 0d2a 5F90      		pop r5
 2979               	.LVL301:
 2980 0d2c 4F90      		pop r4
 2981               	.LVL302:
 2982 0d2e 0895      		ret
 2983               	.LVL303:
 2984               	.L276:
 2985               	.LM426:
 2986 0d30 802F      		mov r24,r16
 2987 0d32 0A2F      		mov r16,r26
 2988 0d34 A82F      		mov r26,r24
 2989               	.LM427:
 2990 0d36 6F01      		movw r12,r30
 2991               	.LVL304:
 2992 0d38 C41A      		sub r12,r20
 2993 0d3a D50A      		sbc r13,r21
 2994 0d3c D7FE      		sbrs r13,7
 2995 0d3e 00C0      		rjmp .L278
 2996               	.LVL305:
 2997               	.L291:
 2998 0d40 D094      		com r13
 2999 0d42 C194      		neg r12
 3000 0d44 D108      		sbc r13,__zero_reg__
 3001 0d46 D394      		inc r13
 3002               	.LM428:
 3003 0d48 A017      		cp r26,r16
 3004 0d4a 00F0      		brlo .+2
 3005 0d4c 00C0      		rjmp .L295
 3006               	.L279:
 3007 0d4e A1E0      		ldi r26,lo8(1)
 3008 0d50 6A2E      		mov r6,r26
 3009 0d52 712C      		mov r7,__zero_reg__
 3010               	.LVL306:
 3011 0d54 00C0      		rjmp .L280
 3012               	.LVL307:
 3013               	.L289:
 3014               	.LM429:
 3015 0d56 3095      		com r19
 3016 0d58 2195      		neg r18
 3017 0d5a 3F4F      		sbci r19,lo8(-1)
 3018 0d5c C701      		movw r24,r14
 3019 0d5e 8A19      		sub r24,r10
 3020 0d60 9B09      		sbc r25,r11
 3021 0d62 97FF      		sbrs r25,7
 3022 0d64 00C0      		rjmp .L274
 3023               	.LVL308:
 3024               	.L290:
 3025 0d66 9095      		com r25
 3026 0d68 8195      		neg r24
 3027 0d6a 9F4F      		sbci r25,lo8(-1)
 3028 0d6c 00C0      		rjmp .L274
 3029               	.LVL309:
 3030               	.L292:
 3031               	.LM430:
 3032 0d6e 0196      		adiw r24,1
 3033               	.LVL310:
 3034 0d70 00C0      		rjmp .L282
 3035               	.LFE23:
 3037               	.global	circle
 3039               	circle:
 3040               	.LFB25:
 3041               	.LM431:
 3042               	.LVL311:
 3043 0d72 2F92      		push r2
 3044 0d74 3F92      		push r3
 3045 0d76 4F92      		push r4
 3046 0d78 5F92      		push r5
 3047 0d7a 6F92      		push r6
 3048 0d7c 7F92      		push r7
 3049 0d7e 8F92      		push r8
 3050 0d80 9F92      		push r9
 3051 0d82 AF92      		push r10
 3052 0d84 BF92      		push r11
 3053 0d86 CF92      		push r12
 3054 0d88 DF92      		push r13
 3055 0d8a EF92      		push r14
 3056 0d8c FF92      		push r15
 3057 0d8e 0F93      		push r16
 3058 0d90 1F93      		push r17
 3059 0d92 CF93      		push r28
 3060 0d94 DF93      		push r29
 3061               	/* prologue: function */
 3062               	/* frame size = 0 */
 3063 0d96 C82E      		mov r12,r24
 3064 0d98 462E      		mov r4,r22
 3065 0d9a 542E      		mov r5,r20
 3066 0d9c 7901      		movw r14,r18
 3067               	.LM432:
 3068 0d9e 422F      		mov r20,r18
 3069               	.LVL312:
 3070 0da0 450D      		add r20,r5
 3071 0da2 0E94 0000 		call pixel
 3072               	.LVL313:
 3073               	.LM433:
 3074 0da6 452D      		mov r20,r5
 3075 0da8 4E19      		sub r20,r14
 3076               	.LVL314:
 3077 0daa 8C2D      		mov r24,r12
 3078 0dac 642D      		mov r22,r4
 3079 0dae 0E94 0000 		call pixel
 3080               	.LM434:
 3081 0db2 6E2D      		mov r22,r14
 3082 0db4 640D      		add r22,r4
 3083 0db6 8C2D      		mov r24,r12
 3084 0db8 452D      		mov r20,r5
 3085 0dba 0E94 0000 		call pixel
 3086               	.LM435:
 3087 0dbe 642D      		mov r22,r4
 3088 0dc0 6E19      		sub r22,r14
 3089 0dc2 8C2D      		mov r24,r12
 3090 0dc4 452D      		mov r20,r5
 3091 0dc6 0E94 0000 		call pixel
 3092               	.LM436:
 3093 0dca 1E14      		cp __zero_reg__,r14
 3094 0dcc 1F04      		cpc __zero_reg__,r15
 3095               	.LVL315:
 3096 0dce 04F0      		brlt .+2
 3097 0dd0 00C0      		rjmp .L300
 3098               	.LM437:
 3099 0dd2 C1E0      		ldi r28,lo8(1)
 3100 0dd4 D0E0      		ldi r29,hi8(1)
 3101               	.LVL316:
 3102 0dd6 CE19      		sub r28,r14
 3103 0dd8 DF09      		sbc r29,r15
 3104               	.LM438:
 3105 0dda C701      		movw r24,r14
 3106 0ddc 880F      		lsl r24
 3107 0dde 991F      		rol r25
 3108 0de0 2224      		clr r2
 3109 0de2 3324      		clr r3
 3110 0de4 281A      		sub r2,r24
 3111 0de6 390A      		sbc r3,r25
 3112               	.LVL317:
 3113 0de8 4701      		movw r8,r14
 3114               	.LVL318:
 3115 0dea B1E0      		ldi r27,lo8(1)
 3116 0dec 6B2E      		mov r6,r27
 3117 0dee 712C      		mov r7,__zero_reg__
 3118               	.LVL319:
 3119 0df0 AA24      		clr r10
 3120 0df2 BB24      		clr r11
 3121               	.LVL320:
 3122 0df4 00C0      		rjmp .L299
 3123               	.LVL321:
 3124               	.L301:
 3125               	.LM439:
 3126 0df6 82E0      		ldi r24,lo8(2)
 3127 0df8 90E0      		ldi r25,hi8(2)
 3128 0dfa 680E      		add r6,r24
 3129 0dfc 791E      		adc r7,r25
 3130               	.LM440:
 3131 0dfe C60D      		add r28,r6
 3132 0e00 D71D      		adc r29,r7
 3133               	.LVL322:
 3134               	.L299:
 3135               	.LM441:
 3136 0e02 D7FD      		sbrc r29,7
 3137 0e04 00C0      		rjmp .L298
 3138               	.LM442:
 3139 0e06 0894      		sec
 3140 0e08 8108      		sbc r8,__zero_reg__
 3141 0e0a 9108      		sbc r9,__zero_reg__
 3142               	.LM443:
 3143 0e0c 82E0      		ldi r24,lo8(2)
 3144 0e0e 90E0      		ldi r25,hi8(2)
 3145 0e10 280E      		add r2,r24
 3146 0e12 391E      		adc r3,r25
 3147               	.LM444:
 3148 0e14 C20D      		add r28,r2
 3149 0e16 D31D      		adc r29,r3
 3150               	.L298:
 3151               	.LM445:
 3152 0e18 0894      		sec
 3153 0e1a A11C      		adc r10,__zero_reg__
 3154 0e1c B11C      		adc r11,__zero_reg__
 3155               	.LM446:
 3156 0e1e DA2C      		mov r13,r10
 3157               	.LVL323:
 3158 0e20 D40C      		add r13,r4
 3159               	.LM447:
 3160 0e22 182D      		mov r17,r8
 3161               	.LVL324:
 3162 0e24 150D      		add r17,r5
 3163 0e26 8C2D      		mov r24,r12
 3164 0e28 6D2D      		mov r22,r13
 3165 0e2a 412F      		mov r20,r17
 3166 0e2c 0E94 0000 		call pixel
 3167 0e30 E42C      		mov r14,r4
 3168               	.LVL325:
 3169 0e32 EA18      		sub r14,r10
 3170               	.LM448:
 3171 0e34 8C2D      		mov r24,r12
 3172 0e36 6E2D      		mov r22,r14
 3173 0e38 412F      		mov r20,r17
 3174 0e3a 0E94 0000 		call pixel
 3175               	.LM449:
 3176 0e3e 152D      		mov r17,r5
 3177 0e40 1819      		sub r17,r8
 3178 0e42 8C2D      		mov r24,r12
 3179 0e44 6D2D      		mov r22,r13
 3180 0e46 412F      		mov r20,r17
 3181 0e48 0E94 0000 		call pixel
 3182               	.LM450:
 3183 0e4c 8C2D      		mov r24,r12
 3184 0e4e 6E2D      		mov r22,r14
 3185 0e50 412F      		mov r20,r17
 3186 0e52 0E94 0000 		call pixel
 3187               	.LM451:
 3188 0e56 E82C      		mov r14,r8
 3189 0e58 E40C      		add r14,r4
 3190 0e5a 1A2D      		mov r17,r10
 3191 0e5c 150D      		add r17,r5
 3192 0e5e 8C2D      		mov r24,r12
 3193 0e60 6E2D      		mov r22,r14
 3194 0e62 412F      		mov r20,r17
 3195 0e64 0E94 0000 		call pixel
 3196               	.LM452:
 3197 0e68 942D      		mov r25,r4
 3198 0e6a 9819      		sub r25,r8
 3199 0e6c 092F      		mov r16,r25
 3200 0e6e 8C2D      		mov r24,r12
 3201 0e70 692F      		mov r22,r25
 3202 0e72 412F      		mov r20,r17
 3203 0e74 0E94 0000 		call pixel
 3204 0e78 152D      		mov r17,r5
 3205 0e7a 1A19      		sub r17,r10
 3206               	.LM453:
 3207 0e7c 8C2D      		mov r24,r12
 3208 0e7e 6E2D      		mov r22,r14
 3209 0e80 412F      		mov r20,r17
 3210 0e82 0E94 0000 		call pixel
 3211               	.LM454:
 3212 0e86 8C2D      		mov r24,r12
 3213 0e88 602F      		mov r22,r16
 3214 0e8a 412F      		mov r20,r17
 3215 0e8c 0E94 0000 		call pixel
 3216               	.LM455:
 3217 0e90 A814      		cp r10,r8
 3218 0e92 B904      		cpc r11,r9
 3219               	.LVL326:
 3220 0e94 04F4      		brge .+2
 3221 0e96 00C0      		rjmp .L301
 3222               	.LVL327:
 3223               	.L300:
 3224               	/* epilogue start */
 3225               	.LM456:
 3226 0e98 DF91      		pop r29
 3227 0e9a CF91      		pop r28
 3228               	.LVL328:
 3229 0e9c 1F91      		pop r17
 3230 0e9e 0F91      		pop r16
 3231 0ea0 FF90      		pop r15
 3232 0ea2 EF90      		pop r14
 3233               	.LVL329:
 3234 0ea4 DF90      		pop r13
 3235 0ea6 CF90      		pop r12
 3236               	.LVL330:
 3237 0ea8 BF90      		pop r11
 3238 0eaa AF90      		pop r10
 3239               	.LVL331:
 3240 0eac 9F90      		pop r9
 3241 0eae 8F90      		pop r8
 3242               	.LVL332:
 3243 0eb0 7F90      		pop r7
 3244 0eb2 6F90      		pop r6
 3245               	.LVL333:
 3246 0eb4 5F90      		pop r5
 3247               	.LVL334:
 3248 0eb6 4F90      		pop r4
 3249               	.LVL335:
 3250 0eb8 3F90      		pop r3
 3251 0eba 2F90      		pop r2
 3252               	.LVL336:
 3253 0ebc 0895      		ret
 3254               	.LFE25:
 3256               	.global	EEPROM_write
 3258               	EEPROM_write:
 3259               	.LFB26:
 3260               	.LM457:
 3261               	/* prologue: function */
 3262               	/* frame size = 0 */
 3263               	.LVL337:
 3264               	.L303:
 3265               	.LM458:
 3266 0ebe F999      		sbic 63-32,1
 3267 0ec0 00C0      		rjmp .L303
 3268               	.LM459:
 3269 0ec2 92BD      		out (65)+1-32,r25
 3270 0ec4 81BD      		out 65-32,r24
 3271               	.LM460:
 3272 0ec6 60BD      		out 64-32,r22
 3273               	.LM461:
 3274 0ec8 FA9A      		sbi 63-32,2
 3275               	.LM462:
 3276 0eca F99A      		sbi 63-32,1
 3277               	/* epilogue start */
 3278               	.LM463:
 3279 0ecc 0895      		ret
 3280               	.LFE26:
 3282               	.global	EEPROM_read
 3284               	EEPROM_read:
 3285               	.LFB27:
 3286               	.LM464:
 3287               	/* prologue: function */
 3288               	/* frame size = 0 */
 3289               	.LVL338:
 3290               	.L307:
 3291               	.LM465:
 3292 0ece F999      		sbic 63-32,1
 3293 0ed0 00C0      		rjmp .L307
 3294               	.LM466:
 3295 0ed2 92BD      		out (65)+1-32,r25
 3296 0ed4 81BD      		out 65-32,r24
 3297               	.LM467:
 3298 0ed6 F89A      		sbi 63-32,0
 3299               	.LM468:
 3300 0ed8 80B5      		in r24,64-32
 3301               	.LVL339:
 3302               	/* epilogue start */
 3303               	.LM469:
 3304 0eda 0895      		ret
 3305               	.LFE27:
 3307               	.global	set_backlight
 3309               	set_backlight:
 3310               	.LFB28:
 3311               	.LM470:
 3312               	.LVL340:
 3313               	/* prologue: function */
 3314               	/* frame size = 0 */
 3315               	.LM471:
 3316 0edc 22E0      		ldi r18,lo8(2)
 3317 0ede 24BD      		out 68-32,r18
 3318               	.LM472:
 3319 0ee0 9091 0000 		lds r25,BL_dutycycle
 3320 0ee4 9436      		cpi r25,lo8(100)
 3321 0ee6 00F4      		brsh .L315
 3322               	.LM473:
 3323 0ee8 9923      		tst r25
 3324 0eea 01F0      		breq .L316
 3325               	.LM474:
 3326 0eec 15BC      		out 69-32,__zero_reg__
 3327               	.LM475:
 3328 0eee 1092 6E00 		sts 110,__zero_reg__
 3329               	.LM476:
 3330 0ef2 84E6      		ldi r24,lo8(100)
 3331               	.LVL341:
 3332 0ef4 891B      		sub r24,r25
 3333 0ef6 87BD      		out 71-32,r24
 3334               	.LM477:
 3335 0ef8 2093 6E00 		sts 110,r18
 3336               	.LM478:
 3337 0efc 25BD      		out 69-32,r18
 3338               	.LM479:
 3339 0efe 8FB7      		in r24,__SREG__
 3340 0f00 8068      		ori r24,lo8(-128)
 3341 0f02 8FBF      		out __SREG__,r24
 3342 0f04 0895      		ret
 3343               	.LVL342:
 3344               	.L316:
 3345               	.LM480:
 3346 0f06 15BC      		out 69-32,__zero_reg__
 3347               	.LM481:
 3348 0f08 1092 6E00 		sts 110,__zero_reg__
 3349               	.LM482:
 3350 0f0c 1398      		cbi 34-32,3
 3351 0f0e 0895      		ret
 3352               	.L315:
 3353               	.LM483:
 3354 0f10 15BC      		out 69-32,__zero_reg__
 3355               	.LM484:
 3356 0f12 1092 6E00 		sts 110,__zero_reg__
 3357               	.LM485:
 3358 0f16 139A      		sbi 34-32,3
 3359 0f18 0895      		ret
 3360               	.LFE28:
 3362               	.global	draw_block
 3364               	draw_block:
 3365               	.LFB30:
 3366               	.LM486:
 3367               	.LVL343:
 3368 0f1a EF92      		push r14
 3369 0f1c FF92      		push r15
 3370 0f1e 0F93      		push r16
 3371               	.LVL344:
 3372 0f20 DF93      		push r29
 3373 0f22 CF93      		push r28
 3374 0f24 0F92      		push __tmp_reg__
 3375 0f26 CDB7      		in r28,__SP_L__
 3376 0f28 DEB7      		in r29,__SP_H__
 3377               	/* prologue: function */
 3378               	/* frame size = 1 */
 3379 0f2a 522F      		mov r21,r18
 3380               	.LM487:
 3381 0f2c 4817      		cp r20,r24
 3382 0f2e 00F4      		brsh .L318
 3383               	.LVL345:
 3384               	.LM488:
 3385 0f30 242F      		mov r18,r20
 3386 0f32 30E0      		ldi r19,lo8(0)
 3387 0f34 90E0      		ldi r25,lo8(0)
 3388               	.LVL346:
 3389 0f36 821B      		sub r24,r18
 3390 0f38 930B      		sbc r25,r19
 3391               	.LVL347:
 3392 0f3a 9093 0000 		sts (width.2650)+1,r25
 3393 0f3e 8093 0000 		sts width.2650,r24
 3394               	.LM489:
 3395 0f42 3093 0000 		sts (x.2652)+1,r19
 3396 0f46 2093 0000 		sts x.2652,r18
 3397               	.LM490:
 3398 0f4a 5617      		cp r21,r22
 3399 0f4c 00F0      		brlo .L323
 3400               	.LVL348:
 3401               	.L320:
 3402               	.LM491:
 3403 0f4e 262F      		mov r18,r22
 3404 0f50 30E0      		ldi r19,lo8(0)
 3405 0f52 852F      		mov r24,r21
 3406               	.LVL349:
 3407 0f54 90E0      		ldi r25,lo8(0)
 3408               	.LVL350:
 3409 0f56 821B      		sub r24,r18
 3410 0f58 930B      		sbc r25,r19
 3411               	.LVL351:
 3412 0f5a 9093 0000 		sts (height.2651)+1,r25
 3413 0f5e 8093 0000 		sts height.2651,r24
 3414               	.LM492:
 3415 0f62 3093 0000 		sts (y.2653)+1,r19
 3416 0f66 2093 0000 		sts y.2653,r18
 3417               	.LVL352:
 3418               	.L321:
 3419               	.LM493:
 3420 0f6a 8091 0000 		lds r24,x.2652
 3421               	.LVL353:
 3422 0f6e 6091 0000 		lds r22,y.2653
 3423               	.LVL354:
 3424 0f72 4091 0000 		lds r20,width.2650
 3425               	.LVL355:
 3426 0f76 2091 0000 		lds r18,height.2651
 3427               	.LM494:
 3428 0f7a 0983      		std Y+1,r16
 3429               	.LVL356:
 3430               	.LM495:
 3431 0f7c 06E0      		ldi r16,lo8(6)
 3432               	.LVL357:
 3433 0f7e 7E01      		movw r14,r28
 3434 0f80 0894      		sec
 3435 0f82 E11C      		adc r14,__zero_reg__
 3436 0f84 F11C      		adc r15,__zero_reg__
 3437 0f86 0E94 0000 		call bitblt
 3438               	.LVL358:
 3439               	/* epilogue start */
 3440               	.LM496:
 3441 0f8a 0F90      		pop __tmp_reg__
 3442 0f8c CF91      		pop r28
 3443 0f8e DF91      		pop r29
 3444 0f90 0F91      		pop r16
 3445 0f92 FF90      		pop r15
 3446 0f94 EF90      		pop r14
 3447 0f96 0895      		ret
 3448               	.LVL359:
 3449               	.L318:
 3450               	.LM497:
 3451 0f98 282F      		mov r18,r24
 3452 0f9a 30E0      		ldi r19,lo8(0)
 3453 0f9c 842F      		mov r24,r20
 3454               	.LVL360:
 3455 0f9e 90E0      		ldi r25,lo8(0)
 3456               	.LVL361:
 3457 0fa0 821B      		sub r24,r18
 3458 0fa2 930B      		sbc r25,r19
 3459               	.LVL362:
 3460 0fa4 9093 0000 		sts (width.2650)+1,r25
 3461 0fa8 8093 0000 		sts width.2650,r24
 3462               	.LM498:
 3463 0fac 3093 0000 		sts (x.2652)+1,r19
 3464 0fb0 2093 0000 		sts x.2652,r18
 3465               	.LM499:
 3466 0fb4 5617      		cp r21,r22
 3467 0fb6 00F4      		brsh .L320
 3468               	.LVL363:
 3469               	.L323:
 3470               	.LM500:
 3471 0fb8 252F      		mov r18,r21
 3472 0fba 30E0      		ldi r19,lo8(0)
 3473 0fbc 862F      		mov r24,r22
 3474               	.LVL364:
 3475 0fbe 90E0      		ldi r25,lo8(0)
 3476               	.LVL365:
 3477 0fc0 821B      		sub r24,r18
 3478 0fc2 930B      		sbc r25,r19
 3479               	.LVL366:
 3480 0fc4 9093 0000 		sts (height.2651)+1,r25
 3481 0fc8 8093 0000 		sts height.2651,r24
 3482               	.LM501:
 3483 0fcc 3093 0000 		sts (y.2653)+1,r19
 3484 0fd0 2093 0000 		sts y.2653,r18
 3485 0fd4 00C0      		rjmp .L321
 3486               	.LFE30:
 3488               	.global	del_char
 3490               	del_char:
 3491               	.LFB29:
 3492               	.LM502:
 3493 0fd6 0F93      		push r16
 3494               	/* prologue: function */
 3495               	/* frame size = 0 */
 3496               	.LM503:
 3497 0fd8 3091 0000 		lds r19,x_offset
 3498 0fdc 4091 0000 		lds r20,font_w
 3499 0fe0 4317      		cp r20,r19
 3500 0fe2 00F0      		brlo .L325
 3501               	.LM504:
 3502 0fe4 242F      		mov r18,r20
 3503 0fe6 2095      		com r18
 3504 0fe8 2058      		subi r18,lo8(-(-128))
 3505 0fea 642F      		mov r22,r20
 3506 0fec 70E0      		ldi r23,lo8(0)
 3507 0fee 6F5F      		subi r22,lo8(-(1))
 3508 0ff0 7F4F      		sbci r23,hi8(-(1))
 3509 0ff2 80E8      		ldi r24,lo8(128)
 3510 0ff4 90E0      		ldi r25,hi8(128)
 3511 0ff6 831B      		sub r24,r19
 3512 0ff8 9109      		sbc r25,__zero_reg__
 3513 0ffa 0E94 0000 		call __divmodhi4
 3514 0ffe 281B      		sub r18,r24
 3515 1000 2093 0000 		sts x_offset,r18
 3516               	.LM505:
 3517 1004 5091 0000 		lds r21,y_offset
 3518 1008 3091 0000 		lds r19,font_h
 3519 100c 5317      		cp r21,r19
 3520 100e 00F4      		brsh .L326
 3521               	.LM506:
 3522 1010 232F      		mov r18,r19
 3523 1012 2195      		neg r18
 3524 1014 205C      		subi r18,lo8(-(64))
 3525 1016 80E4      		ldi r24,lo8(64)
 3526 1018 90E0      		ldi r25,hi8(64)
 3527 101a 851B      		sub r24,r21
 3528 101c 9109      		sbc r25,__zero_reg__
 3529 101e 632F      		mov r22,r19
 3530 1020 70E0      		ldi r23,lo8(0)
 3531 1022 0E94 0000 		call __divmodhi4
 3532 1026 281B      		sub r18,r24
 3533 1028 2093 0000 		sts y_offset,r18
 3534               	.LM507:
 3535 102c 8091 0000 		lds r24,reverse
 3536 1030 8130      		cpi r24,lo8(1)
 3537 1032 01F4      		brne .L328
 3538               	.L331:
 3539 1034 0FEF      		ldi r16,lo8(-1)
 3540               	.LVL367:
 3541 1036 00C0      		rjmp .L329
 3542               	.LVL368:
 3543               	.L325:
 3544               	.LM508:
 3545 1038 842F      		mov r24,r20
 3546 103a 8095      		com r24
 3547 103c 830F      		add r24,r19
 3548 103e 8093 0000 		sts x_offset,r24
 3549 1042 3091 0000 		lds r19,font_h
 3550               	.L327:
 3551               	.LM509:
 3552 1046 8091 0000 		lds r24,reverse
 3553 104a 8130      		cpi r24,lo8(1)
 3554 104c 01F0      		breq .L331
 3555               	.L328:
 3556 104e 00E0      		ldi r16,lo8(0)
 3557               	.LVL369:
 3558               	.L329:
 3559               	.LM510:
 3560 1050 8091 0000 		lds r24,x_offset
 3561 1054 6091 0000 		lds r22,y_offset
 3562 1058 480F      		add r20,r24
 3563 105a 360F      		add r19,r22
 3564 105c 3150      		subi r19,lo8(-(-1))
 3565 105e 232F      		mov r18,r19
 3566 1060 0E94 0000 		call draw_block
 3567               	/* epilogue start */
 3568               	.LM511:
 3569 1064 0F91      		pop r16
 3570               	.LVL370:
 3571 1066 0895      		ret
 3572               	.L326:
 3573               	.LM512:
 3574 1068 531B      		sub r21,r19
 3575 106a 5093 0000 		sts y_offset,r21
 3576 106e 00C0      		rjmp .L327
 3577               	.LFE29:
 3579               	.global	box
 3581               	box:
 3582               	.LFB31:
 3583               	.LM513:
 3584               	.LVL371:
 3585 1070 DF92      		push r13
 3586 1072 EF92      		push r14
 3587 1074 FF92      		push r15
 3588 1076 0F93      		push r16
 3589 1078 1F93      		push r17
 3590               	/* prologue: function */
 3591               	/* frame size = 0 */
 3592 107a F82E      		mov r15,r24
 3593 107c D62E      		mov r13,r22
 3594 107e E42E      		mov r14,r20
 3595 1080 122F      		mov r17,r18
 3596               	.LM514:
 3597 1082 81E0      		ldi r24,lo8(1)
 3598               	.LVL372:
 3599 1084 642F      		mov r22,r20
 3600               	.LVL373:
 3601 1086 422F      		mov r20,r18
 3602               	.LVL374:
 3603 1088 2E2D      		mov r18,r14
 3604               	.LVL375:
 3605 108a 0D2D      		mov r16,r13
 3606 108c 0E94 0000 		call line
 3607               	.LM515:
 3608 1090 81E0      		ldi r24,lo8(1)
 3609 1092 6F2D      		mov r22,r15
 3610 1094 412F      		mov r20,r17
 3611 1096 2E2D      		mov r18,r14
 3612 1098 012F      		mov r16,r17
 3613 109a 0E94 0000 		call line
 3614               	.LM516:
 3615 109e 81E0      		ldi r24,lo8(1)
 3616 10a0 6F2D      		mov r22,r15
 3617 10a2 412F      		mov r20,r17
 3618 10a4 2F2D      		mov r18,r15
 3619 10a6 0D2D      		mov r16,r13
 3620 10a8 0E94 0000 		call line
 3621               	.LM517:
 3622 10ac 81E0      		ldi r24,lo8(1)
 3623 10ae 6F2D      		mov r22,r15
 3624 10b0 4D2D      		mov r20,r13
 3625 10b2 2E2D      		mov r18,r14
 3626 10b4 0E94 0000 		call line
 3627               	/* epilogue start */
 3628               	.LM518:
 3629 10b8 1F91      		pop r17
 3630               	.LVL376:
 3631 10ba 0F91      		pop r16
 3632 10bc FF90      		pop r15
 3633               	.LVL377:
 3634 10be EF90      		pop r14
 3635               	.LVL378:
 3636 10c0 DF90      		pop r13
 3637               	.LVL379:
 3638 10c2 0895      		ret
 3639               	.LFE31:
 3641               	.global	draw_sprite
 3643               	draw_sprite:
 3644               	.LFB32:
 3645               	.LM519:
 3646               	.LVL380:
 3647 10c4 EF92      		push r14
 3648 10c6 FF92      		push r15
 3649 10c8 0F93      		push r16
 3650               	/* prologue: function */
 3651               	/* frame size = 0 */
 3652 10ca 022F      		mov r16,r18
 3653               	.LM520:
 3654 10cc 92E8      		ldi r25,lo8(-126)
 3655 10ce 499F      		mul r20,r25
 3656 10d0 A001      		movw r20,r0
 3657 10d2 1124      		clr r1
 3658               	.LVL381:
 3659               	.LM521:
 3660 10d4 E0E0      		ldi r30,lo8(sprite)
 3661 10d6 F0E0      		ldi r31,hi8(sprite)
 3662 10d8 DF01      		movw r26,r30
 3663 10da A40F      		add r26,r20
 3664 10dc B51F      		adc r27,r21
 3665 10de 4E5F      		subi r20,lo8(-(2))
 3666 10e0 5F4F      		sbci r21,hi8(-(2))
 3667 10e2 E40F      		add r30,r20
 3668 10e4 F51F      		adc r31,r21
 3669 10e6 4C91      		ld r20,X
 3670               	.LVL382:
 3671 10e8 1196      		adiw r26,1
 3672 10ea 2C91      		ld r18,X
 3673               	.LVL383:
 3674 10ec 7F01      		movw r14,r30
 3675 10ee 0E94 0000 		call bitblt
 3676               	.LVL384:
 3677               	/* epilogue start */
 3678               	.LM522:
 3679 10f2 0F91      		pop r16
 3680               	.LVL385:
 3681 10f4 FF90      		pop r15
 3682 10f6 EF90      		pop r14
 3683 10f8 0895      		ret
 3684               	.LFE32:
 3686               	.global	set_baud
 3688               	set_baud:
 3689               	.LFB33:
 3690               	.LM523:
 3691               	.LVL386:
 3692               	/* prologue: function */
 3693               	/* frame size = 0 */
 3694               	.LM524:
 3695 10fa 8130      		cpi r24,lo8(1)
 3696 10fc 01F0      		breq .L344
 3697               	.LM525:
 3698 10fe 8230      		cpi r24,lo8(2)
 3699 1100 01F0      		breq .L345
 3700               	.LM526:
 3701 1102 8330      		cpi r24,lo8(3)
 3702 1104 01F0      		breq .L346
 3703               	.LM527:
 3704 1106 8430      		cpi r24,lo8(4)
 3705 1108 01F0      		breq .L347
 3706               	.LM528:
 3707 110a 8530      		cpi r24,lo8(5)
 3708 110c 01F0      		breq .L348
 3709               	.LM529:
 3710 110e 8630      		cpi r24,lo8(6)
 3711 1110 01F0      		breq .L349
 3712 1112 0895      		ret
 3713               	.L349:
 3714 1114 84E1      		ldi r24,lo8(20)
 3715 1116 90E0      		ldi r25,hi8(20)
 3716               	.LVL387:
 3717 1118 0E94 0000 		call USART_Init
 3718 111c 0895      		ret
 3719               	.LVL388:
 3720               	.L348:
 3721               	.LM530:
 3722 111e 8AE2      		ldi r24,lo8(42)
 3723 1120 90E0      		ldi r25,hi8(42)
 3724               	.LVL389:
 3725 1122 0E94 0000 		call USART_Init
 3726 1126 0895      		ret
 3727               	.LVL390:
 3728               	.L344:
 3729               	.LM531:
 3730 1128 87E0      		ldi r24,lo8(519)
 3731 112a 92E0      		ldi r25,hi8(519)
 3732               	.LVL391:
 3733 112c 0E94 0000 		call USART_Init
 3734 1130 0895      		ret
 3735               	.LVL392:
 3736               	.L345:
 3737               	.LM532:
 3738 1132 83E0      		ldi r24,lo8(259)
 3739 1134 91E0      		ldi r25,hi8(259)
 3740               	.LVL393:
 3741 1136 0E94 0000 		call USART_Init
 3742 113a 0895      		ret
 3743               	.LVL394:
 3744               	.L346:
 3745               	.LM533:
 3746 113c 81E8      		ldi r24,lo8(129)
 3747 113e 90E0      		ldi r25,hi8(129)
 3748               	.LVL395:
 3749 1140 0E94 0000 		call USART_Init
 3750 1144 0895      		ret
 3751               	.LVL396:
 3752               	.L347:
 3753               	.LM534:
 3754 1146 80E4      		ldi r24,lo8(64)
 3755 1148 90E0      		ldi r25,hi8(64)
 3756               	.LVL397:
 3757 114a 0E94 0000 		call USART_Init
 3758 114e 0895      		ret
 3759               	.LFE33:
 3761               	.global	LCD_reset
 3763               	LCD_reset:
 3764               	.LFB34:
 3765               	.LM535:
 3766               	/* prologue: function */
 3767               	/* frame size = 0 */
 3768               	.LM536:
 3769 1150 1BB8      		out 43-32,__zero_reg__
 3770               	.LM537:
 3771 1152 8CE3      		ldi r24,lo8(60)
 3772 1154 90E0      		ldi r25,hi8(60)
 3773 1156 0E94 0000 		call delay_ms
 3774               	.LM538:
 3775 115a 80E2      		ldi r24,lo8(32)
 3776 115c 8BB9      		out 43-32,r24
 3777               	.LM539:
 3778 115e 8CE3      		ldi r24,lo8(60)
 3779 1160 90E0      		ldi r25,hi8(60)
 3780 1162 0E94 0000 		call delay_ms
 3781               	.LM540:
 3782 1166 80E0      		ldi r24,lo8(0)
 3783 1168 0E94 0000 		call clear_screen
 3784               	.LM541:
 3785 116c 8FE3      		ldi r24,lo8(63)
 3786 116e 60E0      		ldi r22,lo8(0)
 3787 1170 0E94 0000 		call write_command_LCD
 3788               	.LM542:
 3789 1174 88EB      		ldi r24,lo8(-72)
 3790 1176 60E0      		ldi r22,lo8(0)
 3791 1178 0E94 0000 		call write_command_LCD
 3792               	.LM543:
 3793 117c 80E4      		ldi r24,lo8(64)
 3794 117e 60E0      		ldi r22,lo8(0)
 3795 1180 0E94 0000 		call write_command_LCD
 3796               	.LM544:
 3797 1184 80EC      		ldi r24,lo8(-64)
 3798 1186 60E0      		ldi r22,lo8(0)
 3799 1188 0E94 0000 		call write_command_LCD
 3800               	.LM545:
 3801 118c 1092 0000 		sts x_offset,__zero_reg__
 3802               	.LM546:
 3803 1190 88EB      		ldi r24,lo8(-72)
 3804 1192 60E0      		ldi r22,lo8(0)
 3805 1194 0E94 0000 		call write_command_LCD
 3806               	/* epilogue start */
 3807               	.LM547:
 3808 1198 0895      		ret
 3809               	.LFE34:
 3811               		.data
 3812               	.LC0:
 3813 0000 456E 7465 		.string	"Entered Command %d\n"
 3813      7265 6420 
 3813      436F 6D6D 
 3813      616E 6420 
 3813      2564 0A00 
 3814               	.LC1:
 3815 0014 2564 0A00 		.string	"%d\n"
 3816               	.LC2:
 3817 0018 4578 6974 		.string	"Exited Command, RX_buffer=%d\n\n"
 3817      6564 2043 
 3817      6F6D 6D61 
 3817      6E64 2C20 
 3817      5258 5F62 
 3818               		.text
 3819               	.global	main
 3821               	main:
 3822               	.LFB6:
 3823               	.LM548:
 3824 119a 2F92      		push r2
 3825 119c 3F92      		push r3
 3826 119e 4F92      		push r4
 3827 11a0 5F92      		push r5
 3828 11a2 6F92      		push r6
 3829 11a4 7F92      		push r7
 3830 11a6 8F92      		push r8
 3831 11a8 9F92      		push r9
 3832 11aa AF92      		push r10
 3833 11ac BF92      		push r11
 3834 11ae CF92      		push r12
 3835 11b0 DF92      		push r13
 3836 11b2 EF92      		push r14
 3837 11b4 FF92      		push r15
 3838 11b6 0F93      		push r16
 3839 11b8 1F93      		push r17
 3840 11ba DF93      		push r29
 3841 11bc CF93      		push r28
 3842 11be CDB7      		in r28,__SP_L__
 3843 11c0 DEB7      		in r29,__SP_H__
 3844 11c2 2E97      		sbiw r28,14
 3845 11c4 0FB6      		in __tmp_reg__,__SREG__
 3846 11c6 F894      		cli
 3847 11c8 DEBF      		out __SP_H__,r29
 3848 11ca 0FBE      		out __SREG__,__tmp_reg__
 3849 11cc CDBF      		out __SP_L__,r28
 3850               	/* prologue: function */
 3851               	/* frame size = 14 */
 3852               	.LM549:
 3853 11ce 0E94 0000 		call ioinit
 3854               	.LM550:
 3855 11d2 86E0      		ldi r24,lo8(6)
 3856 11d4 0E94 0000 		call set_baud
 3857               	.LM551:
 3858 11d8 80E0      		ldi r24,lo8(gs(put_char))
 3859 11da 90E0      		ldi r25,hi8(gs(put_char))
 3860 11dc 0E94 0000 		call rprintf_devopen
 3861               	.LM552:
 3862 11e0 179A      		sbi 34-32,7
 3863               	.LM553:
 3864 11e2 8AE0      		ldi r24,lo8(10)
 3865 11e4 8093 0000 		sts BL_dutycycle,r24
 3866               	.LM554:
 3867 11e8 86E0      		ldi r24,lo8(6)
 3868 11ea 8093 0000 		sts baud_rate,r24
 3869               	.LM555:
 3870 11ee 81E0      		ldi r24,lo8(1)
 3871 11f0 8093 0000 		sts splash_screen,r24
 3872               	.LM556:
 3873 11f4 1092 0000 		sts reverse,__zero_reg__
 3874               	.LM557:
 3875 11f8 1092 0000 		sts debug_msg,__zero_reg__
 3876               	.LM558:
 3877 11fc 8093 0000 		sts CR_LF,r24
 3878               	.LBB173:
 3879               	.LM559:
 3880 1200 E0E0      		ldi r30,lo8(text_array)
 3881 1202 F0E0      		ldi r31,hi8(text_array)
 3882               	/* #APP */
 3883               	 ;  304 "main.c" 1
 3884 1204 8491      		lpm r24, Z
 3885               		
 3886               	 ;  0 "" 2
 3887               	.LVL398:
 3888               	/* #NOAPP */
 3889               	.LBE173:
 3890 1206 8093 0000 		sts font_w,r24
 3891               	.LBB174:
 3892               	.LM560:
 3893 120a 7F01      		movw r14,r30
 3894               	.LVL399:
 3895 120c 0894      		sec
 3896 120e E11C      		adc r14,__zero_reg__
 3897 1210 F11C      		adc r15,__zero_reg__
 3898 1212 F701      		movw r30,r14
 3899               	/* #APP */
 3900               	 ;  305 "main.c" 1
 3901 1214 8491      		lpm r24, Z
 3902               		
 3903               	 ;  0 "" 2
 3904               	.LVL400:
 3905               	/* #NOAPP */
 3906               	.LBE174:
 3907 1216 8093 0000 		sts font_h,r24
 3908               	.LBB175:
 3909               	.LM561:
 3910 121a 00E0      		ldi r16,lo8(text_array)
 3911 121c 10E0      		ldi r17,hi8(text_array)
 3912               	.LVL401:
 3913 121e 0E5F      		subi r16,lo8(-(2))
 3914 1220 1F4F      		sbci r17,hi8(-(2))
 3915 1222 F801      		movw r30,r16
 3916               	/* #APP */
 3917               	 ;  306 "main.c" 1
 3918 1224 2491      		lpm r18, Z
 3919               		
 3920               	 ;  0 "" 2
 3921               	.LVL402:
 3922               	/* #NOAPP */
 3923               	.LBE175:
 3924 1226 2093 0000 		sts font_space,r18
 3925               	.LM562:
 3926 122a 282F      		mov r18,r24
 3927               	.LVL403:
 3928 122c 2695      		lsr r18
 3929 122e 2695      		lsr r18
 3930 1230 2695      		lsr r18
 3931 1232 2093 0000 		sts font_bytes,r18
 3932               	.LM563:
 3933 1236 90E0      		ldi r25,lo8(0)
 3934 1238 8770      		andi r24,lo8(7)
 3935 123a 9070      		andi r25,hi8(7)
 3936               	.LVL404:
 3937 123c 892B      		or r24,r25
 3938 123e 01F0      		breq .L353
 3939               	.LM564:
 3940 1240 2F5F      		subi r18,lo8(-(1))
 3941 1242 2093 0000 		sts font_bytes,r18
 3942               	.L353:
 3943               	.LM565:
 3944 1246 8091 0000 		lds r24,font_bytes
 3945 124a 9091 0000 		lds r25,font_w
 3946 124e 899F      		mul r24,r25
 3947 1250 802D      		mov r24,r0
 3948 1252 1124      		clr r1
 3949 1254 8093 0000 		sts font_bytes,r24
 3950               	.LM566:
 3951 1258 0E94 0000 		call LCD_reset
 3952               	.LM567:
 3953 125c 8091 0000 		lds r24,BL_dutycycle
 3954 1260 0E94 0000 		call set_backlight
 3955               	.LM568:
 3956 1264 84EF      		ldi r24,lo8(500)
 3957 1266 91E0      		ldi r25,hi8(500)
 3958 1268 0E94 0000 		call delay_ms
 3959               	.LM569:
 3960 126c 8091 0000 		lds r24,splash_screen
 3961 1270 8130      		cpi r24,lo8(1)
 3962 1272 01F4      		brne .+2
 3963 1274 00C0      		rjmp .L497
 3964               	.L354:
 3965               	.LM570:
 3966               	/* #APP */
 3967               	 ;  327 "main.c" 1
 3968 1276 F894      		cli
 3969               	 ;  0 "" 2
 3970               	.LM571:
 3971               	/* #NOAPP */
 3972 1278 1092 0000 		sts RX_in,__zero_reg__
 3973               	.LM572:
 3974 127c 1092 0000 		sts (RX_read)+1,__zero_reg__
 3975 1280 1092 0000 		sts RX_read,__zero_reg__
 3976               	.LM573:
 3977 1284 1092 0000 		sts RX_bytes,__zero_reg__
 3978               	.LM574:
 3979               	/* #APP */
 3980               	 ;  331 "main.c" 1
 3981 1288 7894      		sei
 3982               	 ;  0 "" 2
 3983               	.LM575:
 3984               	/* #NOAPP */
 3985 128a 88EE      		ldi r24,lo8(1000)
 3986 128c 93E0      		ldi r25,hi8(1000)
 3987 128e 0E94 0000 		call delay_ms
 3988               	.LM576:
 3989 1292 80E0      		ldi r24,lo8(0)
 3990 1294 0E94 0000 		call clear_screen
 3991               	.LM577:
 3992 1298 8091 0000 		lds r24,RX_in
 3993 129c 8823      		tst r24
 3994 129e 01F4      		brne .+2
 3995 12a0 00C0      		rjmp .L355
 3996               	.LM578:
 3997 12a2 81E3      		ldi r24,lo8(49)
 3998 12a4 0E94 0000 		call print_char
 3999               	.LM579:
 4000 12a8 81E3      		ldi r24,lo8(49)
 4001 12aa 0E94 0000 		call print_char
 4002               	.LM580:
 4003 12ae 85E3      		ldi r24,lo8(53)
 4004 12b0 0E94 0000 		call print_char
 4005               	.LM581:
 4006 12b4 82E3      		ldi r24,lo8(50)
 4007 12b6 0E94 0000 		call print_char
 4008               	.LM582:
 4009 12ba 80E3      		ldi r24,lo8(48)
 4010 12bc 0E94 0000 		call print_char
 4011               	.LM583:
 4012 12c0 80E3      		ldi r24,lo8(48)
 4013 12c2 0E94 0000 		call print_char
 4014               	.LM584:
 4015 12c6 86E0      		ldi r24,lo8(6)
 4016 12c8 8093 0000 		sts baud_rate,r24
 4017               	.LM585:
 4018 12cc 0E94 0000 		call set_baud
 4019               	.LM586:
 4020               	/* #APP */
 4021               	 ;  348 "main.c" 1
 4022 12d0 F894      		cli
 4023               	 ;  0 "" 2
 4024               	.LM587:
 4025               	/* #NOAPP */
 4026 12d2 80E0      		ldi r24,lo8(0)
 4027 12d4 90E0      		ldi r25,hi8(0)
 4028 12d6 66E0      		ldi r22,lo8(6)
 4029 12d8 0E94 0000 		call EEPROM_write
 4030               	.LM588:
 4031               	/* #APP */
 4032               	 ;  352 "main.c" 1
 4033 12dc 7894      		sei
 4034               	 ;  0 "" 2
 4035               	/* #NOAPP */
 4036               	.L356:
 4037               	.LM589:
 4038 12de 88EE      		ldi r24,lo8(1000)
 4039 12e0 93E0      		ldi r25,hi8(1000)
 4040 12e2 0E94 0000 		call delay_ms
 4041               	.LM590:
 4042 12e6 80E0      		ldi r24,lo8(0)
 4043 12e8 0E94 0000 		call clear_screen
 4044               	.LM591:
 4045               	/* #APP */
 4046               	 ;  362 "main.c" 1
 4047 12ec F894      		cli
 4048               	 ;  0 "" 2
 4049               	.LM592:
 4050               	/* #NOAPP */
 4051 12ee 1092 0000 		sts (RX_read)+1,__zero_reg__
 4052 12f2 1092 0000 		sts RX_read,__zero_reg__
 4053               	.LM593:
 4054 12f6 1092 0000 		sts RX_in,__zero_reg__
 4055               	.LM594:
 4056 12fa 1092 0000 		sts RX_bytes,__zero_reg__
 4057               	.LM595:
 4058               	/* #APP */
 4059               	 ;  366 "main.c" 1
 4060 12fe 7894      		sei
 4061               	 ;  0 "" 2
 4062               	/* #NOAPP */
 4063 1300 E0E0      		ldi r30,lo8(.LC0)
 4064 1302 AE2E      		mov r10,r30
 4065 1304 E0E0      		ldi r30,hi8(.LC0)
 4066 1306 BE2E      		mov r11,r30
 4067 1308 E0E0      		ldi r30,lo8(aux_text_array)
 4068 130a F0E0      		ldi r31,hi8(aux_text_array)
 4069 130c CF01      		movw r24,r30
 4070 130e 0296      		adiw r24,2
 4071 1310 70E0      		ldi r23,lo8(.LC1)
 4072 1312 872E      		mov r8,r23
 4073 1314 70E0      		ldi r23,hi8(.LC1)
 4074 1316 972E      		mov r9,r23
 4075 1318 60E0      		ldi r22,lo8(.LC2)
 4076 131a 662E      		mov r6,r22
 4077 131c 60E0      		ldi r22,hi8(.LC2)
 4078 131e 762E      		mov r7,r22
 4079               	.LBB176:
 4080               	.LBB177:
 4081               	.LM596:
 4082 1320 5AE0      		ldi r21,lo8(10)
 4083 1322 C52E      		mov r12,r21
 4084               	.LBE177:
 4085               	.LBE176:
 4086               	.LBB179:
 4087               	.LBB180:
 4088 1324 4DE0      		ldi r20,lo8(13)
 4089 1326 542E      		mov r5,r20
 4090               	.LBE180:
 4091               	.LBE179:
 4092               	.LM597:
 4093 1328 3FE7      		ldi r19,lo8(127)
 4094 132a 432E      		mov r4,r19
 4095               	.LM598:
 4096 132c 2FE9      		ldi r18,lo8(-97)
 4097 132e 322E      		mov r3,r18
 4098               	.LM599:
 4099 1330 2224      		clr r2
 4100 1332 2394      		inc r2
 4101               	.LBB182:
 4102               	.LM600:
 4103               	/* #APP */
 4104               	 ;  545 "main.c" 1
 4105 1334 2491      		lpm r18, Z
 4106               		
 4107               	 ;  0 "" 2
 4108               	/* #NOAPP */
 4109 1336 2983      		std Y+1,r18
 4110 1338 3196      		adiw r30,1
 4111               	.LBE182:
 4112               	.LBB183:
 4113               	.LM601:
 4114               	/* #APP */
 4115               	 ;  546 "main.c" 1
 4116 133a A491      		lpm r26, Z
 4117               		
 4118               	 ;  0 "" 2
 4119               	/* #NOAPP */
 4120 133c AA83      		std Y+2,r26
 4121               	.LBE183:
 4122               	.LBB184:
 4123               	.LM602:
 4124 133e FC01      		movw r30,r24
 4125               	/* #APP */
 4126               	 ;  547 "main.c" 1
 4127 1340 F491      		lpm r31, Z
 4128               		
 4129               	 ;  0 "" 2
 4130               	/* #NOAPP */
 4131 1342 FB83      		std Y+3,r31
 4132               	.LBE184:
 4133               	.LM603:
 4134 1344 A695      		lsr r26
 4135 1346 A695      		lsr r26
 4136 1348 A695      		lsr r26
 4137 134a AC83      		std Y+4,r26
 4138               	.LM604:
 4139 134c 9A81      		ldd r25,Y+2
 4140 134e 892F      		mov r24,r25
 4141 1350 90E0      		ldi r25,lo8(0)
 4142 1352 8770      		andi r24,lo8(7)
 4143 1354 9070      		andi r25,hi8(7)
 4144 1356 9E83      		std Y+6,r25
 4145 1358 8D83      		std Y+5,r24
 4146               	.LM605:
 4147 135a AF5F      		subi r26,lo8(-(1))
 4148 135c AF83      		std Y+7,r26
 4149               	.LBB185:
 4150               	.LM606:
 4151 135e E0E0      		ldi r30,lo8(text_array)
 4152 1360 F0E0      		ldi r31,hi8(text_array)
 4153               	/* #APP */
 4154               	 ;  533 "main.c" 1
 4155 1362 F491      		lpm r31, Z
 4156               		
 4157               	 ;  0 "" 2
 4158               	/* #NOAPP */
 4159 1364 F887      		std Y+8,r31
 4160               	.LBE185:
 4161               	.LBB186:
 4162               	.LM607:
 4163 1366 F701      		movw r30,r14
 4164               	/* #APP */
 4165               	 ;  534 "main.c" 1
 4166 1368 F491      		lpm r31, Z
 4167               		
 4168               	 ;  0 "" 2
 4169               	/* #NOAPP */
 4170 136a F987      		std Y+9,r31
 4171               	.LBE186:
 4172               	.LBB187:
 4173               	.LM608:
 4174 136c F801      		movw r30,r16
 4175               	/* #APP */
 4176               	 ;  535 "main.c" 1
 4177 136e F491      		lpm r31, Z
 4178               		
 4179               	 ;  0 "" 2
 4180               	/* #NOAPP */
 4181 1370 FA87      		std Y+10,r31
 4182               	.LBE187:
 4183               	.LM609:
 4184 1372 2985      		ldd r18,Y+9
 4185 1374 2695      		lsr r18
 4186 1376 2695      		lsr r18
 4187 1378 2695      		lsr r18
 4188 137a 2B87      		std Y+11,r18
 4189               	.LM610:
 4190 137c 9985      		ldd r25,Y+9
 4191 137e 892F      		mov r24,r25
 4192 1380 90E0      		ldi r25,lo8(0)
 4193 1382 8770      		andi r24,lo8(7)
 4194 1384 9070      		andi r25,hi8(7)
 4195 1386 9D87      		std Y+13,r25
 4196 1388 8C87      		std Y+12,r24
 4197               	.LM611:
 4198 138a 2F5F      		subi r18,lo8(-(1))
 4199 138c 2E87      		std Y+14,r18
 4200               	.LVL405:
 4201               	.L492:
 4202               	.LM612:
 4203 138e 8091 0000 		lds r24,RX_bytes
 4204 1392 8823      		tst r24
 4205 1394 01F0      		breq .+2
 4206 1396 00C0      		rjmp .L498
 4207               	.LVL406:
 4208               	.L357:
 4209               	.LM613:
 4210 1398 20B1      		in r18,32-32
 4211               	.LVL407:
 4212               	.LM614:
 4213 139a 83B1      		in r24,35-32
 4214               	.LVL408:
 4215               	.LM615:
 4216 139c 982F      		mov r25,r24
 4217 139e 80FF      		sbrs r24,0
 4218 13a0 00C0      		rjmp .L436
 4219               	.LVL409:
 4220               	.L500:
 4221               	.LM616:
 4222 13a2 1092 0000 		sts debounce,__zero_reg__
 4223               	.LM617:
 4224 13a6 8091 0000 		lds r24,buttons
 4225 13aa 8E7F      		andi r24,lo8(-2)
 4226 13ac 8093 0000 		sts buttons,r24
 4227               	.L437:
 4228               	.LM618:
 4229 13b0 91FF      		sbrs r25,1
 4230 13b2 00C0      		rjmp .L438
 4231               	.L501:
 4232               	.LM619:
 4233 13b4 1092 0000 		sts debounce+1,__zero_reg__
 4234               	.LM620:
 4235 13b8 8091 0000 		lds r24,buttons
 4236 13bc 8D7F      		andi r24,lo8(-3)
 4237 13be 8093 0000 		sts buttons,r24
 4238               	.L439:
 4239               	.LM621:
 4240 13c2 92FF      		sbrs r25,2
 4241 13c4 00C0      		rjmp .L440
 4242               	.L502:
 4243               	.LM622:
 4244 13c6 1092 0000 		sts debounce+2,__zero_reg__
 4245               	.LM623:
 4246 13ca 8091 0000 		lds r24,buttons
 4247 13ce 8B7F      		andi r24,lo8(-5)
 4248 13d0 8093 0000 		sts buttons,r24
 4249               	.L441:
 4250               	.LM624:
 4251 13d4 93FF      		sbrs r25,3
 4252 13d6 00C0      		rjmp .L442
 4253               	.L503:
 4254               	.LM625:
 4255 13d8 1092 0000 		sts debounce+3,__zero_reg__
 4256               	.LM626:
 4257 13dc 8091 0000 		lds r24,buttons
 4258 13e0 877F      		andi r24,lo8(-9)
 4259 13e2 8093 0000 		sts buttons,r24
 4260               	.L443:
 4261               	.LM627:
 4262 13e6 94FF      		sbrs r25,4
 4263 13e8 00C0      		rjmp .L444
 4264               	.L504:
 4265               	.LM628:
 4266 13ea 1092 0000 		sts debounce+4,__zero_reg__
 4267               	.LM629:
 4268 13ee 8091 0000 		lds r24,buttons
 4269 13f2 8F7E      		andi r24,lo8(-17)
 4270 13f4 8093 0000 		sts buttons,r24
 4271               	.L445:
 4272               	.LM630:
 4273 13f8 922F      		mov r25,r18
 4274 13fa 20FF      		sbrs r18,0
 4275 13fc 00C0      		rjmp .L446
 4276               	.LVL410:
 4277               	.L505:
 4278               	.LM631:
 4279 13fe 1092 0000 		sts debounce+5,__zero_reg__
 4280               	.LM632:
 4281 1402 8091 0000 		lds r24,buttons
 4282 1406 8F7D      		andi r24,lo8(-33)
 4283 1408 8093 0000 		sts buttons,r24
 4284               	.L447:
 4285               	.LM633:
 4286 140c 91FF      		sbrs r25,1
 4287 140e 00C0      		rjmp .L448
 4288               	.L506:
 4289               	.LM634:
 4290 1410 1092 0000 		sts debounce+6,__zero_reg__
 4291               	.LM635:
 4292 1414 8091 0000 		lds r24,buttons
 4293 1418 8F7B      		andi r24,lo8(-65)
 4294 141a 8093 0000 		sts buttons,r24
 4295               	.L449:
 4296               	.LM636:
 4297 141e 92FF      		sbrs r25,2
 4298 1420 00C0      		rjmp .L450
 4299               	.L507:
 4300               	.LM637:
 4301 1422 1092 0000 		sts debounce+7,__zero_reg__
 4302               	.LM638:
 4303 1426 8091 0000 		lds r24,buttons
 4304 142a 8F77      		andi r24,lo8(127)
 4305 142c 8093 0000 		sts buttons,r24
 4306               	.L451:
 4307               	.LM639:
 4308 1430 9091 0000 		lds r25,RGB_counter
 4309 1434 9F5F      		subi r25,lo8(-(1))
 4310 1436 9093 0000 		sts RGB_counter,r25
 4311               	.LM640:
 4312 143a 8091 0000 		lds r24,RGB_red
 4313 143e 9817      		cp r25,r24
 4314 1440 00F0      		brlo .+2
 4315 1442 00C0      		rjmp .L452
 4316               	.LM641:
 4317 1444 1698      		cbi 34-32,6
 4318               	.L453:
 4319               	.LM642:
 4320 1446 8091 0000 		lds r24,RGB_green
 4321 144a 9817      		cp r25,r24
 4322 144c 00F0      		brlo .+2
 4323 144e 00C0      		rjmp .L454
 4324               	.LM643:
 4325 1450 1498      		cbi 34-32,4
 4326               	.L455:
 4327               	.LM644:
 4328 1452 8091 0000 		lds r24,RGB_blue
 4329 1456 9817      		cp r25,r24
 4330 1458 00F0      		brlo .+2
 4331 145a 00C0      		rjmp .L456
 4332               	.LM645:
 4333 145c 1598      		cbi 34-32,5
 4334               	.LM646:
 4335 145e 8091 0000 		lds r24,RX_bytes
 4336 1462 8823      		tst r24
 4337 1464 01F4      		brne .+2
 4338 1466 00C0      		rjmp .L357
 4339               	.L498:
 4340               	.LM647:
 4341 1468 0E94 0000 		call RX_get_byte
 4342               	.LVL411:
 4343 146c 982F      		mov r25,r24
 4344               	.LVL412:
 4345               	.LM648:
 4346 146e 8A30      		cpi r24,lo8(10)
 4347 1470 01F4      		brne .+2
 4348 1472 00C0      		rjmp .L360
 4349               	.LVL413:
 4350 1474 8B30      		cpi r24,lo8(11)
 4351 1476 00F0      		brlo .+2
 4352 1478 00C0      		rjmp .L363
 4353 147a 8830      		cpi r24,lo8(8)
 4354 147c 01F4      		brne .+2
 4355 147e 00C0      		rjmp .L499
 4356               	.L358:
 4357               	.LM649:
 4358 1480 8091 0000 		lds r24,debug_msg
 4359               	.LVL414:
 4360 1484 8230      		cpi r24,lo8(2)
 4361 1486 01F4      		brne .+2
 4362 1488 00C0      		rjmp .L471
 4363               	.L434:
 4364               	.LM650:
 4365 148a 892F      		mov r24,r25
 4366 148c 0E94 0000 		call print_char
 4367               	.LVL415:
 4368               	.LM651:
 4369 1490 20B1      		in r18,32-32
 4370               	.LVL416:
 4371               	.LM652:
 4372 1492 83B1      		in r24,35-32
 4373               	.LVL417:
 4374               	.LM653:
 4375 1494 982F      		mov r25,r24
 4376 1496 80FD      		sbrc r24,0
 4377 1498 00C0      		rjmp .L500
 4378               	.LVL418:
 4379               	.L436:
 4380               	.LM654:
 4381 149a 8091 0000 		lds r24,debounce
 4382 149e 8F5F      		subi r24,lo8(-(1))
 4383 14a0 8093 0000 		sts debounce,r24
 4384               	.LM655:
 4385 14a4 8823      		tst r24
 4386 14a6 01F0      		breq .+2
 4387 14a8 00C0      		rjmp .L437
 4388               	.LM656:
 4389 14aa 8091 0000 		lds r24,buttons
 4390 14ae 8160      		ori r24,lo8(1)
 4391 14b0 8093 0000 		sts buttons,r24
 4392               	.LM657:
 4393 14b4 91FD      		sbrc r25,1
 4394 14b6 00C0      		rjmp .L501
 4395               	.L438:
 4396               	.LM658:
 4397 14b8 8091 0000 		lds r24,debounce+1
 4398 14bc 8F5F      		subi r24,lo8(-(1))
 4399 14be 8093 0000 		sts debounce+1,r24
 4400               	.LM659:
 4401 14c2 8823      		tst r24
 4402 14c4 01F0      		breq .+2
 4403 14c6 00C0      		rjmp .L439
 4404               	.LM660:
 4405 14c8 8091 0000 		lds r24,buttons
 4406 14cc 8260      		ori r24,lo8(2)
 4407 14ce 8093 0000 		sts buttons,r24
 4408               	.LM661:
 4409 14d2 92FD      		sbrc r25,2
 4410 14d4 00C0      		rjmp .L502
 4411               	.L440:
 4412               	.LM662:
 4413 14d6 8091 0000 		lds r24,debounce+2
 4414 14da 8F5F      		subi r24,lo8(-(1))
 4415 14dc 8093 0000 		sts debounce+2,r24
 4416               	.LM663:
 4417 14e0 8823      		tst r24
 4418 14e2 01F0      		breq .+2
 4419 14e4 00C0      		rjmp .L441
 4420               	.LM664:
 4421 14e6 8091 0000 		lds r24,buttons
 4422 14ea 8460      		ori r24,lo8(4)
 4423 14ec 8093 0000 		sts buttons,r24
 4424               	.LM665:
 4425 14f0 93FD      		sbrc r25,3
 4426 14f2 00C0      		rjmp .L503
 4427               	.L442:
 4428               	.LM666:
 4429 14f4 8091 0000 		lds r24,debounce+3
 4430 14f8 8F5F      		subi r24,lo8(-(1))
 4431 14fa 8093 0000 		sts debounce+3,r24
 4432               	.LM667:
 4433 14fe 8823      		tst r24
 4434 1500 01F0      		breq .+2
 4435 1502 00C0      		rjmp .L443
 4436               	.LM668:
 4437 1504 8091 0000 		lds r24,buttons
 4438 1508 8860      		ori r24,lo8(8)
 4439 150a 8093 0000 		sts buttons,r24
 4440               	.LM669:
 4441 150e 94FD      		sbrc r25,4
 4442 1510 00C0      		rjmp .L504
 4443               	.L444:
 4444               	.LM670:
 4445 1512 8091 0000 		lds r24,debounce+4
 4446 1516 8F5F      		subi r24,lo8(-(1))
 4447 1518 8093 0000 		sts debounce+4,r24
 4448               	.LM671:
 4449 151c 8823      		tst r24
 4450 151e 01F0      		breq .+2
 4451 1520 00C0      		rjmp .L445
 4452               	.LM672:
 4453 1522 8091 0000 		lds r24,buttons
 4454 1526 8061      		ori r24,lo8(16)
 4455 1528 8093 0000 		sts buttons,r24
 4456               	.LM673:
 4457 152c 922F      		mov r25,r18
 4458 152e 20FD      		sbrc r18,0
 4459 1530 00C0      		rjmp .L505
 4460               	.LVL419:
 4461               	.L446:
 4462               	.LM674:
 4463 1532 8091 0000 		lds r24,debounce+5
 4464 1536 8F5F      		subi r24,lo8(-(1))
 4465 1538 8093 0000 		sts debounce+5,r24
 4466               	.LM675:
 4467 153c 8823      		tst r24
 4468 153e 01F0      		breq .+2
 4469 1540 00C0      		rjmp .L447
 4470               	.LM676:
 4471 1542 8091 0000 		lds r24,buttons
 4472 1546 8062      		ori r24,lo8(32)
 4473 1548 8093 0000 		sts buttons,r24
 4474               	.LM677:
 4475 154c 91FD      		sbrc r25,1
 4476 154e 00C0      		rjmp .L506
 4477               	.L448:
 4478               	.LM678:
 4479 1550 8091 0000 		lds r24,debounce+6
 4480 1554 8F5F      		subi r24,lo8(-(1))
 4481 1556 8093 0000 		sts debounce+6,r24
 4482               	.LM679:
 4483 155a 8823      		tst r24
 4484 155c 01F0      		breq .+2
 4485 155e 00C0      		rjmp .L449
 4486               	.LM680:
 4487 1560 8091 0000 		lds r24,buttons
 4488 1564 8064      		ori r24,lo8(64)
 4489 1566 8093 0000 		sts buttons,r24
 4490               	.LM681:
 4491 156a 92FD      		sbrc r25,2
 4492 156c 00C0      		rjmp .L507
 4493               	.L450:
 4494               	.LM682:
 4495 156e 8091 0000 		lds r24,debounce+7
 4496 1572 8F5F      		subi r24,lo8(-(1))
 4497 1574 8093 0000 		sts debounce+7,r24
 4498               	.LM683:
 4499 1578 8823      		tst r24
 4500 157a 01F0      		breq .+2
 4501 157c 00C0      		rjmp .L451
 4502               	.LM684:
 4503 157e 8091 0000 		lds r24,buttons
 4504 1582 8068      		ori r24,lo8(-128)
 4505 1584 8093 0000 		sts buttons,r24
 4506 1588 00C0      		rjmp .L451
 4507               	.LVL420:
 4508               	.L471:
 4509               	.LBB188:
 4510               	.LBB189:
 4511               	.LM685:
 4512 158a 8091 C000 		lds r24,192
 4513 158e 85FF      		sbrs r24,5
 4514 1590 00C0      		rjmp .L471
 4515               	.LM686:
 4516 1592 9093 C600 		sts 198,r25
 4517 1596 00C0      		rjmp .L434
 4518               	.LVL421:
 4519               	.L456:
 4520               	.LBE189:
 4521               	.LBE188:
 4522               	.LM687:
 4523 1598 159A      		sbi 34-32,5
 4524 159a 00C0      		rjmp .L492
 4525               	.L454:
 4526               	.LM688:
 4527 159c 149A      		sbi 34-32,4
 4528 159e 00C0      		rjmp .L455
 4529               	.L452:
 4530               	.LM689:
 4531 15a0 169A      		sbi 34-32,6
 4532 15a2 00C0      		rjmp .L453
 4533               	.LVL422:
 4534               	.L363:
 4535               	.LM690:
 4536 15a4 8D30      		cpi r24,lo8(13)
 4537 15a6 01F4      		brne .+2
 4538 15a8 00C0      		rjmp .L361
 4539 15aa 8C37      		cpi r24,lo8(124)
 4540 15ac 01F0      		breq .+2
 4541 15ae 00C0      		rjmp .L358
 4542               	.LM691:
 4543 15b0 0E94 0000 		call RX_get_byte
 4544               	.LVL423:
 4545 15b4 182F      		mov r17,r24
 4546               	.LVL424:
 4547               	.LM692:
 4548 15b6 2091 0000 		lds r18,debug_msg
 4549 15ba 2130      		cpi r18,lo8(1)
 4550 15bc 01F0      		breq .L470
 4551 15be 2230      		cpi r18,lo8(2)
 4552 15c0 01F4      		brne .L373
 4553               	.LM693:
 4554 15c2 00D0      		rcall .
 4555 15c4 00D0      		rcall .
 4556 15c6 EDB7      		in r30,__SP_L__
 4557 15c8 FEB7      		in r31,__SP_H__
 4558 15ca 3196      		adiw r30,1
 4559 15cc ADB7      		in r26,__SP_L__
 4560 15ce BEB7      		in r27,__SP_H__
 4561 15d0 1296      		adiw r26,1+1
 4562 15d2 BC92      		st X,r11
 4563 15d4 AE92      		st -X,r10
 4564 15d6 1197      		sbiw r26,1
 4565 15d8 8283      		std Z+2,r24
 4566 15da 1382      		std Z+3,__zero_reg__
 4567 15dc 0E94 0000 		call rprintf
 4568 15e0 0F90      		pop __tmp_reg__
 4569 15e2 0F90      		pop __tmp_reg__
 4570 15e4 0F90      		pop __tmp_reg__
 4571 15e6 0F90      		pop __tmp_reg__
 4572               	.L373:
 4573               	.LM694:
 4574 15e8 E12F      		mov r30,r17
 4575 15ea F0E0      		ldi r31,lo8(0)
 4576               	.LVL425:
 4577 15ec E432      		cpi r30,36
 4578 15ee F105      		cpc r31,__zero_reg__
 4579 15f0 00F4      		brsh .L493
 4580               	.LVL426:
 4581               	.L487:
 4582 15f2 E050      		subi r30,lo8(-(gs(.L408)))
 4583 15f4 F040      		sbci r31,hi8(-(gs(.L408)))
 4584               	.LVL427:
 4585 15f6 EE0F      		lsl r30
 4586 15f8 FF1F      		rol r31
 4587 15fa 0590      		lpm __tmp_reg__,Z+
 4588 15fc F491      		lpm r31,Z
 4589 15fe E02D      		mov r30,__tmp_reg__
 4590 1600 0994      		ijmp
 4591               	.LVL428:
 4592               		.data
 4593               		.section .progmem.gcc_sw_table, "a", @progbits
 4594               		.p2align 1
 4595               	.L408:
 4596               		.data
 4597               		.section .progmem.gcc_sw_table, "a", @progbits
 4598               		.p2align 1
 4599 0000 0000      		.word gs(.L377)
 4600 0002 0000      		.word gs(.L378)
 4601 0004 0000      		.word gs(.L379)
 4602 0006 0000      		.word gs(.L380)
 4603 0008 0000      		.word gs(.L381)
 4604 000a 0000      		.word gs(.L382)
 4605 000c 0000      		.word gs(.L383)
 4606 000e 0000      		.word gs(.L384)
 4607 0010 0000      		.word gs(.L385)
 4608 0012 0000      		.word gs(.L493)
 4609 0014 0000      		.word gs(.L386)
 4610 0016 0000      		.word gs(.L387)
 4611 0018 0000      		.word gs(.L388)
 4612 001a 0000      		.word gs(.L389)
 4613 001c 0000      		.word gs(.L493)
 4614 001e 0000      		.word gs(.L390)
 4615 0020 0000      		.word gs(.L391)
 4616 0022 0000      		.word gs(.L493)
 4617 0024 0000      		.word gs(.L392)
 4618 0026 0000      		.word gs(.L493)
 4619 0028 0000      		.word gs(.L393)
 4620 002a 0000      		.word gs(.L394)
 4621 002c 0000      		.word gs(.L395)
 4622 002e 0000      		.word gs(.L493)
 4623 0030 0000      		.word gs(.L396)
 4624 0032 0000      		.word gs(.L397)
 4625 0034 0000      		.word gs(.L398)
 4626 0036 0000      		.word gs(.L399)
 4627 0038 0000      		.word gs(.L400)
 4628 003a 0000      		.word gs(.L401)
 4629 003c 0000      		.word gs(.L402)
 4630 003e 0000      		.word gs(.L403)
 4631 0040 0000      		.word gs(.L404)
 4632 0042 0000      		.word gs(.L405)
 4633 0044 0000      		.word gs(.L406)
 4634 0046 0000      		.word gs(.L407)
 4635               		.text
 4636               	.LVL429:
 4637               	.L470:
 4638               	.LBB190:
 4639               	.LBB191:
 4640               	.LM695:
 4641 1602 8091 C000 		lds r24,192
 4642 1606 85FF      		sbrs r24,5
 4643 1608 00C0      		rjmp .L470
 4644               	.LM696:
 4645 160a 1093 C600 		sts 198,r17
 4646               	.LBE191:
 4647               	.LBE190:
 4648               	.LM697:
 4649 160e E12F      		mov r30,r17
 4650 1610 F0E0      		ldi r31,lo8(0)
 4651               	.LVL430:
 4652 1612 E432      		cpi r30,36
 4653 1614 F105      		cpc r31,__zero_reg__
 4654 1616 00F0      		brlo .L487
 4655               	.LVL431:
 4656               	.L493:
 4657 1618 2091 0000 		lds r18,debug_msg
 4658               	.LVL432:
 4659               	.L376:
 4660               	.LM698:
 4661 161c 2130      		cpi r18,lo8(1)
 4662 161e 01F0      		breq .L467
 4663               	.LVL433:
 4664 1620 2230      		cpi r18,lo8(2)
 4665 1622 01F0      		breq .+2
 4666 1624 00C0      		rjmp .L357
 4667               	.LM699:
 4668 1626 8091 0000 		lds r24,RX_bytes
 4669 162a 00D0      		rcall .
 4670 162c 00D0      		rcall .
 4671 162e EDB7      		in r30,__SP_L__
 4672 1630 FEB7      		in r31,__SP_H__
 4673 1632 3196      		adiw r30,1
 4674 1634 ADB7      		in r26,__SP_L__
 4675 1636 BEB7      		in r27,__SP_H__
 4676 1638 1296      		adiw r26,1+1
 4677 163a 7C92      		st X,r7
 4678 163c 6E92      		st -X,r6
 4679 163e 1197      		sbiw r26,1
 4680 1640 8283      		std Z+2,r24
 4681 1642 1382      		std Z+3,__zero_reg__
 4682 1644 0E94 0000 		call rprintf
 4683               	.LVL434:
 4684 1648 0F90      		pop __tmp_reg__
 4685 164a 0F90      		pop __tmp_reg__
 4686 164c 0F90      		pop __tmp_reg__
 4687 164e 0F90      		pop __tmp_reg__
 4688 1650 00C0      		rjmp .L357
 4689               	.LVL435:
 4690               	.L467:
 4691               	.LBB192:
 4692               	.LBB193:
 4693               	.LM700:
 4694 1652 8091 C000 		lds r24,192
 4695 1656 85FF      		sbrs r24,5
 4696 1658 00C0      		rjmp .L467
 4697               	.LM701:
 4698 165a 1092 C600 		sts 198,__zero_reg__
 4699 165e 00C0      		rjmp .L357
 4700               	.LVL436:
 4701               	.L399:
 4702               	.LBE193:
 4703               	.LBE192:
 4704               	.LM702:
 4705 1660 0E94 0000 		call RX_get_byte
 4706               	.LVL437:
 4707 1664 182F      		mov r17,r24
 4708               	.LVL438:
 4709               	.LM703:
 4710 1666 0E94 0000 		call RX_get_byte
 4711 166a 682F      		mov r22,r24
 4712               	.LVL439:
 4713               	.LM704:
 4714 166c 812F      		mov r24,r17
 4715 166e 0E94 0000 		call write_data_LCD
 4716               	.LVL440:
 4717               	.L400:
 4718               	.LM705:
 4719 1672 0E94 0000 		call RX_get_byte
 4720               	.LVL441:
 4721 1676 D82E      		mov r13,r24
 4722               	.LVL442:
 4723               	.LM706:
 4724 1678 0E94 0000 		call RX_get_byte
 4725 167c E82E      		mov r14,r24
 4726               	.LVL443:
 4727               	.LM707:
 4728 167e 0E94 0000 		call RX_get_byte
 4729 1682 F82E      		mov r15,r24
 4730               	.LVL444:
 4731 1684 B0E8      		ldi r27,lo8(-128)
 4732 1686 B817      		cp r27,r24
 4733 1688 00F0      		brlo .+2
 4734 168a 00C0      		rjmp .L421
 4735               	.LVL445:
 4736 168c 80E8      		ldi r24,lo8(-128)
 4737 168e F82E      		mov r15,r24
 4738               	.LVL446:
 4739               	.L490:
 4740               	.LM708:
 4741 1690 00E0      		ldi r16,lo8(0)
 4742 1692 10E0      		ldi r17,hi8(0)
 4743               	.LVL447:
 4744               	.L423:
 4745               	.LM709:
 4746 1694 0E94 0000 		call RX_get_byte
 4747 1698 F801      		movw r30,r16
 4748 169a E050      		subi r30,lo8(-(buffer))
 4749 169c F040      		sbci r31,hi8(-(buffer))
 4750 169e 8083      		st Z,r24
 4751 16a0 0F5F      		subi r16,lo8(-(1))
 4752 16a2 1F4F      		sbci r17,hi8(-(1))
 4753               	.LM710:
 4754 16a4 0F15      		cp r16,r15
 4755 16a6 00F0      		brlo .L423
 4756               	.LVL448:
 4757               	.L422:
 4758               	.LM711:
 4759 16a8 8D2D      		mov r24,r13
 4760 16aa 6E2D      		mov r22,r14
 4761 16ac 4F2D      		mov r20,r15
 4762 16ae 20E0      		ldi r18,lo8(buffer)
 4763 16b0 30E0      		ldi r19,hi8(buffer)
 4764 16b2 0E94 0000 		call write_block
 4765 16b6 2091 0000 		lds r18,debug_msg
 4766 16ba 00C0      		rjmp .L376
 4767               	.LVL449:
 4768               	.L401:
 4769               	.LM712:
 4770 16bc 0E94 0000 		call RX_get_byte
 4771               	.LVL450:
 4772               	.LM713:
 4773 16c0 0E94 0000 		call read_data_LCD
 4774 16c4 982F      		mov r25,r24
 4775               	.LVL451:
 4776               	.LM714:
 4777 16c6 2091 0000 		lds r18,debug_msg
 4778 16ca 2230      		cpi r18,lo8(2)
 4779 16cc 01F4      		brne .+2
 4780 16ce 00C0      		rjmp .L495
 4781               	.L468:
 4782               	.LBB194:
 4783               	.LBB195:
 4784               	.LM715:
 4785 16d0 8091 C000 		lds r24,192
 4786 16d4 85FF      		sbrs r24,5
 4787 16d6 00C0      		rjmp .L468
 4788               	.LBE195:
 4789               	.LBE194:
 4790               	.LBB196:
 4791               	.LBB197:
 4792               	.LM716:
 4793 16d8 9093 C600 		sts 198,r25
 4794 16dc 00C0      		rjmp .L376
 4795               	.LVL452:
 4796               	.L403:
 4797               	.LBE197:
 4798               	.LBE196:
 4799               	.LM717:
 4800 16de 0E94 0000 		call RX_get_byte
 4801               	.LVL453:
 4802 16e2 F82E      		mov r15,r24
 4803               	.LVL454:
 4804               	.LM718:
 4805 16e4 0E94 0000 		call RX_get_byte
 4806 16e8 082F      		mov r16,r24
 4807               	.LVL455:
 4808               	.LM719:
 4809 16ea 0E94 0000 		call RX_get_byte
 4810 16ee 182F      		mov r17,r24
 4811               	.LVL456:
 4812 16f0 8138      		cpi r24,lo8(-127)
 4813 16f2 00F0      		brlo .L426
 4814               	.LVL457:
 4815 16f4 10E8      		ldi r17,lo8(-128)
 4816               	.LVL458:
 4817               	.L426:
 4818               	.LM720:
 4819 16f6 8F2D      		mov r24,r15
 4820 16f8 602F      		mov r22,r16
 4821 16fa 412F      		mov r20,r17
 4822 16fc 20E0      		ldi r18,lo8(buffer)
 4823 16fe 30E0      		ldi r19,hi8(buffer)
 4824 1700 0E94 0000 		call read_block
 4825               	.LM721:
 4826 1704 1123      		tst r17
 4827 1706 01F4      		brne .+2
 4828 1708 00C0      		rjmp .L493
 4829 170a 00E0      		ldi r16,lo8(buffer)
 4830 170c E02E      		mov r14,r16
 4831 170e 00E0      		ldi r16,hi8(buffer)
 4832 1710 F02E      		mov r15,r16
 4833               	.LVL459:
 4834 1712 2091 0000 		lds r18,debug_msg
 4835 1716 1150      		subi r17,lo8(-(-1))
 4836 1718 012F      		mov r16,r17
 4837 171a 10E0      		ldi r17,lo8(0)
 4838               	.LVL460:
 4839 171c 0050      		subi r16,lo8(-(buffer+1))
 4840 171e 1040      		sbci r17,hi8(-(buffer+1))
 4841               	.LM722:
 4842 1720 2230      		cpi r18,lo8(2)
 4843 1722 01F0      		breq .L508
 4844               	.L427:
 4845               	.LM723:
 4846 1724 F701      		movw r30,r14
 4847 1726 9081      		ld r25,Z
 4848               	.L429:
 4849               	.LBB199:
 4850               	.LBB200:
 4851               	.LM724:
 4852 1728 8091 C000 		lds r24,192
 4853 172c 85FF      		sbrs r24,5
 4854 172e 00C0      		rjmp .L429
 4855               	.LM725:
 4856 1730 9093 C600 		sts 198,r25
 4857               	.L428:
 4858 1734 0894      		sec
 4859 1736 E11C      		adc r14,__zero_reg__
 4860 1738 F11C      		adc r15,__zero_reg__
 4861               	.LBE200:
 4862               	.LBE199:
 4863               	.LM726:
 4864 173a E016      		cp r14,r16
 4865 173c F106      		cpc r15,r17
 4866 173e 01F4      		brne .+2
 4867 1740 00C0      		rjmp .L376
 4868               	.LM727:
 4869 1742 2230      		cpi r18,lo8(2)
 4870 1744 01F4      		brne .L427
 4871               	.L508:
 4872               	.LM728:
 4873 1746 00D0      		rcall .
 4874 1748 00D0      		rcall .
 4875 174a EDB7      		in r30,__SP_L__
 4876 174c FEB7      		in r31,__SP_H__
 4877 174e 3196      		adiw r30,1
 4878 1750 ADB7      		in r26,__SP_L__
 4879 1752 BEB7      		in r27,__SP_H__
 4880 1754 1296      		adiw r26,1+1
 4881 1756 9C92      		st X,r9
 4882 1758 8E92      		st -X,r8
 4883 175a 1197      		sbiw r26,1
 4884 175c D701      		movw r26,r14
 4885 175e 8C91      		ld r24,X
 4886 1760 8283      		std Z+2,r24
 4887 1762 1382      		std Z+3,__zero_reg__
 4888 1764 0E94 0000 		call rprintf
 4889 1768 0F90      		pop __tmp_reg__
 4890 176a 0F90      		pop __tmp_reg__
 4891 176c 0F90      		pop __tmp_reg__
 4892 176e 0F90      		pop __tmp_reg__
 4893 1770 2091 0000 		lds r18,debug_msg
 4894 1774 00C0      		rjmp .L428
 4895               	.LVL461:
 4896               	.L402:
 4897               	.LM729:
 4898 1776 0E94 0000 		call RX_get_byte
 4899               	.LVL462:
 4900 177a 182F      		mov r17,r24
 4901               	.LVL463:
 4902               	.LM730:
 4903 177c 0E94 0000 		call RX_get_byte
 4904 1780 682F      		mov r22,r24
 4905               	.LVL464:
 4906               	.LM731:
 4907 1782 812F      		mov r24,r17
 4908 1784 0E94 0000 		call read_byte
 4909               	.LVL465:
 4910 1788 982F      		mov r25,r24
 4911               	.LVL466:
 4912               	.LM732:
 4913 178a 2091 0000 		lds r18,debug_msg
 4914 178e 2230      		cpi r18,lo8(2)
 4915 1790 01F4      		brne .+2
 4916 1792 00C0      		rjmp .L495
 4917               	.L469:
 4918               	.LBB201:
 4919               	.LBB198:
 4920               	.LM733:
 4921 1794 8091 C000 		lds r24,192
 4922 1798 85FF      		sbrs r24,5
 4923 179a 00C0      		rjmp .L469
 4924               	.LM734:
 4925 179c 9093 C600 		sts 198,r25
 4926 17a0 00C0      		rjmp .L376
 4927               	.LVL467:
 4928               	.L407:
 4929               	.LBE198:
 4930               	.LBE201:
 4931               	.LM735:
 4932 17a2 9091 0000 		lds r25,buttons
 4933               	.L431:
 4934               	.LBB202:
 4935               	.LBB203:
 4936               	.LM736:
 4937 17a6 8091 C000 		lds r24,192
 4938 17aa 85FF      		sbrs r24,5
 4939 17ac 00C0      		rjmp .L431
 4940               	.LM737:
 4941 17ae 9093 C600 		sts 198,r25
 4942 17b2 00C0      		rjmp .L493
 4943               	.L406:
 4944               	.LBE203:
 4945               	.LBE202:
 4946               	.LM738:
 4947 17b4 0E94 0000 		call RX_get_byte
 4948               	.LVL468:
 4949 17b8 8093 0000 		sts RGB_red,r24
 4950               	.LM739:
 4951 17bc 0E94 0000 		call RX_get_byte
 4952 17c0 8093 0000 		sts RGB_green,r24
 4953               	.LM740:
 4954 17c4 0E94 0000 		call RX_get_byte
 4955 17c8 8093 0000 		sts RGB_blue,r24
 4956 17cc 2091 0000 		lds r18,debug_msg
 4957 17d0 00C0      		rjmp .L376
 4958               	.LVL469:
 4959               	.L405:
 4960               	.LM741:
 4961 17d2 0E94 0000 		call RX_get_byte
 4962               	.LVL470:
 4963               	.LM742:
 4964 17d6 886B      		ori r24,lo8(-72)
 4965 17d8 60E0      		ldi r22,lo8(0)
 4966 17da 0E94 0000 		call write_command_LCD
 4967 17de 2091 0000 		lds r18,debug_msg
 4968 17e2 00C0      		rjmp .L376
 4969               	.LVL471:
 4970               	.L404:
 4971               	.LM743:
 4972 17e4 0E94 0000 		call RX_get_byte
 4973               	.LVL472:
 4974               	.LM744:
 4975 17e8 8064      		ori r24,lo8(64)
 4976 17ea 60E0      		ldi r22,lo8(0)
 4977 17ec 0E94 0000 		call write_command_LCD
 4978 17f0 2091 0000 		lds r18,debug_msg
 4979 17f4 00C0      		rjmp .L376
 4980               	.LVL473:
 4981               	.L398:
 4982               	.LM745:
 4983 17f6 0E94 0000 		call RX_get_byte
 4984               	.LVL474:
 4985 17fa 182F      		mov r17,r24
 4986               	.LVL475:
 4987               	.LM746:
 4988 17fc 0E94 0000 		call RX_get_byte
 4989 1800 682F      		mov r22,r24
 4990               	.LVL476:
 4991               	.LM747:
 4992 1802 812F      		mov r24,r17
 4993 1804 0E94 0000 		call write_command_LCD
 4994               	.LVL477:
 4995 1808 2091 0000 		lds r18,debug_msg
 4996 180c 00C0      		rjmp .L376
 4997               	.LVL478:
 4998               	.L397:
 4999               	.LM748:
 5000 180e 0E94 0000 		call RX_get_byte
 5001               	.LVL479:
 5002 1812 8093 0000 		sts y_offset,r24
 5003               	.LM749:
 5004 1816 8823      		tst r24
 5005 1818 04F0      		brlt .+2
 5006 181a 00C0      		rjmp .L493
 5007 181c 4092 0000 		sts y_offset,r4
 5008 1820 2091 0000 		lds r18,debug_msg
 5009 1824 00C0      		rjmp .L376
 5010               	.LVL480:
 5011               	.L396:
 5012               	.LM750:
 5013 1826 0E94 0000 		call RX_get_byte
 5014               	.LVL481:
 5015 182a 8093 0000 		sts x_offset,r24
 5016               	.LM751:
 5017 182e 803A      		cpi r24,lo8(-96)
 5018 1830 00F4      		brsh .+2
 5019 1832 00C0      		rjmp .L493
 5020 1834 3092 0000 		sts x_offset,r3
 5021 1838 2091 0000 		lds r18,debug_msg
 5022 183c 00C0      		rjmp .L376
 5023               	.LVL482:
 5024               	.L395:
 5025               	.LM752:
 5026 183e 0E94 0000 		call RX_get_byte
 5027               	.LVL483:
 5028 1842 F82E      		mov r15,r24
 5029               	.LVL484:
 5030               	.LM753:
 5031 1844 0E94 0000 		call RX_get_byte
 5032 1848 E82E      		mov r14,r24
 5033               	.LVL485:
 5034               	.LM754:
 5035 184a 0E94 0000 		call RX_get_byte
 5036 184e 082F      		mov r16,r24
 5037               	.LVL486:
 5038               	.LM755:
 5039 1850 0E94 0000 		call RX_get_byte
 5040 1854 182F      		mov r17,r24
 5041               	.LVL487:
 5042               	.LM756:
 5043 1856 0E94 0000 		call RX_get_byte
 5044 185a 282F      		mov r18,r24
 5045               	.LVL488:
 5046               	.LM757:
 5047 185c 8F2D      		mov r24,r15
 5048 185e 6E2D      		mov r22,r14
 5049 1860 412F      		mov r20,r17
 5050 1862 EE24      		clr r14
 5051 1864 FF24      		clr r15
 5052               	.LVL489:
 5053 1866 0E94 0000 		call bitblt
 5054               	.LVL490:
 5055 186a 2091 0000 		lds r18,debug_msg
 5056 186e 00C0      		rjmp .L376
 5057               	.LVL491:
 5058               	.L394:
 5059               	.LM758:
 5060 1870 6091 0000 		lds r22,splash_screen
 5061 1874 6225      		eor r22,r2
 5062 1876 6093 0000 		sts splash_screen,r22
 5063               	.LM759:
 5064               	/* #APP */
 5065               	 ;  717 "main.c" 1
 5066 187a F894      		cli
 5067               	 ;  0 "" 2
 5068               	.LM760:
 5069               	/* #NOAPP */
 5070 187c 82E0      		ldi r24,lo8(2)
 5071 187e 90E0      		ldi r25,hi8(2)
 5072 1880 0E94 0000 		call EEPROM_write
 5073               	.LVL492:
 5074               	.LM761:
 5075               	/* #APP */
 5076               	 ;  719 "main.c" 1
 5077 1884 7894      		sei
 5078               	 ;  0 "" 2
 5079               	/* #NOAPP */
 5080 1886 2091 0000 		lds r18,debug_msg
 5081 188a 00C0      		rjmp .L376
 5082               	.LVL493:
 5083               	.L393:
 5084               	.LM762:
 5085 188c 8091 0000 		lds r24,reverse
 5086 1890 8225      		eor r24,r2
 5087 1892 8093 0000 		sts reverse,r24
 5088               	.LM763:
 5089 1896 81E0      		ldi r24,lo8(1)
 5090 1898 0E94 0000 		call clear_screen
 5091               	.LVL494:
 5092               	.LM764:
 5093               	/* #APP */
 5094               	 ;  710 "main.c" 1
 5095 189c F894      		cli
 5096               	 ;  0 "" 2
 5097               	.LM765:
 5098               	/* #NOAPP */
 5099 189e 83E0      		ldi r24,lo8(3)
 5100 18a0 90E0      		ldi r25,hi8(3)
 5101 18a2 6091 0000 		lds r22,reverse
 5102 18a6 0E94 0000 		call EEPROM_write
 5103               	.LM766:
 5104               	/* #APP */
 5105               	 ;  712 "main.c" 1
 5106 18aa 7894      		sei
 5107               	 ;  0 "" 2
 5108               	/* #NOAPP */
 5109 18ac 2091 0000 		lds r18,debug_msg
 5110 18b0 00C0      		rjmp .L376
 5111               	.LVL495:
 5112               	.L392:
 5113               	.LM767:
 5114 18b2 0E94 0000 		call RX_get_byte
 5115               	.LVL496:
 5116 18b6 182F      		mov r17,r24
 5117               	.LVL497:
 5118               	.LM768:
 5119 18b8 0E94 0000 		call RX_get_byte
 5120 18bc F82E      		mov r15,r24
 5121               	.LVL498:
 5122               	.LM769:
 5123 18be 0E94 0000 		call RX_get_byte
 5124 18c2 E82E      		mov r14,r24
 5125               	.LVL499:
 5126               	.LM770:
 5127 18c4 0E94 0000 		call RX_get_byte
 5128 18c8 D82E      		mov r13,r24
 5129               	.LVL500:
 5130               	.LM771:
 5131 18ca 0E94 0000 		call RX_get_byte
 5132 18ce 082F      		mov r16,r24
 5133               	.LVL501:
 5134               	.LM772:
 5135 18d0 812F      		mov r24,r17
 5136 18d2 6F2D      		mov r22,r15
 5137 18d4 4E2D      		mov r20,r14
 5138 18d6 2D2D      		mov r18,r13
 5139 18d8 0E94 0000 		call draw_block
 5140 18dc 2091 0000 		lds r18,debug_msg
 5141 18e0 00C0      		rjmp .L376
 5142               	.LVL502:
 5143               	.L391:
 5144               	.LM773:
 5145 18e2 0E94 0000 		call RX_get_byte
 5146               	.LVL503:
 5147 18e6 082F      		mov r16,r24
 5148               	.LVL504:
 5149               	.LM774:
 5150 18e8 0E94 0000 		call RX_get_byte
 5151 18ec 182F      		mov r17,r24
 5152               	.LVL505:
 5153               	.LM775:
 5154 18ee 0E94 0000 		call RX_get_byte
 5155               	.LM776:
 5156 18f2 602F      		mov r22,r16
 5157 18f4 412F      		mov r20,r17
 5158 18f6 0E94 0000 		call pixel
 5159 18fa 2091 0000 		lds r18,debug_msg
 5160 18fe 00C0      		rjmp .L376
 5161               	.LVL506:
 5162               	.L390:
 5163               	.LM777:
 5164 1900 0E94 0000 		call RX_get_byte
 5165               	.LVL507:
 5166 1904 082F      		mov r16,r24
 5167               	.LVL508:
 5168               	.LM778:
 5169 1906 0E94 0000 		call RX_get_byte
 5170 190a F82E      		mov r15,r24
 5171               	.LM779:
 5172 190c 0E94 0000 		call RX_get_byte
 5173 1910 182F      		mov r17,r24
 5174               	.LVL509:
 5175               	.LM780:
 5176 1912 0E94 0000 		call RX_get_byte
 5177 1916 282F      		mov r18,r24
 5178               	.LVL510:
 5179               	.LM781:
 5180 1918 802F      		mov r24,r16
 5181 191a 6F2D      		mov r22,r15
 5182 191c 412F      		mov r20,r17
 5183 191e 0E94 0000 		call box
 5184               	.LVL511:
 5185 1922 2091 0000 		lds r18,debug_msg
 5186 1926 00C0      		rjmp .L376
 5187               	.LVL512:
 5188               	.L389:
 5189               	.LM782:
 5190 1928 0E94 0000 		call RX_get_byte
 5191               	.LVL513:
 5192 192c 8431      		cpi r24,lo8(20)
 5193               	.LVL514:
 5194 192e 00F0      		brlo .L419
 5195 1930 83E1      		ldi r24,lo8(19)
 5196               	.L419:
 5197 1932 A2E8      		ldi r26,lo8(-126)
 5198 1934 8A9F      		mul r24,r26
 5199 1936 7001      		movw r14,r0
 5200 1938 1124      		clr r1
 5201               	.LVL515:
 5202 193a E0E0      		ldi r30,lo8(sprite)
 5203 193c F0E0      		ldi r31,hi8(sprite)
 5204 193e EE0E      		add r14,r30
 5205 1940 FF1E      		adc r15,r31
 5206 1942 00E0      		ldi r16,lo8(0)
 5207 1944 10E0      		ldi r17,hi8(0)
 5208               	.LVL516:
 5209               	.L420:
 5210               	.LM783:
 5211 1946 0E94 0000 		call RX_get_byte
 5212               	.LVL517:
 5213 194a D701      		movw r26,r14
 5214 194c 8D93      		st X+,r24
 5215 194e 7D01      		movw r14,r26
 5216               	.LM784:
 5217 1950 0F5F      		subi r16,lo8(-(1))
 5218 1952 1F4F      		sbci r17,hi8(-(1))
 5219 1954 0238      		cpi r16,130
 5220 1956 1105      		cpc r17,__zero_reg__
 5221 1958 01F4      		brne .L420
 5222 195a 00C0      		rjmp .L493
 5223               	.LVL518:
 5224               	.L388:
 5225               	.LM785:
 5226 195c 0E94 0000 		call RX_get_byte
 5227               	.LVL519:
 5228 1960 182F      		mov r17,r24
 5229               	.LVL520:
 5230               	.LM786:
 5231 1962 0E94 0000 		call RX_get_byte
 5232 1966 F82E      		mov r15,r24
 5233               	.LVL521:
 5234               	.LM787:
 5235 1968 0E94 0000 		call RX_get_byte
 5236 196c E82E      		mov r14,r24
 5237               	.LVL522:
 5238               	.LM788:
 5239 196e 0E94 0000 		call RX_get_byte
 5240 1972 082F      		mov r16,r24
 5241               	.LVL523:
 5242               	.LM789:
 5243 1974 0E94 0000 		call RX_get_byte
 5244               	.LM790:
 5245 1978 612F      		mov r22,r17
 5246 197a 4F2D      		mov r20,r15
 5247 197c 2E2D      		mov r18,r14
 5248 197e 0E94 0000 		call line
 5249 1982 2091 0000 		lds r18,debug_msg
 5250 1986 00C0      		rjmp .L376
 5251               	.LVL524:
 5252               	.L377:
 5253               	.LM791:
 5254 1988 80E0      		ldi r24,lo8(0)
 5255 198a 0E94 0000 		call clear_screen
 5256               	.LVL525:
 5257               	.LM792:
 5258 198e 1092 0000 		sts x_offset,__zero_reg__
 5259               	.LM793:
 5260 1992 1092 0000 		sts y_offset,__zero_reg__
 5261 1996 2091 0000 		lds r18,debug_msg
 5262 199a 00C0      		rjmp .L376
 5263               	.LVL526:
 5264               	.L379:
 5265               	.LM794:
 5266 199c 0E94 0000 		call RX_get_byte
 5267               	.LVL527:
 5268 19a0 8093 0000 		sts BL_dutycycle,r24
 5269               	.LM795:
 5270 19a4 0E94 0000 		call set_backlight
 5271               	.LM796:
 5272               	/* #APP */
 5273               	 ;  451 "main.c" 1
 5274 19a8 F894      		cli
 5275               	 ;  0 "" 2
 5276               	.LM797:
 5277               	/* #NOAPP */
 5278 19aa 81E0      		ldi r24,lo8(1)
 5279 19ac 90E0      		ldi r25,hi8(1)
 5280 19ae 6091 0000 		lds r22,BL_dutycycle
 5281 19b2 0E94 0000 		call EEPROM_write
 5282               	.LM798:
 5283               	/* #APP */
 5284               	 ;  453 "main.c" 1
 5285 19b6 7894      		sei
 5286               	 ;  0 "" 2
 5287               	/* #NOAPP */
 5288 19b8 2091 0000 		lds r18,debug_msg
 5289 19bc 00C0      		rjmp .L376
 5290               	.LVL528:
 5291               	.L378:
 5292               	.LM799:
 5293 19be 0E94 0000 		call RX_get_byte
 5294               	.LVL529:
 5295 19c2 8093 0000 		sts debug_msg,r24
 5296               	.LM800:
 5297 19c6 8330      		cpi r24,lo8(3)
 5298 19c8 00F0      		brlo .L409
 5299 19ca 82E0      		ldi r24,lo8(2)
 5300 19cc 8093 0000 		sts debug_msg,r24
 5301               	.L409:
 5302               	.LM801:
 5303               	/* #APP */
 5304               	 ;  439 "main.c" 1
 5305 19d0 F894      		cli
 5306               	 ;  0 "" 2
 5307               	.LM802:
 5308               	/* #NOAPP */
 5309 19d2 84E0      		ldi r24,lo8(4)
 5310 19d4 90E0      		ldi r25,hi8(4)
 5311 19d6 6091 0000 		lds r22,debug_msg
 5312 19da 0E94 0000 		call EEPROM_write
 5313               	.LM803:
 5314               	/* #APP */
 5315               	 ;  441 "main.c" 1
 5316 19de 7894      		sei
 5317               	 ;  0 "" 2
 5318               	/* #NOAPP */
 5319 19e0 2091 0000 		lds r18,debug_msg
 5320 19e4 00C0      		rjmp .L376
 5321               	.LVL530:
 5322               	.L387:
 5323               	.LM804:
 5324 19e6 0E94 0000 		call RX_get_byte
 5325               	.LVL531:
 5326 19ea 082F      		mov r16,r24
 5327               	.LVL532:
 5328               	.LM805:
 5329 19ec 0E94 0000 		call RX_get_byte
 5330 19f0 F82E      		mov r15,r24
 5331               	.LVL533:
 5332               	.LM806:
 5333 19f2 0E94 0000 		call RX_get_byte
 5334 19f6 182F      		mov r17,r24
 5335               	.LVL534:
 5336               	.LM807:
 5337 19f8 0E94 0000 		call RX_get_byte
 5338 19fc 282F      		mov r18,r24
 5339               	.LVL535:
 5340               	.LM808:
 5341 19fe 802F      		mov r24,r16
 5342 1a00 6F2D      		mov r22,r15
 5343 1a02 412F      		mov r20,r17
 5344 1a04 0E94 0000 		call draw_sprite
 5345               	.LVL536:
 5346 1a08 2091 0000 		lds r18,debug_msg
 5347 1a0c 00C0      		rjmp .L376
 5348               	.LVL537:
 5349               	.L386:
 5350               	.LM809:
 5351 1a0e 0E94 0000 		call RX_get_byte
 5352               	.LVL538:
 5353               	.LM810:
 5354 1a12 8830      		cpi r24,lo8(8)
 5355               	.LVL539:
 5356 1a14 00F0      		brlo .L418
 5357 1a16 87E0      		ldi r24,lo8(7)
 5358               	.L418:
 5359 1a18 8093 0000 		sts font_mode,r24
 5360 1a1c 2091 0000 		lds r18,debug_msg
 5361 1a20 00C0      		rjmp .L376
 5362               	.LVL540:
 5363               	.L385:
 5364               	.LM811:
 5365 1a22 8091 0000 		lds r24,aux_font
 5366 1a26 8130      		cpi r24,lo8(1)
 5367 1a28 01F4      		brne .+2
 5368 1a2a 00C0      		rjmp .L509
 5369               	.LM812:
 5370 1a2c 2092 0000 		sts aux_font,r2
 5371               	.LM813:
 5372 1a30 A981      		ldd r26,Y+1
 5373 1a32 A093 0000 		sts font_w,r26
 5374               	.LM814:
 5375 1a36 BA81      		ldd r27,Y+2
 5376 1a38 B093 0000 		sts font_h,r27
 5377               	.LM815:
 5378 1a3c EB81      		ldd r30,Y+3
 5379 1a3e E093 0000 		sts font_space,r30
 5380               	.LM816:
 5381 1a42 FC81      		ldd r31,Y+4
 5382               	.LVL541:
 5383 1a44 F093 0000 		sts font_bytes,r31
 5384               	.LM817:
 5385 1a48 8D81      		ldd r24,Y+5
 5386 1a4a 9E81      		ldd r25,Y+6
 5387 1a4c 892B      		or r24,r25
 5388 1a4e 01F0      		breq .L417
 5389               	.LM818:
 5390 1a50 9F81      		ldd r25,Y+7
 5391 1a52 9093 0000 		sts font_bytes,r25
 5392               	.L417:
 5393               	.LM819:
 5394 1a56 8091 0000 		lds r24,font_bytes
 5395 1a5a 9091 0000 		lds r25,font_w
 5396 1a5e 899F      		mul r24,r25
 5397 1a60 802D      		mov r24,r0
 5398 1a62 1124      		clr r1
 5399 1a64 8093 0000 		sts font_bytes,r24
 5400 1a68 2091 0000 		lds r18,debug_msg
 5401 1a6c 00C0      		rjmp .L376
 5402               	.LVL542:
 5403               	.L384:
 5404               	.LM820:
 5405 1a6e 0E94 0000 		call RX_get_byte
 5406               	.LVL543:
 5407 1a72 982F      		mov r25,r24
 5408               	.LVL544:
 5409               	.LM821:
 5410 1a74 8150      		subi r24,lo8(-(-1))
 5411 1a76 8630      		cpi r24,lo8(6)
 5412 1a78 00F4      		brsh .L414
 5413 1a7a 9093 0000 		sts baud_rate,r25
 5414               	.L414:
 5415               	.LM822:
 5416 1a7e 8091 0000 		lds r24,baud_rate
 5417 1a82 0E94 0000 		call set_baud
 5418               	.LVL545:
 5419               	.LM823:
 5420               	/* #APP */
 5421               	 ;  523 "main.c" 1
 5422 1a86 F894      		cli
 5423               	 ;  0 "" 2
 5424               	.LM824:
 5425               	/* #NOAPP */
 5426 1a88 80E0      		ldi r24,lo8(0)
 5427 1a8a 90E0      		ldi r25,hi8(0)
 5428 1a8c 6091 0000 		lds r22,baud_rate
 5429 1a90 0E94 0000 		call EEPROM_write
 5430               	.LM825:
 5431               	/* #APP */
 5432               	 ;  525 "main.c" 1
 5433 1a94 7894      		sei
 5434               	 ;  0 "" 2
 5435               	/* #NOAPP */
 5436 1a96 2091 0000 		lds r18,debug_msg
 5437 1a9a 00C0      		rjmp .L376
 5438               	.LVL546:
 5439               	.L383:
 5440               	.LM826:
 5441 1a9c 0E94 0000 		call LCD_reset
 5442               	.LVL547:
 5443 1aa0 2091 0000 		lds r18,debug_msg
 5444 1aa4 00C0      		rjmp .L376
 5445               	.LVL548:
 5446               	.L382:
 5447               	.LM827:
 5448 1aa6 0E94 0000 		call RX_get_byte
 5449               	.LVL549:
 5450 1aaa E82E      		mov r14,r24
 5451               	.LVL550:
 5452               	.LM828:
 5453 1aac 0E94 0000 		call RX_get_byte
 5454 1ab0 F82E      		mov r15,r24
 5455               	.LVL551:
 5456               	.LM829:
 5457 1ab2 0E94 0000 		call RX_get_byte
 5458 1ab6 182F      		mov r17,r24
 5459               	.LVL552:
 5460               	.LM830:
 5461 1ab8 0E94 0000 		call RX_get_byte
 5462 1abc 282F      		mov r18,r24
 5463               	.LVL553:
 5464               	.LM831:
 5465 1abe 8091 0000 		lds r24,reverse
 5466 1ac2 8130      		cpi r24,lo8(1)
 5467 1ac4 01F4      		brne .+2
 5468 1ac6 00C0      		rjmp .L510
 5469 1ac8 00E0      		ldi r16,lo8(0)
 5470               	.LVL554:
 5471               	.L413:
 5472               	.LM832:
 5473 1aca 8E2D      		mov r24,r14
 5474 1acc 6F2D      		mov r22,r15
 5475 1ace 412F      		mov r20,r17
 5476 1ad0 0E94 0000 		call draw_block
 5477               	.LVL555:
 5478 1ad4 2091 0000 		lds r18,debug_msg
 5479 1ad8 00C0      		rjmp .L376
 5480               	.LVL556:
 5481               	.L381:
 5482               	.LM833:
 5483 1ada 8091 0000 		lds r24,CR_LF
 5484 1ade 8130      		cpi r24,lo8(1)
 5485 1ae0 01F4      		brne .+2
 5486 1ae2 00C0      		rjmp .L511
 5487               	.LM834:
 5488 1ae4 2092 0000 		sts CR_LF,r2
 5489               	.L411:
 5490               	.LM835:
 5491               	/* #APP */
 5492               	 ;  479 "main.c" 1
 5493 1ae8 F894      		cli
 5494               	 ;  0 "" 2
 5495               	.LM836:
 5496               	/* #NOAPP */
 5497 1aea 85E0      		ldi r24,lo8(5)
 5498 1aec 90E0      		ldi r25,hi8(5)
 5499 1aee 6091 0000 		lds r22,CR_LF
 5500 1af2 0E94 0000 		call EEPROM_write
 5501               	.LVL557:
 5502               	.LM837:
 5503               	/* #APP */
 5504               	 ;  481 "main.c" 1
 5505 1af6 7894      		sei
 5506               	 ;  0 "" 2
 5507               	/* #NOAPP */
 5508 1af8 2091 0000 		lds r18,debug_msg
 5509 1afc 00C0      		rjmp .L376
 5510               	.LVL558:
 5511               	.L380:
 5512               	.LM838:
 5513 1afe 0E94 0000 		call RX_get_byte
 5514               	.LVL559:
 5515 1b02 182F      		mov r17,r24
 5516               	.LVL560:
 5517               	.LM839:
 5518 1b04 0E94 0000 		call RX_get_byte
 5519 1b08 082F      		mov r16,r24
 5520               	.LVL561:
 5521               	.LM840:
 5522 1b0a 0E94 0000 		call RX_get_byte
 5523 1b0e F82E      		mov r15,r24
 5524               	.LVL562:
 5525               	.LM841:
 5526 1b10 0E94 0000 		call RX_get_byte
 5527               	.LM842:
 5528 1b14 612F      		mov r22,r17
 5529 1b16 70E0      		ldi r23,lo8(0)
 5530 1b18 402F      		mov r20,r16
 5531 1b1a 50E0      		ldi r21,lo8(0)
 5532 1b1c 2F2D      		mov r18,r15
 5533 1b1e 30E0      		ldi r19,lo8(0)
 5534 1b20 0E94 0000 		call circle
 5535 1b24 2091 0000 		lds r18,debug_msg
 5536 1b28 00C0      		rjmp .L376
 5537               	.LVL563:
 5538               	.L361:
 5539               	.LM843:
 5540 1b2a 8091 0000 		lds r24,font_space
 5541               	.LVL564:
 5542 1b2e 6091 0000 		lds r22,font_w
 5543 1b32 70E0      		ldi r23,lo8(0)
 5544 1b34 680F      		add r22,r24
 5545 1b36 711D      		adc r23,__zero_reg__
 5546 1b38 8091 0000 		lds r24,x_offset
 5547 1b3c 90E0      		ldi r25,lo8(0)
 5548               	.LVL565:
 5549 1b3e 0E94 0000 		call __divmodhi4
 5550 1b42 8093 0000 		sts x_offset,r24
 5551               	.LM844:
 5552 1b46 9091 0000 		lds r25,debug_msg
 5553 1b4a 9230      		cpi r25,lo8(2)
 5554 1b4c 01F0      		breq .L466
 5555               	.L365:
 5556               	.LM845:
 5557 1b4e 8091 0000 		lds r24,CR_LF
 5558 1b52 8130      		cpi r24,lo8(1)
 5559 1b54 01F0      		breq .+2
 5560 1b56 00C0      		rjmp .L357
 5561               	.LM846:
 5562 1b58 9230      		cpi r25,lo8(2)
 5563 1b5a 01F0      		breq .L465
 5564               	.L367:
 5565               	.LM847:
 5566 1b5c 7091 0000 		lds r23,y_offset
 5567 1b60 6091 0000 		lds r22,font_h
 5568 1b64 862F      		mov r24,r22
 5569 1b66 90E0      		ldi r25,lo8(0)
 5570 1b68 472F      		mov r20,r23
 5571 1b6a 50E0      		ldi r21,lo8(0)
 5572 1b6c 2227      		clr r18
 5573 1b6e 3327      		clr r19
 5574 1b70 281B      		sub r18,r24
 5575 1b72 390B      		sbc r19,r25
 5576 1b74 281B      		sub r18,r24
 5577 1b76 390B      		sbc r19,r25
 5578 1b78 205C      		subi r18,lo8(-(64))
 5579 1b7a 3F4F      		sbci r19,hi8(-(64))
 5580 1b7c 2417      		cp r18,r20
 5581 1b7e 3507      		cpc r19,r21
 5582 1b80 04F0      		brlt .+2
 5583 1b82 00C0      		rjmp .L369
 5584               	.LM848:
 5585 1b84 872F      		mov r24,r23
 5586 1b86 0E94 0000 		call __udivmodqi4
 5587 1b8a 9093 0000 		sts y_offset,r25
 5588 1b8e 00C0      		rjmp .L357
 5589               	.L466:
 5590               	.LBB204:
 5591               	.LBB181:
 5592               	.LM849:
 5593 1b90 8091 C000 		lds r24,192
 5594 1b94 85FF      		sbrs r24,5
 5595 1b96 00C0      		rjmp .L466
 5596               	.LM850:
 5597 1b98 5092 C600 		sts 198,r5
 5598 1b9c 00C0      		rjmp .L365
 5599               	.L465:
 5600               	.LBE181:
 5601               	.LBE204:
 5602               	.LBB205:
 5603               	.LBB206:
 5604               	.LM851:
 5605 1b9e 8091 C000 		lds r24,192
 5606 1ba2 85FF      		sbrs r24,5
 5607 1ba4 00C0      		rjmp .L465
 5608               	.LM852:
 5609 1ba6 C092 C600 		sts 198,r12
 5610 1baa 00C0      		rjmp .L367
 5611               	.LVL566:
 5612               	.L499:
 5613               	.LBE206:
 5614               	.LBE205:
 5615               	.LM853:
 5616 1bac 0E94 0000 		call del_char
 5617               	.LVL567:
 5618               	.LM854:
 5619 1bb0 8091 0000 		lds r24,debug_msg
 5620 1bb4 8230      		cpi r24,lo8(2)
 5621 1bb6 01F0      		breq .+2
 5622 1bb8 00C0      		rjmp .L357
 5623               	.L472:
 5624               	.LBB207:
 5625               	.LBB208:
 5626               	.LM855:
 5627 1bba 8091 C000 		lds r24,192
 5628 1bbe 85FF      		sbrs r24,5
 5629 1bc0 00C0      		rjmp .L472
 5630               	.LM856:
 5631 1bc2 88E0      		ldi r24,lo8(8)
 5632 1bc4 8093 C600 		sts 198,r24
 5633 1bc8 00C0      		rjmp .L357
 5634               	.LVL568:
 5635               	.L360:
 5636               	.LBE208:
 5637               	.LBE207:
 5638               	.LM857:
 5639 1bca 7091 0000 		lds r23,y_offset
 5640 1bce 6091 0000 		lds r22,font_h
 5641 1bd2 862F      		mov r24,r22
 5642               	.LVL569:
 5643 1bd4 90E0      		ldi r25,lo8(0)
 5644               	.LVL570:
 5645 1bd6 472F      		mov r20,r23
 5646 1bd8 50E0      		ldi r21,lo8(0)
 5647 1bda 2227      		clr r18
 5648 1bdc 3327      		clr r19
 5649 1bde 281B      		sub r18,r24
 5650 1be0 390B      		sbc r19,r25
 5651 1be2 281B      		sub r18,r24
 5652 1be4 390B      		sbc r19,r25
 5653 1be6 205C      		subi r18,lo8(-(64))
 5654 1be8 3F4F      		sbci r19,hi8(-(64))
 5655 1bea 2417      		cp r18,r20
 5656 1bec 3507      		cpc r19,r21
 5657 1bee 04F4      		brge .L370
 5658               	.LM858:
 5659 1bf0 872F      		mov r24,r23
 5660 1bf2 0E94 0000 		call __udivmodqi4
 5661 1bf6 9093 0000 		sts y_offset,r25
 5662               	.L371:
 5663               	.LM859:
 5664 1bfa 8091 0000 		lds r24,debug_msg
 5665 1bfe 8230      		cpi r24,lo8(2)
 5666 1c00 01F0      		breq .+2
 5667 1c02 00C0      		rjmp .L357
 5668               	.L464:
 5669               	.LBB209:
 5670               	.LBB178:
 5671               	.LM860:
 5672 1c04 8091 C000 		lds r24,192
 5673 1c08 85FF      		sbrs r24,5
 5674 1c0a 00C0      		rjmp .L464
 5675               	.LM861:
 5676 1c0c C092 C600 		sts 198,r12
 5677 1c10 00C0      		rjmp .L357
 5678               	.L370:
 5679               	.LBE178:
 5680               	.LBE209:
 5681               	.LM862:
 5682 1c12 670F      		add r22,r23
 5683 1c14 6093 0000 		sts y_offset,r22
 5684 1c18 00C0      		rjmp .L371
 5685               	.L369:
 5686               	.LM863:
 5687 1c1a 670F      		add r22,r23
 5688 1c1c 6093 0000 		sts y_offset,r22
 5689 1c20 00C0      		rjmp .L357
 5690               	.LVL571:
 5691               	.L421:
 5692               	.LM864:
 5693 1c22 8823      		tst r24
 5694 1c24 01F0      		breq .+2
 5695 1c26 00C0      		rjmp .L490
 5696 1c28 00C0      		rjmp .L422
 5697               	.LVL572:
 5698               	.L495:
 5699               	.LM865:
 5700 1c2a 00D0      		rcall .
 5701 1c2c 00D0      		rcall .
 5702 1c2e EDB7      		in r30,__SP_L__
 5703 1c30 FEB7      		in r31,__SP_H__
 5704 1c32 3196      		adiw r30,1
 5705 1c34 ADB7      		in r26,__SP_L__
 5706 1c36 BEB7      		in r27,__SP_H__
 5707 1c38 1296      		adiw r26,1+1
 5708 1c3a 9C92      		st X,r9
 5709 1c3c 8E92      		st -X,r8
 5710 1c3e 1197      		sbiw r26,1
 5711 1c40 9283      		std Z+2,r25
 5712 1c42 1382      		std Z+3,__zero_reg__
 5713 1c44 0E94 0000 		call rprintf
 5714               	.LVL573:
 5715 1c48 0F90      		pop __tmp_reg__
 5716 1c4a 0F90      		pop __tmp_reg__
 5717 1c4c 0F90      		pop __tmp_reg__
 5718 1c4e 0F90      		pop __tmp_reg__
 5719 1c50 2091 0000 		lds r18,debug_msg
 5720 1c54 00C0      		rjmp .L376
 5721               	.LVL574:
 5722               	.L509:
 5723               	.LM866:
 5724 1c56 1092 0000 		sts aux_font,__zero_reg__
 5725               	.LM867:
 5726 1c5a B885      		ldd r27,Y+8
 5727 1c5c B093 0000 		sts font_w,r27
 5728               	.LM868:
 5729 1c60 E985      		ldd r30,Y+9
 5730 1c62 E093 0000 		sts font_h,r30
 5731               	.LM869:
 5732 1c66 FA85      		ldd r31,Y+10
 5733               	.LVL575:
 5734 1c68 F093 0000 		sts font_space,r31
 5735               	.LM870:
 5736 1c6c 2B85      		ldd r18,Y+11
 5737 1c6e 2093 0000 		sts font_bytes,r18
 5738               	.LM871:
 5739 1c72 8C85      		ldd r24,Y+12
 5740 1c74 9D85      		ldd r25,Y+13
 5741 1c76 892B      		or r24,r25
 5742 1c78 01F4      		brne .+2
 5743 1c7a 00C0      		rjmp .L417
 5744               	.LM872:
 5745 1c7c 9E85      		ldd r25,Y+14
 5746 1c7e 9093 0000 		sts font_bytes,r25
 5747 1c82 00C0      		rjmp .L417
 5748               	.LVL576:
 5749               	.L510:
 5750               	.LM873:
 5751 1c84 0FEF      		ldi r16,lo8(-1)
 5752               	.LVL577:
 5753 1c86 00C0      		rjmp .L413
 5754               	.LVL578:
 5755               	.L511:
 5756               	.LM874:
 5757 1c88 1092 0000 		sts CR_LF,__zero_reg__
 5758 1c8c 00C0      		rjmp .L411
 5759               	.LVL579:
 5760               	.L497:
 5761               	.LM875:
 5762 1c8e 88E3      		ldi r24,lo8(56)
 5763 1c90 68E1      		ldi r22,lo8(24)
 5764 1c92 40E0      		ldi r20,lo8(0)
 5765 1c94 24E0      		ldi r18,lo8(4)
 5766 1c96 0E94 0000 		call draw_sprite
 5767 1c9a 00C0      		rjmp .L354
 5768               	.L355:
 5769               	.LM876:
 5770 1c9c 8091 0000 		lds r24,baud_rate
 5771 1ca0 0E94 0000 		call set_baud
 5772 1ca4 00C0      		rjmp .L356
 5773               	.LFE6:
 5775               	.global	baud_rate
 5776               		.data
 5779               	baud_rate:
 5780 0037 06        		.byte	6
 5781               	.global	RX_in
 5782               	.global	RX_in
 5783               		.section .bss
 5786               	RX_in:
 5787 0000 00        		.skip 1,0
 5788               	.global	RX_read
 5789               	.global	RX_read
 5792               	RX_read:
 5793 0001 0000      		.skip 2,0
 5794               	.global	RX_bytes
 5795               	.global	RX_bytes
 5798               	RX_bytes:
 5799 0003 00        		.skip 1,0
 5800               	.global	RX_pause
 5801               	.global	RX_pause
 5804               	RX_pause:
 5805 0004 00        		.skip 1,0
 5806               	.global	reverse
 5807               	.global	reverse
 5810               	reverse:
 5811 0005 00        		.skip 1,0
 5812               	.global	splash_screen
 5813               		.data
 5816               	splash_screen:
 5817 0038 01        		.byte	1
 5818               	.global	debug_msg
 5819               	.global	debug_msg
 5820               		.section .bss
 5823               	debug_msg:
 5824 0006 00        		.skip 1,0
 5825               	.global	BL_dutycycle
 5826               		.data
 5829               	BL_dutycycle:
 5830 0039 14        		.byte	20
 5831               	.global	RGB_red
 5834               	RGB_red:
 5835 003a 32        		.byte	50
 5836               	.global	RGB_green
 5837               	.global	RGB_green
 5838               		.section .bss
 5841               	RGB_green:
 5842 0007 00        		.skip 1,0
 5843               	.global	RGB_blue
 5844               	.global	RGB_blue
 5847               	RGB_blue:
 5848 0008 00        		.skip 1,0
 5849               	.global	RGB_counter
 5850               	.global	RGB_counter
 5853               	RGB_counter:
 5854 0009 00        		.skip 1,0
 5855               	.global	buttons
 5856               	.global	buttons
 5859               	buttons:
 5860 000a 00        		.skip 1,0
 5861               	.global	sprite
 5862               		.data
 5865               	sprite:
 5866 003b 0A        		.byte	10
 5867 003c 10        		.byte	16
 5868 003d 80        		.byte	-128
 5869 003e C0        		.byte	-64
 5870 003f 40        		.byte	64
 5871 0040 0C        		.byte	12
 5872 0041 3E        		.byte	62
 5873 0042 FE        		.byte	-2
 5874 0043 F2        		.byte	-14
 5875 0044 E0        		.byte	-32
 5876 0045 F0        		.byte	-16
 5877 0046 E0        		.byte	-32
 5878 0047 FF        		.byte	-1
 5879 0048 7F        		.byte	127
 5880 0049 3F        		.byte	63
 5881 004a 1F        		.byte	31
 5882 004b 1F        		.byte	31
 5883 004c 1F        		.byte	31
 5884 004d 1F        		.byte	31
 5885 004e 0F        		.byte	15
 5886 004f 07        		.byte	7
 5887 0050 03        		.byte	3
 5888 0051 0000 0000 		.skip 2578,0
 5888      0000 0000 
 5888      0000 0000 
 5888      0000 0000 
 5888      0000 0000 
 5889               	.global	x_offset
 5890               	.global	x_offset
 5891               		.section .bss
 5894               	x_offset:
 5895 000b 00        		.skip 1,0
 5896               	.global	y_offset
 5897               	.global	y_offset
 5900               	y_offset:
 5901 000c 00        		.skip 1,0
 5902               	.global	font_mode
 5903               		.data
 5906               	font_mode:
 5907 0a63 07        		.byte	7
 5908               	.global	CR_LF
 5911               	CR_LF:
 5912 0a64 01        		.byte	1
 5913               	.global	aux_font
 5914               	.global	aux_font
 5915               		.section .bss
 5918               	aux_font:
 5919 000d 00        		.skip 1,0
 5920               		.lcomm y.2653,2
 5921               		.lcomm x.2652,2
 5922               		.lcomm height.2651,2
 5923               		.lcomm width.2650,2
 5924               		.lcomm temp_data2.2473,1
 5925               		.lcomm temp_data1.2472,1
 5926               		.lcomm temp_x.2471,1
 5927               		.lcomm temp_side.2470,1
 5928               		.lcomm temp_page.2469,1
 5929               		.section	.progmem.data,"a",@progbits
 5932               	text_array:
 5933 0000 05        		.byte	5
 5934 0001 08        		.byte	8
 5935 0002 01        		.byte	1
 5936 0003 00        		.byte	0
 5937 0004 00        		.byte	0
 5938 0005 00        		.byte	0
 5939 0006 00        		.byte	0
 5940 0007 00        		.byte	0
 5941 0008 00        		.byte	0
 5942 0009 6F        		.byte	111
 5943 000a 6F        		.byte	111
 5944 000b 00        		.byte	0
 5945 000c 00        		.byte	0
 5946 000d 00        		.byte	0
 5947 000e 07        		.byte	7
 5948 000f 00        		.byte	0
 5949 0010 07        		.byte	7
 5950 0011 00        		.byte	0
 5951 0012 14        		.byte	20
 5952 0013 7F        		.byte	127
 5953 0014 14        		.byte	20
 5954 0015 7F        		.byte	127
 5955 0016 14        		.byte	20
 5956 0017 00        		.byte	0
 5957 0018 26        		.byte	38
 5958 0019 6B        		.byte	107
 5959 001a 2A        		.byte	42
 5960 001b 10        		.byte	16
 5961 001c 43        		.byte	67
 5962 001d 33        		.byte	51
 5963 001e 08        		.byte	8
 5964 001f 64        		.byte	100
 5965 0020 63        		.byte	99
 5966 0021 32        		.byte	50
 5967 0022 4D        		.byte	77
 5968 0023 49        		.byte	73
 5969 0024 36        		.byte	54
 5970 0025 50        		.byte	80
 5971 0026 00        		.byte	0
 5972 0027 00        		.byte	0
 5973 0028 07        		.byte	7
 5974 0029 00        		.byte	0
 5975 002a 00        		.byte	0
 5976 002b 00        		.byte	0
 5977 002c 1C        		.byte	28
 5978 002d 22        		.byte	34
 5979 002e 41        		.byte	65
 5980 002f 00        		.byte	0
 5981 0030 00        		.byte	0
 5982 0031 41        		.byte	65
 5983 0032 22        		.byte	34
 5984 0033 1C        		.byte	28
 5985 0034 00        		.byte	0
 5986 0035 11        		.byte	17
 5987 0036 0A        		.byte	10
 5988 0037 1F        		.byte	31
 5989 0038 0A        		.byte	10
 5990 0039 11        		.byte	17
 5991 003a 10        		.byte	16
 5992 003b 10        		.byte	16
 5993 003c 7C        		.byte	124
 5994 003d 10        		.byte	16
 5995 003e 10        		.byte	16
 5996 003f 00        		.byte	0
 5997 0040 00        		.byte	0
 5998 0041 A0        		.byte	-96
 5999 0042 60        		.byte	96
 6000 0043 00        		.byte	0
 6001 0044 10        		.byte	16
 6002 0045 10        		.byte	16
 6003 0046 10        		.byte	16
 6004 0047 10        		.byte	16
 6005 0048 10        		.byte	16
 6006 0049 00        		.byte	0
 6007 004a 00        		.byte	0
 6008 004b 60        		.byte	96
 6009 004c 60        		.byte	96
 6010 004d 00        		.byte	0
 6011 004e 40        		.byte	64
 6012 004f 30        		.byte	48
 6013 0050 08        		.byte	8
 6014 0051 06        		.byte	6
 6015 0052 01        		.byte	1
 6016 0053 3E        		.byte	62
 6017 0054 51        		.byte	81
 6018 0055 49        		.byte	73
 6019 0056 45        		.byte	69
 6020 0057 3E        		.byte	62
 6021 0058 00        		.byte	0
 6022 0059 42        		.byte	66
 6023 005a 7F        		.byte	127
 6024 005b 40        		.byte	64
 6025 005c 00        		.byte	0
 6026 005d 42        		.byte	66
 6027 005e 61        		.byte	97
 6028 005f 51        		.byte	81
 6029 0060 49        		.byte	73
 6030 0061 46        		.byte	70
 6031 0062 22        		.byte	34
 6032 0063 41        		.byte	65
 6033 0064 49        		.byte	73
 6034 0065 49        		.byte	73
 6035 0066 36        		.byte	54
 6036 0067 08        		.byte	8
 6037 0068 0C        		.byte	12
 6038 0069 0A        		.byte	10
 6039 006a 7F        		.byte	127
 6040 006b 08        		.byte	8
 6041 006c 27        		.byte	39
 6042 006d 45        		.byte	69
 6043 006e 45        		.byte	69
 6044 006f 45        		.byte	69
 6045 0070 39        		.byte	57
 6046 0071 3C        		.byte	60
 6047 0072 4A        		.byte	74
 6048 0073 49        		.byte	73
 6049 0074 49        		.byte	73
 6050 0075 30        		.byte	48
 6051 0076 01        		.byte	1
 6052 0077 61        		.byte	97
 6053 0078 19        		.byte	25
 6054 0079 07        		.byte	7
 6055 007a 01        		.byte	1
 6056 007b 36        		.byte	54
 6057 007c 49        		.byte	73
 6058 007d 49        		.byte	73
 6059 007e 49        		.byte	73
 6060 007f 36        		.byte	54
 6061 0080 06        		.byte	6
 6062 0081 49        		.byte	73
 6063 0082 49        		.byte	73
 6064 0083 29        		.byte	41
 6065 0084 1E        		.byte	30
 6066 0085 00        		.byte	0
 6067 0086 00        		.byte	0
 6068 0087 6C        		.byte	108
 6069 0088 6C        		.byte	108
 6070 0089 00        		.byte	0
 6071 008a 00        		.byte	0
 6072 008b 00        		.byte	0
 6073 008c AC        		.byte	-84
 6074 008d 6C        		.byte	108
 6075 008e 00        		.byte	0
 6076 008f 08        		.byte	8
 6077 0090 14        		.byte	20
 6078 0091 22        		.byte	34
 6079 0092 41        		.byte	65
 6080 0093 00        		.byte	0
 6081 0094 14        		.byte	20
 6082 0095 14        		.byte	20
 6083 0096 14        		.byte	20
 6084 0097 14        		.byte	20
 6085 0098 14        		.byte	20
 6086 0099 00        		.byte	0
 6087 009a 41        		.byte	65
 6088 009b 22        		.byte	34
 6089 009c 14        		.byte	20
 6090 009d 08        		.byte	8
 6091 009e 02        		.byte	2
 6092 009f 01        		.byte	1
 6093 00a0 51        		.byte	81
 6094 00a1 09        		.byte	9
 6095 00a2 06        		.byte	6
 6096 00a3 3E        		.byte	62
 6097 00a4 41        		.byte	65
 6098 00a5 5D        		.byte	93
 6099 00a6 5D        		.byte	93
 6100 00a7 46        		.byte	70
 6101 00a8 7C        		.byte	124
 6102 00a9 12        		.byte	18
 6103 00aa 11        		.byte	17
 6104 00ab 12        		.byte	18
 6105 00ac 7C        		.byte	124
 6106 00ad 7F        		.byte	127
 6107 00ae 49        		.byte	73
 6108 00af 49        		.byte	73
 6109 00b0 49        		.byte	73
 6110 00b1 36        		.byte	54
 6111 00b2 3E        		.byte	62
 6112 00b3 41        		.byte	65
 6113 00b4 41        		.byte	65
 6114 00b5 41        		.byte	65
 6115 00b6 22        		.byte	34
 6116 00b7 7F        		.byte	127
 6117 00b8 41        		.byte	65
 6118 00b9 41        		.byte	65
 6119 00ba 41        		.byte	65
 6120 00bb 3E        		.byte	62
 6121 00bc 7F        		.byte	127
 6122 00bd 49        		.byte	73
 6123 00be 49        		.byte	73
 6124 00bf 49        		.byte	73
 6125 00c0 41        		.byte	65
 6126 00c1 7F        		.byte	127
 6127 00c2 09        		.byte	9
 6128 00c3 09        		.byte	9
 6129 00c4 09        		.byte	9
 6130 00c5 01        		.byte	1
 6131 00c6 3E        		.byte	62
 6132 00c7 41        		.byte	65
 6133 00c8 41        		.byte	65
 6134 00c9 51        		.byte	81
 6135 00ca 72        		.byte	114
 6136 00cb 7F        		.byte	127
 6137 00cc 08        		.byte	8
 6138 00cd 08        		.byte	8
 6139 00ce 08        		.byte	8
 6140 00cf 7F        		.byte	127
 6141 00d0 41        		.byte	65
 6142 00d1 41        		.byte	65
 6143 00d2 7F        		.byte	127
 6144 00d3 41        		.byte	65
 6145 00d4 41        		.byte	65
 6146 00d5 21        		.byte	33
 6147 00d6 41        		.byte	65
 6148 00d7 3F        		.byte	63
 6149 00d8 01        		.byte	1
 6150 00d9 01        		.byte	1
 6151 00da 7F        		.byte	127
 6152 00db 08        		.byte	8
 6153 00dc 14        		.byte	20
 6154 00dd 22        		.byte	34
 6155 00de 41        		.byte	65
 6156 00df 7F        		.byte	127
 6157 00e0 40        		.byte	64
 6158 00e1 40        		.byte	64
 6159 00e2 40        		.byte	64
 6160 00e3 40        		.byte	64
 6161 00e4 7F        		.byte	127
 6162 00e5 02        		.byte	2
 6163 00e6 04        		.byte	4
 6164 00e7 02        		.byte	2
 6165 00e8 7F        		.byte	127
 6166 00e9 7F        		.byte	127
 6167 00ea 06        		.byte	6
 6168 00eb 08        		.byte	8
 6169 00ec 30        		.byte	48
 6170 00ed 7F        		.byte	127
 6171 00ee 3E        		.byte	62
 6172 00ef 41        		.byte	65
 6173 00f0 41        		.byte	65
 6174 00f1 41        		.byte	65
 6175 00f2 3E        		.byte	62
 6176 00f3 7F        		.byte	127
 6177 00f4 09        		.byte	9
 6178 00f5 09        		.byte	9
 6179 00f6 09        		.byte	9
 6180 00f7 06        		.byte	6
 6181 00f8 3E        		.byte	62
 6182 00f9 41        		.byte	65
 6183 00fa 41        		.byte	65
 6184 00fb 61        		.byte	97
 6185 00fc 7E        		.byte	126
 6186 00fd 7F        		.byte	127
 6187 00fe 09        		.byte	9
 6188 00ff 19        		.byte	25
 6189 0100 29        		.byte	41
 6190 0101 46        		.byte	70
 6191 0102 26        		.byte	38
 6192 0103 49        		.byte	73
 6193 0104 49        		.byte	73
 6194 0105 49        		.byte	73
 6195 0106 32        		.byte	50
 6196 0107 01        		.byte	1
 6197 0108 01        		.byte	1
 6198 0109 7F        		.byte	127
 6199 010a 01        		.byte	1
 6200 010b 01        		.byte	1
 6201 010c 3F        		.byte	63
 6202 010d 40        		.byte	64
 6203 010e 40        		.byte	64
 6204 010f 40        		.byte	64
 6205 0110 3F        		.byte	63
 6206 0111 1F        		.byte	31
 6207 0112 20        		.byte	32
 6208 0113 40        		.byte	64
 6209 0114 20        		.byte	32
 6210 0115 1F        		.byte	31
 6211 0116 3F        		.byte	63
 6212 0117 40        		.byte	64
 6213 0118 30        		.byte	48
 6214 0119 40        		.byte	64
 6215 011a 3F        		.byte	63
 6216 011b 63        		.byte	99
 6217 011c 14        		.byte	20
 6218 011d 08        		.byte	8
 6219 011e 14        		.byte	20
 6220 011f 63        		.byte	99
 6221 0120 03        		.byte	3
 6222 0121 04        		.byte	4
 6223 0122 78        		.byte	120
 6224 0123 04        		.byte	4
 6225 0124 03        		.byte	3
 6226 0125 61        		.byte	97
 6227 0126 51        		.byte	81
 6228 0127 49        		.byte	73
 6229 0128 45        		.byte	69
 6230 0129 43        		.byte	67
 6231 012a 00        		.byte	0
 6232 012b 00        		.byte	0
 6233 012c 7F        		.byte	127
 6234 012d 41        		.byte	65
 6235 012e 00        		.byte	0
 6236 012f 01        		.byte	1
 6237 0130 06        		.byte	6
 6238 0131 08        		.byte	8
 6239 0132 30        		.byte	48
 6240 0133 40        		.byte	64
 6241 0134 00        		.byte	0
 6242 0135 00        		.byte	0
 6243 0136 41        		.byte	65
 6244 0137 7F        		.byte	127
 6245 0138 00        		.byte	0
 6246 0139 04        		.byte	4
 6247 013a 02        		.byte	2
 6248 013b 01        		.byte	1
 6249 013c 02        		.byte	2
 6250 013d 04        		.byte	4
 6251 013e 80        		.byte	-128
 6252 013f 80        		.byte	-128
 6253 0140 80        		.byte	-128
 6254 0141 80        		.byte	-128
 6255 0142 80        		.byte	-128
 6256 0143 01        		.byte	1
 6257 0144 02        		.byte	2
 6258 0145 04        		.byte	4
 6259 0146 00        		.byte	0
 6260 0147 00        		.byte	0
 6261 0148 20        		.byte	32
 6262 0149 54        		.byte	84
 6263 014a 54        		.byte	84
 6264 014b 54        		.byte	84
 6265 014c 78        		.byte	120
 6266 014d 7F        		.byte	127
 6267 014e 48        		.byte	72
 6268 014f 44        		.byte	68
 6269 0150 44        		.byte	68
 6270 0151 38        		.byte	56
 6271 0152 38        		.byte	56
 6272 0153 44        		.byte	68
 6273 0154 44        		.byte	68
 6274 0155 44        		.byte	68
 6275 0156 28        		.byte	40
 6276 0157 38        		.byte	56
 6277 0158 44        		.byte	68
 6278 0159 44        		.byte	68
 6279 015a 48        		.byte	72
 6280 015b 7F        		.byte	127
 6281 015c 38        		.byte	56
 6282 015d 54        		.byte	84
 6283 015e 54        		.byte	84
 6284 015f 54        		.byte	84
 6285 0160 18        		.byte	24
 6286 0161 08        		.byte	8
 6287 0162 7E        		.byte	126
 6288 0163 09        		.byte	9
 6289 0164 01        		.byte	1
 6290 0165 02        		.byte	2
 6291 0166 18        		.byte	24
 6292 0167 A4        		.byte	-92
 6293 0168 A4        		.byte	-92
 6294 0169 A4        		.byte	-92
 6295 016a 78        		.byte	120
 6296 016b 7F        		.byte	127
 6297 016c 08        		.byte	8
 6298 016d 08        		.byte	8
 6299 016e 08        		.byte	8
 6300 016f 70        		.byte	112
 6301 0170 00        		.byte	0
 6302 0171 48        		.byte	72
 6303 0172 7A        		.byte	122
 6304 0173 40        		.byte	64
 6305 0174 00        		.byte	0
 6306 0175 40        		.byte	64
 6307 0176 80        		.byte	-128
 6308 0177 80        		.byte	-128
 6309 0178 88        		.byte	-120
 6310 0179 7A        		.byte	122
 6311 017a 7F        		.byte	127
 6312 017b 10        		.byte	16
 6313 017c 10        		.byte	16
 6314 017d 28        		.byte	40
 6315 017e 44        		.byte	68
 6316 017f 00        		.byte	0
 6317 0180 41        		.byte	65
 6318 0181 7F        		.byte	127
 6319 0182 40        		.byte	64
 6320 0183 00        		.byte	0
 6321 0184 7C        		.byte	124
 6322 0185 04        		.byte	4
 6323 0186 38        		.byte	56
 6324 0187 04        		.byte	4
 6325 0188 78        		.byte	120
 6326 0189 7C        		.byte	124
 6327 018a 04        		.byte	4
 6328 018b 04        		.byte	4
 6329 018c 04        		.byte	4
 6330 018d 78        		.byte	120
 6331 018e 38        		.byte	56
 6332 018f 44        		.byte	68
 6333 0190 44        		.byte	68
 6334 0191 44        		.byte	68
 6335 0192 38        		.byte	56
 6336 0193 FC        		.byte	-4
 6337 0194 24        		.byte	36
 6338 0195 24        		.byte	36
 6339 0196 24        		.byte	36
 6340 0197 18        		.byte	24
 6341 0198 18        		.byte	24
 6342 0199 24        		.byte	36
 6343 019a 24        		.byte	36
 6344 019b FC        		.byte	-4
 6345 019c 80        		.byte	-128
 6346 019d 7C        		.byte	124
 6347 019e 08        		.byte	8
 6348 019f 04        		.byte	4
 6349 01a0 04        		.byte	4
 6350 01a1 08        		.byte	8
 6351 01a2 48        		.byte	72
 6352 01a3 54        		.byte	84
 6353 01a4 54        		.byte	84
 6354 01a5 54        		.byte	84
 6355 01a6 20        		.byte	32
 6356 01a7 00        		.byte	0
 6357 01a8 08        		.byte	8
 6358 01a9 3C        		.byte	60
 6359 01aa 48        		.byte	72
 6360 01ab 20        		.byte	32
 6361 01ac 3C        		.byte	60
 6362 01ad 40        		.byte	64
 6363 01ae 40        		.byte	64
 6364 01af 40        		.byte	64
 6365 01b0 7C        		.byte	124
 6366 01b1 0C        		.byte	12
 6367 01b2 30        		.byte	48
 6368 01b3 40        		.byte	64
 6369 01b4 30        		.byte	48
 6370 01b5 0C        		.byte	12
 6371 01b6 1C        		.byte	28
 6372 01b7 60        		.byte	96
 6373 01b8 18        		.byte	24
 6374 01b9 60        		.byte	96
 6375 01ba 1C        		.byte	28
 6376 01bb 44        		.byte	68
 6377 01bc 28        		.byte	40
 6378 01bd 10        		.byte	16
 6379 01be 28        		.byte	40
 6380 01bf 44        		.byte	68
 6381 01c0 1C        		.byte	28
 6382 01c1 A0        		.byte	-96
 6383 01c2 A0        		.byte	-96
 6384 01c3 A0        		.byte	-96
 6385 01c4 7C        		.byte	124
 6386 01c5 44        		.byte	68
 6387 01c6 64        		.byte	100
 6388 01c7 54        		.byte	84
 6389 01c8 4C        		.byte	76
 6390 01c9 44        		.byte	68
 6391 01ca 00        		.byte	0
 6392 01cb 08        		.byte	8
 6393 01cc 36        		.byte	54
 6394 01cd 41        		.byte	65
 6395 01ce 41        		.byte	65
 6396 01cf 20        		.byte	32
 6397 01d0 40        		.byte	64
 6398 01d1 FF        		.byte	-1
 6399 01d2 40        		.byte	64
 6400 01d3 20        		.byte	32
 6401 01d4 41        		.byte	65
 6402 01d5 41        		.byte	65
 6403 01d6 36        		.byte	54
 6404 01d7 08        		.byte	8
 6405 01d8 00        		.byte	0
 6406 01d9 10        		.byte	16
 6407 01da 08        		.byte	8
 6408 01db 18        		.byte	24
 6409 01dc 10        		.byte	16
 6410 01dd 08        		.byte	8
 6413               	aux_text_array:
 6414 01de 0A        		.byte	10
 6415 01df 10        		.byte	16
 6416 01e0 01        		.byte	1
 6417 01e1 00        		.byte	0
 6418 01e2 00        		.byte	0
 6419 01e3 00        		.byte	0
 6420 01e4 00        		.byte	0
 6421 01e5 00        		.byte	0
 6422 01e6 00        		.byte	0
 6423 01e7 00        		.byte	0
 6424 01e8 00        		.byte	0
 6425 01e9 00        		.byte	0
 6426 01ea 00        		.byte	0
 6427 01eb 00        		.byte	0
 6428 01ec 00        		.byte	0
 6429 01ed 00        		.byte	0
 6430 01ee 00        		.byte	0
 6431 01ef 00        		.byte	0
 6432 01f0 00        		.byte	0
 6433 01f1 00        		.byte	0
 6434 01f2 00        		.byte	0
 6435 01f3 00        		.byte	0
 6436 01f4 00        		.byte	0
 6437 01f5 00        		.byte	0
 6438 01f6 00        		.byte	0
 6439 01f7 00        		.byte	0
 6440 01f8 00        		.byte	0
 6441 01f9 FF        		.byte	-1
 6442 01fa FF        		.byte	-1
 6443 01fb 00        		.byte	0
 6444 01fc 00        		.byte	0
 6445 01fd 00        		.byte	0
 6446 01fe 00        		.byte	0
 6447 01ff 00        		.byte	0
 6448 0200 00        		.byte	0
 6449 0201 00        		.byte	0
 6450 0202 00        		.byte	0
 6451 0203 0C        		.byte	12
 6452 0204 0C        		.byte	12
 6453 0205 00        		.byte	0
 6454 0206 00        		.byte	0
 6455 0207 00        		.byte	0
 6456 0208 00        		.byte	0
 6457 0209 00        		.byte	0
 6458 020a 00        		.byte	0
 6459 020b 0F        		.byte	15
 6460 020c 0F        		.byte	15
 6461 020d 00        		.byte	0
 6462 020e 00        		.byte	0
 6463 020f 0F        		.byte	15
 6464 0210 0F        		.byte	15
 6465 0211 00        		.byte	0
 6466 0212 00        		.byte	0
 6467 0213 00        		.byte	0
 6468 0214 00        		.byte	0
 6469 0215 00        		.byte	0
 6470 0216 00        		.byte	0
 6471 0217 00        		.byte	0
 6472 0218 00        		.byte	0
 6473 0219 00        		.byte	0
 6474 021a 00        		.byte	0
 6475 021b 00        		.byte	0
 6476 021c 00        		.byte	0
 6477 021d 80        		.byte	-128
 6478 021e 98        		.byte	-104
 6479 021f D8        		.byte	-40
 6480 0220 FC        		.byte	-4
 6481 0221 9F        		.byte	-97
 6482 0222 99        		.byte	-103
 6483 0223 F8        		.byte	-8
 6484 0224 FF        		.byte	-1
 6485 0225 9F        		.byte	-97
 6486 0226 18        		.byte	24
 6487 0227 01        		.byte	1
 6488 0228 0D        		.byte	13
 6489 0229 0F        		.byte	15
 6490 022a 01        		.byte	1
 6491 022b 01        		.byte	1
 6492 022c 0F        		.byte	15
 6493 022d 07        		.byte	7
 6494 022e 01        		.byte	1
 6495 022f 01        		.byte	1
 6496 0230 00        		.byte	0
 6497 0231 00        		.byte	0
 6498 0232 38        		.byte	56
 6499 0233 7C        		.byte	124
 6500 0234 6C        		.byte	108
 6501 0235 FF        		.byte	-1
 6502 0236 CC        		.byte	-52
 6503 0237 CC        		.byte	-52
 6504 0238 80        		.byte	-128
 6505 0239 00        		.byte	0
 6506 023a 00        		.byte	0
 6507 023b 00        		.byte	0
 6508 023c 06        		.byte	6
 6509 023d 0C        		.byte	12
 6510 023e 0C        		.byte	12
 6511 023f 3F        		.byte	63
 6512 0240 0C        		.byte	12
 6513 0241 0F        		.byte	15
 6514 0242 07        		.byte	7
 6515 0243 00        		.byte	0
 6516 0244 00        		.byte	0
 6517 0245 8E        		.byte	-114
 6518 0246 91        		.byte	-111
 6519 0247 51        		.byte	81
 6520 0248 51        		.byte	81
 6521 0249 4E        		.byte	78
 6522 024a A0        		.byte	-96
 6523 024b A0        		.byte	-96
 6524 024c 90        		.byte	-112
 6525 024d 10        		.byte	16
 6526 024e 00        		.byte	0
 6527 024f 00        		.byte	0
 6528 0250 00        		.byte	0
 6529 0251 00        		.byte	0
 6530 0252 00        		.byte	0
 6531 0253 07        		.byte	7
 6532 0254 08        		.byte	8
 6533 0255 08        		.byte	8
 6534 0256 08        		.byte	8
 6535 0257 07        		.byte	7
 6536 0258 00        		.byte	0
 6537 0259 00        		.byte	0
 6538 025a 80        		.byte	-128
 6539 025b EE        		.byte	-18
 6540 025c 3F        		.byte	63
 6541 025d 73        		.byte	115
 6542 025e E3        		.byte	-29
 6543 025f C3        		.byte	-61
 6544 0260 06        		.byte	6
 6545 0261 C0        		.byte	-64
 6546 0262 C0        		.byte	-64
 6547 0263 00        		.byte	0
 6548 0264 03        		.byte	3
 6549 0265 07        		.byte	7
 6550 0266 0E        		.byte	14
 6551 0267 0C        		.byte	12
 6552 0268 0C        		.byte	12
 6553 0269 0F        		.byte	15
 6554 026a 0F        		.byte	15
 6555 026b 0F        		.byte	15
 6556 026c 09        		.byte	9
 6557 026d 00        		.byte	0
 6558 026e 00        		.byte	0
 6559 026f 00        		.byte	0
 6560 0270 00        		.byte	0
 6561 0271 0F        		.byte	15
 6562 0272 0F        		.byte	15
 6563 0273 00        		.byte	0
 6564 0274 00        		.byte	0
 6565 0275 00        		.byte	0
 6566 0276 00        		.byte	0
 6567 0277 00        		.byte	0
 6568 0278 00        		.byte	0
 6569 0279 00        		.byte	0
 6570 027a 00        		.byte	0
 6571 027b 00        		.byte	0
 6572 027c 00        		.byte	0
 6573 027d 00        		.byte	0
 6574 027e 00        		.byte	0
 6575 027f 00        		.byte	0
 6576 0280 00        		.byte	0
 6577 0281 00        		.byte	0
 6578 0282 00        		.byte	0
 6579 0283 00        		.byte	0
 6580 0284 F0        		.byte	-16
 6581 0285 FE        		.byte	-2
 6582 0286 0F        		.byte	15
 6583 0287 01        		.byte	1
 6584 0288 00        		.byte	0
 6585 0289 00        		.byte	0
 6586 028a 00        		.byte	0
 6587 028b 00        		.byte	0
 6588 028c 00        		.byte	0
 6589 028d 00        		.byte	0
 6590 028e 03        		.byte	3
 6591 028f 1F        		.byte	31
 6592 0290 3C        		.byte	60
 6593 0291 20        		.byte	32
 6594 0292 00        		.byte	0
 6595 0293 00        		.byte	0
 6596 0294 00        		.byte	0
 6597 0295 00        		.byte	0
 6598 0296 00        		.byte	0
 6599 0297 01        		.byte	1
 6600 0298 0F        		.byte	15
 6601 0299 FE        		.byte	-2
 6602 029a F0        		.byte	-16
 6603 029b 00        		.byte	0
 6604 029c 00        		.byte	0
 6605 029d 00        		.byte	0
 6606 029e 00        		.byte	0
 6607 029f 00        		.byte	0
 6608 02a0 00        		.byte	0
 6609 02a1 20        		.byte	32
 6610 02a2 3C        		.byte	60
 6611 02a3 1F        		.byte	31
 6612 02a4 03        		.byte	3
 6613 02a5 00        		.byte	0
 6614 02a6 00        		.byte	0
 6615 02a7 00        		.byte	0
 6616 02a8 00        		.byte	0
 6617 02a9 00        		.byte	0
 6618 02aa 24        		.byte	36
 6619 02ab 3C        		.byte	60
 6620 02ac 18        		.byte	24
 6621 02ad FF        		.byte	-1
 6622 02ae 18        		.byte	24
 6623 02af 3C        		.byte	60
 6624 02b0 24        		.byte	36
 6625 02b1 00        		.byte	0
 6626 02b2 00        		.byte	0
 6627 02b3 00        		.byte	0
 6628 02b4 00        		.byte	0
 6629 02b5 00        		.byte	0
 6630 02b6 00        		.byte	0
 6631 02b7 00        		.byte	0
 6632 02b8 00        		.byte	0
 6633 02b9 00        		.byte	0
 6634 02ba 00        		.byte	0
 6635 02bb 00        		.byte	0
 6636 02bc 00        		.byte	0
 6637 02bd 00        		.byte	0
 6638 02be C0        		.byte	-64
 6639 02bf C0        		.byte	-64
 6640 02c0 C0        		.byte	-64
 6641 02c1 F8        		.byte	-8
 6642 02c2 F8        		.byte	-8
 6643 02c3 C0        		.byte	-64
 6644 02c4 C0        		.byte	-64
 6645 02c5 C0        		.byte	-64
 6646 02c6 00        		.byte	0
 6647 02c7 00        		.byte	0
 6648 02c8 00        		.byte	0
 6649 02c9 00        		.byte	0
 6650 02ca 00        		.byte	0
 6651 02cb 07        		.byte	7
 6652 02cc 07        		.byte	7
 6653 02cd 00        		.byte	0
 6654 02ce 00        		.byte	0
 6655 02cf 00        		.byte	0
 6656 02d0 00        		.byte	0
 6657 02d1 00        		.byte	0
 6658 02d2 00        		.byte	0
 6659 02d3 00        		.byte	0
 6660 02d4 00        		.byte	0
 6661 02d5 00        		.byte	0
 6662 02d6 00        		.byte	0
 6663 02d7 00        		.byte	0
 6664 02d8 00        		.byte	0
 6665 02d9 00        		.byte	0
 6666 02da 00        		.byte	0
 6667 02db 00        		.byte	0
 6668 02dc 00        		.byte	0
 6669 02dd 00        		.byte	0
 6670 02de 20        		.byte	32
 6671 02df 3E        		.byte	62
 6672 02e0 1E        		.byte	30
 6673 02e1 00        		.byte	0
 6674 02e2 00        		.byte	0
 6675 02e3 00        		.byte	0
 6676 02e4 00        		.byte	0
 6677 02e5 00        		.byte	0
 6678 02e6 00        		.byte	0
 6679 02e7 80        		.byte	-128
 6680 02e8 80        		.byte	-128
 6681 02e9 80        		.byte	-128
 6682 02ea 80        		.byte	-128
 6683 02eb 80        		.byte	-128
 6684 02ec 00        		.byte	0
 6685 02ed 00        		.byte	0
 6686 02ee 00        		.byte	0
 6687 02ef 00        		.byte	0
 6688 02f0 00        		.byte	0
 6689 02f1 01        		.byte	1
 6690 02f2 01        		.byte	1
 6691 02f3 01        		.byte	1
 6692 02f4 01        		.byte	1
 6693 02f5 01        		.byte	1
 6694 02f6 00        		.byte	0
 6695 02f7 00        		.byte	0
 6696 02f8 00        		.byte	0
 6697 02f9 00        		.byte	0
 6698 02fa 00        		.byte	0
 6699 02fb 00        		.byte	0
 6700 02fc 00        		.byte	0
 6701 02fd 00        		.byte	0
 6702 02fe 00        		.byte	0
 6703 02ff 00        		.byte	0
 6704 0300 00        		.byte	0
 6705 0301 00        		.byte	0
 6706 0302 00        		.byte	0
 6707 0303 00        		.byte	0
 6708 0304 00        		.byte	0
 6709 0305 00        		.byte	0
 6710 0306 00        		.byte	0
 6711 0307 0E        		.byte	14
 6712 0308 0E        		.byte	14
 6713 0309 00        		.byte	0
 6714 030a 00        		.byte	0
 6715 030b 00        		.byte	0
 6716 030c 00        		.byte	0
 6717 030d 00        		.byte	0
 6718 030e 00        		.byte	0
 6719 030f 00        		.byte	0
 6720 0310 00        		.byte	0
 6721 0311 E0        		.byte	-32
 6722 0312 F8        		.byte	-8
 6723 0313 1E        		.byte	30
 6724 0314 07        		.byte	7
 6725 0315 01        		.byte	1
 6726 0316 00        		.byte	0
 6727 0317 00        		.byte	0
 6728 0318 10        		.byte	16
 6729 0319 1C        		.byte	28
 6730 031a 0F        		.byte	15
 6731 031b 03        		.byte	3
 6732 031c 00        		.byte	0
 6733 031d 00        		.byte	0
 6734 031e 00        		.byte	0
 6735 031f 00        		.byte	0
 6736 0320 00        		.byte	0
 6737 0321 00        		.byte	0
 6738 0322 F8        		.byte	-8
 6739 0323 FE        		.byte	-2
 6740 0324 07        		.byte	7
 6741 0325 63        		.byte	99
 6742 0326 63        		.byte	99
 6743 0327 07        		.byte	7
 6744 0328 FE        		.byte	-2
 6745 0329 FC        		.byte	-4
 6746 032a 00        		.byte	0
 6747 032b 00        		.byte	0
 6748 032c 01        		.byte	1
 6749 032d 07        		.byte	7
 6750 032e 0E        		.byte	14
 6751 032f 0C        		.byte	12
 6752 0330 0C        		.byte	12
 6753 0331 0E        		.byte	14
 6754 0332 07        		.byte	7
 6755 0333 03        		.byte	3
 6756 0334 00        		.byte	0
 6757 0335 00        		.byte	0
 6758 0336 00        		.byte	0
 6759 0337 06        		.byte	6
 6760 0338 03        		.byte	3
 6761 0339 FF        		.byte	-1
 6762 033a FF        		.byte	-1
 6763 033b 00        		.byte	0
 6764 033c 00        		.byte	0
 6765 033d 00        		.byte	0
 6766 033e 00        		.byte	0
 6767 033f 00        		.byte	0
 6768 0340 0C        		.byte	12
 6769 0341 0C        		.byte	12
 6770 0342 0C        		.byte	12
 6771 0343 0F        		.byte	15
 6772 0344 0F        		.byte	15
 6773 0345 0C        		.byte	12
 6774 0346 0C        		.byte	12
 6775 0347 0C        		.byte	12
 6776 0348 00        		.byte	0
 6777 0349 00        		.byte	0
 6778 034a 06        		.byte	6
 6779 034b 03        		.byte	3
 6780 034c 03        		.byte	3
 6781 034d 83        		.byte	-125
 6782 034e C3        		.byte	-61
 6783 034f 63        		.byte	99
 6784 0350 3E        		.byte	62
 6785 0351 1C        		.byte	28
 6786 0352 00        		.byte	0
 6787 0353 00        		.byte	0
 6788 0354 0C        		.byte	12
 6789 0355 0E        		.byte	14
 6790 0356 0F        		.byte	15
 6791 0357 0D        		.byte	13
 6792 0358 0C        		.byte	12
 6793 0359 0C        		.byte	12
 6794 035a 0C        		.byte	12
 6795 035b 0C        		.byte	12
 6796 035c 00        		.byte	0
 6797 035d 00        		.byte	0
 6798 035e 06        		.byte	6
 6799 035f 03        		.byte	3
 6800 0360 63        		.byte	99
 6801 0361 63        		.byte	99
 6802 0362 63        		.byte	99
 6803 0363 E3        		.byte	-29
 6804 0364 FE        		.byte	-2
 6805 0365 9C        		.byte	-100
 6806 0366 00        		.byte	0
 6807 0367 00        		.byte	0
 6808 0368 06        		.byte	6
 6809 0369 0C        		.byte	12
 6810 036a 0C        		.byte	12
 6811 036b 0C        		.byte	12
 6812 036c 0C        		.byte	12
 6813 036d 0C        		.byte	12
 6814 036e 07        		.byte	7
 6815 036f 07        		.byte	7
 6816 0370 00        		.byte	0
 6817 0371 00        		.byte	0
 6818 0372 C0        		.byte	-64
 6819 0373 E0        		.byte	-32
 6820 0374 B8        		.byte	-72
 6821 0375 8C        		.byte	-116
 6822 0376 87        		.byte	-121
 6823 0377 FF        		.byte	-1
 6824 0378 FF        		.byte	-1
 6825 0379 80        		.byte	-128
 6826 037a 00        		.byte	0
 6827 037b 00        		.byte	0
 6828 037c 01        		.byte	1
 6829 037d 01        		.byte	1
 6830 037e 01        		.byte	1
 6831 037f 01        		.byte	1
 6832 0380 01        		.byte	1
 6833 0381 0F        		.byte	15
 6834 0382 0F        		.byte	15
 6835 0383 01        		.byte	1
 6836 0384 00        		.byte	0
 6837 0385 00        		.byte	0
 6838 0386 7F        		.byte	127
 6839 0387 3F        		.byte	63
 6840 0388 33        		.byte	51
 6841 0389 33        		.byte	51
 6842 038a 33        		.byte	51
 6843 038b 73        		.byte	115
 6844 038c E3        		.byte	-29
 6845 038d C0        		.byte	-64
 6846 038e 00        		.byte	0
 6847 038f 00        		.byte	0
 6848 0390 06        		.byte	6
 6849 0391 0C        		.byte	12
 6850 0392 0C        		.byte	12
 6851 0393 0C        		.byte	12
 6852 0394 0C        		.byte	12
 6853 0395 0E        		.byte	14
 6854 0396 07        		.byte	7
 6855 0397 03        		.byte	3
 6856 0398 00        		.byte	0
 6857 0399 00        		.byte	0
 6858 039a F8        		.byte	-8
 6859 039b FE        		.byte	-2
 6860 039c 67        		.byte	103
 6861 039d 33        		.byte	51
 6862 039e 33        		.byte	51
 6863 039f 73        		.byte	115
 6864 03a0 E6        		.byte	-26
 6865 03a1 C0        		.byte	-64
 6866 03a2 00        		.byte	0
 6867 03a3 00        		.byte	0
 6868 03a4 03        		.byte	3
 6869 03a5 07        		.byte	7
 6870 03a6 0E        		.byte	14
 6871 03a7 0C        		.byte	12
 6872 03a8 0C        		.byte	12
 6873 03a9 0E        		.byte	14
 6874 03aa 07        		.byte	7
 6875 03ab 03        		.byte	3
 6876 03ac 00        		.byte	0
 6877 03ad 00        		.byte	0
 6878 03ae 03        		.byte	3
 6879 03af 03        		.byte	3
 6880 03b0 03        		.byte	3
 6881 03b1 83        		.byte	-125
 6882 03b2 F3        		.byte	-13
 6883 03b3 7F        		.byte	127
 6884 03b4 1F        		.byte	31
 6885 03b5 07        		.byte	7
 6886 03b6 00        		.byte	0
 6887 03b7 00        		.byte	0
 6888 03b8 00        		.byte	0
 6889 03b9 08        		.byte	8
 6890 03ba 0E        		.byte	14
 6891 03bb 07        		.byte	7
 6892 03bc 01        		.byte	1
 6893 03bd 00        		.byte	0
 6894 03be 00        		.byte	0
 6895 03bf 00        		.byte	0
 6896 03c0 00        		.byte	0
 6897 03c1 00        		.byte	0
 6898 03c2 9C        		.byte	-100
 6899 03c3 FE        		.byte	-2
 6900 03c4 63        		.byte	99
 6901 03c5 63        		.byte	99
 6902 03c6 63        		.byte	99
 6903 03c7 63        		.byte	99
 6904 03c8 FE        		.byte	-2
 6905 03c9 9C        		.byte	-100
 6906 03ca 00        		.byte	0
 6907 03cb 00        		.byte	0
 6908 03cc 07        		.byte	7
 6909 03cd 07        		.byte	7
 6910 03ce 0C        		.byte	12
 6911 03cf 0C        		.byte	12
 6912 03d0 0C        		.byte	12
 6913 03d1 0C        		.byte	12
 6914 03d2 07        		.byte	7
 6915 03d3 07        		.byte	7
 6916 03d4 00        		.byte	0
 6917 03d5 00        		.byte	0
 6918 03d6 3C        		.byte	60
 6919 03d7 7E        		.byte	126
 6920 03d8 E7        		.byte	-25
 6921 03d9 C3        		.byte	-61
 6922 03da C3        		.byte	-61
 6923 03db 67        		.byte	103
 6924 03dc FE        		.byte	-2
 6925 03dd FC        		.byte	-4
 6926 03de 00        		.byte	0
 6927 03df 00        		.byte	0
 6928 03e0 00        		.byte	0
 6929 03e1 06        		.byte	6
 6930 03e2 0C        		.byte	12
 6931 03e3 0C        		.byte	12
 6932 03e4 0C        		.byte	12
 6933 03e5 0E        		.byte	14
 6934 03e6 07        		.byte	7
 6935 03e7 01        		.byte	1
 6936 03e8 00        		.byte	0
 6937 03e9 00        		.byte	0
 6938 03ea 00        		.byte	0
 6939 03eb 00        		.byte	0
 6940 03ec 00        		.byte	0
 6941 03ed 70        		.byte	112
 6942 03ee 70        		.byte	112
 6943 03ef 00        		.byte	0
 6944 03f0 00        		.byte	0
 6945 03f1 00        		.byte	0
 6946 03f2 00        		.byte	0
 6947 03f3 00        		.byte	0
 6948 03f4 00        		.byte	0
 6949 03f5 00        		.byte	0
 6950 03f6 00        		.byte	0
 6951 03f7 0E        		.byte	14
 6952 03f8 0E        		.byte	14
 6953 03f9 00        		.byte	0
 6954 03fa 00        		.byte	0
 6955 03fb 00        		.byte	0
 6956 03fc 00        		.byte	0
 6957 03fd 00        		.byte	0
 6958 03fe 00        		.byte	0
 6959 03ff 00        		.byte	0
 6960 0400 00        		.byte	0
 6961 0401 70        		.byte	112
 6962 0402 70        		.byte	112
 6963 0403 00        		.byte	0
 6964 0404 00        		.byte	0
 6965 0405 00        		.byte	0
 6966 0406 00        		.byte	0
 6967 0407 00        		.byte	0
 6968 0408 00        		.byte	0
 6969 0409 00        		.byte	0
 6970 040a 20        		.byte	32
 6971 040b 3E        		.byte	62
 6972 040c 1E        		.byte	30
 6973 040d 00        		.byte	0
 6974 040e 00        		.byte	0
 6975 040f 00        		.byte	0
 6976 0410 00        		.byte	0
 6977 0411 00        		.byte	0
 6978 0412 C0        		.byte	-64
 6979 0413 C0        		.byte	-64
 6980 0414 E0        		.byte	-32
 6981 0415 20        		.byte	32
 6982 0416 30        		.byte	48
 6983 0417 30        		.byte	48
 6984 0418 10        		.byte	16
 6985 0419 18        		.byte	24
 6986 041a 00        		.byte	0
 6987 041b 00        		.byte	0
 6988 041c 00        		.byte	0
 6989 041d 00        		.byte	0
 6990 041e 01        		.byte	1
 6991 041f 01        		.byte	1
 6992 0420 03        		.byte	3
 6993 0421 03        		.byte	3
 6994 0422 02        		.byte	2
 6995 0423 06        		.byte	6
 6996 0424 00        		.byte	0
 6997 0425 00        		.byte	0
 6998 0426 30        		.byte	48
 6999 0427 30        		.byte	48
 7000 0428 30        		.byte	48
 7001 0429 30        		.byte	48
 7002 042a 30        		.byte	48
 7003 042b 30        		.byte	48
 7004 042c 30        		.byte	48
 7005 042d 30        		.byte	48
 7006 042e 00        		.byte	0
 7007 042f 00        		.byte	0
 7008 0430 03        		.byte	3
 7009 0431 03        		.byte	3
 7010 0432 03        		.byte	3
 7011 0433 03        		.byte	3
 7012 0434 03        		.byte	3
 7013 0435 03        		.byte	3
 7014 0436 03        		.byte	3
 7015 0437 03        		.byte	3
 7016 0438 00        		.byte	0
 7017 0439 00        		.byte	0
 7018 043a 18        		.byte	24
 7019 043b 10        		.byte	16
 7020 043c 30        		.byte	48
 7021 043d 30        		.byte	48
 7022 043e 20        		.byte	32
 7023 043f E0        		.byte	-32
 7024 0440 C0        		.byte	-64
 7025 0441 C0        		.byte	-64
 7026 0442 00        		.byte	0
 7027 0443 00        		.byte	0
 7028 0444 06        		.byte	6
 7029 0445 02        		.byte	2
 7030 0446 03        		.byte	3
 7031 0447 03        		.byte	3
 7032 0448 01        		.byte	1
 7033 0449 01        		.byte	1
 7034 044a 00        		.byte	0
 7035 044b 00        		.byte	0
 7036 044c 00        		.byte	0
 7037 044d 00        		.byte	0
 7038 044e 06        		.byte	6
 7039 044f 03        		.byte	3
 7040 0450 C3        		.byte	-61
 7041 0451 E3        		.byte	-29
 7042 0452 33        		.byte	51
 7043 0453 3F        		.byte	63
 7044 0454 0E        		.byte	14
 7045 0455 00        		.byte	0
 7046 0456 00        		.byte	0
 7047 0457 00        		.byte	0
 7048 0458 00        		.byte	0
 7049 0459 00        		.byte	0
 7050 045a 0D        		.byte	13
 7051 045b 0D        		.byte	13
 7052 045c 00        		.byte	0
 7053 045d 00        		.byte	0
 7054 045e 00        		.byte	0
 7055 045f 00        		.byte	0
 7056 0460 00        		.byte	0
 7057 0461 F0        		.byte	-16
 7058 0462 F8        		.byte	-8
 7059 0463 1C        		.byte	28
 7060 0464 CE        		.byte	-50
 7061 0465 E6        		.byte	-26
 7062 0466 66        		.byte	102
 7063 0467 6E        		.byte	110
 7064 0468 FC        		.byte	-4
 7065 0469 F8        		.byte	-8
 7066 046a 00        		.byte	0
 7067 046b 03        		.byte	3
 7068 046c 0F        		.byte	15
 7069 046d 1C        		.byte	28
 7070 046e 39        		.byte	57
 7071 046f 33        		.byte	51
 7072 0470 33        		.byte	51
 7073 0471 33        		.byte	51
 7074 0472 3B        		.byte	59
 7075 0473 13        		.byte	19
 7076 0474 00        		.byte	0
 7077 0475 00        		.byte	0
 7078 0476 00        		.byte	0
 7079 0477 E0        		.byte	-32
 7080 0478 FE        		.byte	-2
 7081 0479 9F        		.byte	-97
 7082 047a 9F        		.byte	-97
 7083 047b FE        		.byte	-2
 7084 047c E0        		.byte	-32
 7085 047d 00        		.byte	0
 7086 047e 00        		.byte	0
 7087 047f 00        		.byte	0
 7088 0480 0C        		.byte	12
 7089 0481 0F        		.byte	15
 7090 0482 07        		.byte	7
 7091 0483 01        		.byte	1
 7092 0484 01        		.byte	1
 7093 0485 07        		.byte	7
 7094 0486 0F        		.byte	15
 7095 0487 0C        		.byte	12
 7096 0488 00        		.byte	0
 7097 0489 00        		.byte	0
 7098 048a FF        		.byte	-1
 7099 048b FF        		.byte	-1
 7100 048c 63        		.byte	99
 7101 048d 63        		.byte	99
 7102 048e 63        		.byte	99
 7103 048f 63        		.byte	99
 7104 0490 FE        		.byte	-2
 7105 0491 9E        		.byte	-98
 7106 0492 00        		.byte	0
 7107 0493 00        		.byte	0
 7108 0494 0F        		.byte	15
 7109 0495 0F        		.byte	15
 7110 0496 0C        		.byte	12
 7111 0497 0C        		.byte	12
 7112 0498 0C        		.byte	12
 7113 0499 0C        		.byte	12
 7114 049a 0F        		.byte	15
 7115 049b 07        		.byte	7
 7116 049c 00        		.byte	0
 7117 049d 00        		.byte	0
 7118 049e F8        		.byte	-8
 7119 049f FE        		.byte	-2
 7120 04a0 06        		.byte	6
 7121 04a1 03        		.byte	3
 7122 04a2 03        		.byte	3
 7123 04a3 03        		.byte	3
 7124 04a4 03        		.byte	3
 7125 04a5 06        		.byte	6
 7126 04a6 00        		.byte	0
 7127 04a7 00        		.byte	0
 7128 04a8 01        		.byte	1
 7129 04a9 07        		.byte	7
 7130 04aa 06        		.byte	6
 7131 04ab 0C        		.byte	12
 7132 04ac 0C        		.byte	12
 7133 04ad 0C        		.byte	12
 7134 04ae 0C        		.byte	12
 7135 04af 06        		.byte	6
 7136 04b0 00        		.byte	0
 7137 04b1 00        		.byte	0
 7138 04b2 FF        		.byte	-1
 7139 04b3 FF        		.byte	-1
 7140 04b4 03        		.byte	3
 7141 04b5 03        		.byte	3
 7142 04b6 03        		.byte	3
 7143 04b7 06        		.byte	6
 7144 04b8 FE        		.byte	-2
 7145 04b9 F8        		.byte	-8
 7146 04ba 00        		.byte	0
 7147 04bb 00        		.byte	0
 7148 04bc 0F        		.byte	15
 7149 04bd 0F        		.byte	15
 7150 04be 0C        		.byte	12
 7151 04bf 0C        		.byte	12
 7152 04c0 0C        		.byte	12
 7153 04c1 06        		.byte	6
 7154 04c2 07        		.byte	7
 7155 04c3 01        		.byte	1
 7156 04c4 00        		.byte	0
 7157 04c5 00        		.byte	0
 7158 04c6 FF        		.byte	-1
 7159 04c7 FF        		.byte	-1
 7160 04c8 63        		.byte	99
 7161 04c9 63        		.byte	99
 7162 04ca 63        		.byte	99
 7163 04cb 63        		.byte	99
 7164 04cc 63        		.byte	99
 7165 04cd 03        		.byte	3
 7166 04ce 00        		.byte	0
 7167 04cf 00        		.byte	0
 7168 04d0 0F        		.byte	15
 7169 04d1 0F        		.byte	15
 7170 04d2 0C        		.byte	12
 7171 04d3 0C        		.byte	12
 7172 04d4 0C        		.byte	12
 7173 04d5 0C        		.byte	12
 7174 04d6 0C        		.byte	12
 7175 04d7 0C        		.byte	12
 7176 04d8 00        		.byte	0
 7177 04d9 00        		.byte	0
 7178 04da FF        		.byte	-1
 7179 04db FF        		.byte	-1
 7180 04dc 63        		.byte	99
 7181 04dd 63        		.byte	99
 7182 04de 63        		.byte	99
 7183 04df 63        		.byte	99
 7184 04e0 63        		.byte	99
 7185 04e1 03        		.byte	3
 7186 04e2 00        		.byte	0
 7187 04e3 00        		.byte	0
 7188 04e4 0F        		.byte	15
 7189 04e5 0F        		.byte	15
 7190 04e6 00        		.byte	0
 7191 04e7 00        		.byte	0
 7192 04e8 00        		.byte	0
 7193 04e9 00        		.byte	0
 7194 04ea 00        		.byte	0
 7195 04eb 00        		.byte	0
 7196 04ec 00        		.byte	0
 7197 04ed 00        		.byte	0
 7198 04ee F8        		.byte	-8
 7199 04ef FE        		.byte	-2
 7200 04f0 06        		.byte	6
 7201 04f1 03        		.byte	3
 7202 04f2 C3        		.byte	-61
 7203 04f3 C3        		.byte	-61
 7204 04f4 C3        		.byte	-61
 7205 04f5 C6        		.byte	-58
 7206 04f6 00        		.byte	0
 7207 04f7 00        		.byte	0
 7208 04f8 01        		.byte	1
 7209 04f9 07        		.byte	7
 7210 04fa 06        		.byte	6
 7211 04fb 0C        		.byte	12
 7212 04fc 0C        		.byte	12
 7213 04fd 0C        		.byte	12
 7214 04fe 0F        		.byte	15
 7215 04ff 07        		.byte	7
 7216 0500 00        		.byte	0
 7217 0501 00        		.byte	0
 7218 0502 FF        		.byte	-1
 7219 0503 FF        		.byte	-1
 7220 0504 60        		.byte	96
 7221 0505 60        		.byte	96
 7222 0506 60        		.byte	96
 7223 0507 60        		.byte	96
 7224 0508 FF        		.byte	-1
 7225 0509 FF        		.byte	-1
 7226 050a 00        		.byte	0
 7227 050b 00        		.byte	0
 7228 050c 0F        		.byte	15
 7229 050d 0F        		.byte	15
 7230 050e 00        		.byte	0
 7231 050f 00        		.byte	0
 7232 0510 00        		.byte	0
 7233 0511 00        		.byte	0
 7234 0512 0F        		.byte	15
 7235 0513 0F        		.byte	15
 7236 0514 00        		.byte	0
 7237 0515 00        		.byte	0
 7238 0516 00        		.byte	0
 7239 0517 03        		.byte	3
 7240 0518 03        		.byte	3
 7241 0519 FF        		.byte	-1
 7242 051a FF        		.byte	-1
 7243 051b 03        		.byte	3
 7244 051c 03        		.byte	3
 7245 051d 00        		.byte	0
 7246 051e 00        		.byte	0
 7247 051f 00        		.byte	0
 7248 0520 00        		.byte	0
 7249 0521 0C        		.byte	12
 7250 0522 0C        		.byte	12
 7251 0523 0F        		.byte	15
 7252 0524 0F        		.byte	15
 7253 0525 0C        		.byte	12
 7254 0526 0C        		.byte	12
 7255 0527 00        		.byte	0
 7256 0528 00        		.byte	0
 7257 0529 00        		.byte	0
 7258 052a 00        		.byte	0
 7259 052b 00        		.byte	0
 7260 052c 00        		.byte	0
 7261 052d 03        		.byte	3
 7262 052e 03        		.byte	3
 7263 052f 03        		.byte	3
 7264 0530 FF        		.byte	-1
 7265 0531 FF        		.byte	-1
 7266 0532 00        		.byte	0
 7267 0533 00        		.byte	0
 7268 0534 06        		.byte	6
 7269 0535 0C        		.byte	12
 7270 0536 0C        		.byte	12
 7271 0537 0C        		.byte	12
 7272 0538 0C        		.byte	12
 7273 0539 0C        		.byte	12
 7274 053a 07        		.byte	7
 7275 053b 07        		.byte	7
 7276 053c 00        		.byte	0
 7277 053d 00        		.byte	0
 7278 053e FF        		.byte	-1
 7279 053f FF        		.byte	-1
 7280 0540 70        		.byte	112
 7281 0541 78        		.byte	120
 7282 0542 FE        		.byte	-2
 7283 0543 87        		.byte	-121
 7284 0544 03        		.byte	3
 7285 0545 01        		.byte	1
 7286 0546 00        		.byte	0
 7287 0547 00        		.byte	0
 7288 0548 0F        		.byte	15
 7289 0549 0F        		.byte	15
 7290 054a 00        		.byte	0
 7291 054b 00        		.byte	0
 7292 054c 01        		.byte	1
 7293 054d 07        		.byte	7
 7294 054e 0F        		.byte	15
 7295 054f 0C        		.byte	12
 7296 0550 00        		.byte	0
 7297 0551 00        		.byte	0
 7298 0552 FF        		.byte	-1
 7299 0553 FF        		.byte	-1
 7300 0554 00        		.byte	0
 7301 0555 00        		.byte	0
 7302 0556 00        		.byte	0
 7303 0557 00        		.byte	0
 7304 0558 00        		.byte	0
 7305 0559 00        		.byte	0
 7306 055a 00        		.byte	0
 7307 055b 00        		.byte	0
 7308 055c 0F        		.byte	15
 7309 055d 0F        		.byte	15
 7310 055e 0C        		.byte	12
 7311 055f 0C        		.byte	12
 7312 0560 0C        		.byte	12
 7313 0561 0C        		.byte	12
 7314 0562 0C        		.byte	12
 7315 0563 0C        		.byte	12
 7316 0564 00        		.byte	0
 7317 0565 00        		.byte	0
 7318 0566 FF        		.byte	-1
 7319 0567 FF        		.byte	-1
 7320 0568 1F        		.byte	31
 7321 0569 F8        		.byte	-8
 7322 056a F8        		.byte	-8
 7323 056b 1F        		.byte	31
 7324 056c FF        		.byte	-1
 7325 056d FF        		.byte	-1
 7326 056e 00        		.byte	0
 7327 056f 00        		.byte	0
 7328 0570 0F        		.byte	15
 7329 0571 0F        		.byte	15
 7330 0572 00        		.byte	0
 7331 0573 00        		.byte	0
 7332 0574 00        		.byte	0
 7333 0575 00        		.byte	0
 7334 0576 0F        		.byte	15
 7335 0577 0F        		.byte	15
 7336 0578 00        		.byte	0
 7337 0579 00        		.byte	0
 7338 057a FF        		.byte	-1
 7339 057b FF        		.byte	-1
 7340 057c 0F        		.byte	15
 7341 057d 78        		.byte	120
 7342 057e E0        		.byte	-32
 7343 057f 00        		.byte	0
 7344 0580 FF        		.byte	-1
 7345 0581 FF        		.byte	-1
 7346 0582 00        		.byte	0
 7347 0583 00        		.byte	0
 7348 0584 0F        		.byte	15
 7349 0585 0F        		.byte	15
 7350 0586 00        		.byte	0
 7351 0587 00        		.byte	0
 7352 0588 01        		.byte	1
 7353 0589 0F        		.byte	15
 7354 058a 0F        		.byte	15
 7355 058b 0F        		.byte	15
 7356 058c 00        		.byte	0
 7357 058d 00        		.byte	0
 7358 058e F8        		.byte	-8
 7359 058f FE        		.byte	-2
 7360 0590 07        		.byte	7
 7361 0591 03        		.byte	3
 7362 0592 03        		.byte	3
 7363 0593 07        		.byte	7
 7364 0594 FE        		.byte	-2
 7365 0595 F8        		.byte	-8
 7366 0596 00        		.byte	0
 7367 0597 00        		.byte	0
 7368 0598 01        		.byte	1
 7369 0599 07        		.byte	7
 7370 059a 0E        		.byte	14
 7371 059b 0C        		.byte	12
 7372 059c 0C        		.byte	12
 7373 059d 0E        		.byte	14
 7374 059e 07        		.byte	7
 7375 059f 01        		.byte	1
 7376 05a0 00        		.byte	0
 7377 05a1 00        		.byte	0
 7378 05a2 FF        		.byte	-1
 7379 05a3 FF        		.byte	-1
 7380 05a4 63        		.byte	99
 7381 05a5 63        		.byte	99
 7382 05a6 63        		.byte	99
 7383 05a7 63        		.byte	99
 7384 05a8 3E        		.byte	62
 7385 05a9 3E        		.byte	62
 7386 05aa 00        		.byte	0
 7387 05ab 00        		.byte	0
 7388 05ac 0F        		.byte	15
 7389 05ad 0F        		.byte	15
 7390 05ae 00        		.byte	0
 7391 05af 00        		.byte	0
 7392 05b0 00        		.byte	0
 7393 05b1 00        		.byte	0
 7394 05b2 00        		.byte	0
 7395 05b3 00        		.byte	0
 7396 05b4 00        		.byte	0
 7397 05b5 00        		.byte	0
 7398 05b6 F8        		.byte	-8
 7399 05b7 FE        		.byte	-2
 7400 05b8 07        		.byte	7
 7401 05b9 03        		.byte	3
 7402 05ba 03        		.byte	3
 7403 05bb 07        		.byte	7
 7404 05bc FE        		.byte	-2
 7405 05bd F8        		.byte	-8
 7406 05be 00        		.byte	0
 7407 05bf 00        		.byte	0
 7408 05c0 01        		.byte	1
 7409 05c1 07        		.byte	7
 7410 05c2 0E        		.byte	14
 7411 05c3 0C        		.byte	12
 7412 05c4 0C        		.byte	12
 7413 05c5 1E        		.byte	30
 7414 05c6 37        		.byte	55
 7415 05c7 03        		.byte	3
 7416 05c8 00        		.byte	0
 7417 05c9 00        		.byte	0
 7418 05ca FF        		.byte	-1
 7419 05cb FF        		.byte	-1
 7420 05cc 63        		.byte	99
 7421 05cd 63        		.byte	99
 7422 05ce E3        		.byte	-29
 7423 05cf E3        		.byte	-29
 7424 05d0 FE        		.byte	-2
 7425 05d1 1E        		.byte	30
 7426 05d2 00        		.byte	0
 7427 05d3 00        		.byte	0
 7428 05d4 0F        		.byte	15
 7429 05d5 0F        		.byte	15
 7430 05d6 00        		.byte	0
 7431 05d7 00        		.byte	0
 7432 05d8 00        		.byte	0
 7433 05d9 01        		.byte	1
 7434 05da 0F        		.byte	15
 7435 05db 0F        		.byte	15
 7436 05dc 08        		.byte	8
 7437 05dd 00        		.byte	0
 7438 05de 1C        		.byte	28
 7439 05df 3E        		.byte	62
 7440 05e0 73        		.byte	115
 7441 05e1 63        		.byte	99
 7442 05e2 63        		.byte	99
 7443 05e3 E3        		.byte	-29
 7444 05e4 C6        		.byte	-58
 7445 05e5 80        		.byte	-128
 7446 05e6 00        		.byte	0
 7447 05e7 00        		.byte	0
 7448 05e8 06        		.byte	6
 7449 05e9 0C        		.byte	12
 7450 05ea 0C        		.byte	12
 7451 05eb 0C        		.byte	12
 7452 05ec 0C        		.byte	12
 7453 05ed 0C        		.byte	12
 7454 05ee 07        		.byte	7
 7455 05ef 07        		.byte	7
 7456 05f0 00        		.byte	0
 7457 05f1 00        		.byte	0
 7458 05f2 03        		.byte	3
 7459 05f3 03        		.byte	3
 7460 05f4 03        		.byte	3
 7461 05f5 FF        		.byte	-1
 7462 05f6 FF        		.byte	-1
 7463 05f7 03        		.byte	3
 7464 05f8 03        		.byte	3
 7465 05f9 03        		.byte	3
 7466 05fa 00        		.byte	0
 7467 05fb 00        		.byte	0
 7468 05fc 00        		.byte	0
 7469 05fd 00        		.byte	0
 7470 05fe 00        		.byte	0
 7471 05ff 0F        		.byte	15
 7472 0600 0F        		.byte	15
 7473 0601 00        		.byte	0
 7474 0602 00        		.byte	0
 7475 0603 00        		.byte	0
 7476 0604 00        		.byte	0
 7477 0605 00        		.byte	0
 7478 0606 FF        		.byte	-1
 7479 0607 FF        		.byte	-1
 7480 0608 00        		.byte	0
 7481 0609 00        		.byte	0
 7482 060a 00        		.byte	0
 7483 060b 00        		.byte	0
 7484 060c FF        		.byte	-1
 7485 060d FF        		.byte	-1
 7486 060e 00        		.byte	0
 7487 060f 00        		.byte	0
 7488 0610 03        		.byte	3
 7489 0611 07        		.byte	7
 7490 0612 0E        		.byte	14
 7491 0613 0C        		.byte	12
 7492 0614 0C        		.byte	12
 7493 0615 0E        		.byte	14
 7494 0616 07        		.byte	7
 7495 0617 03        		.byte	3
 7496 0618 00        		.byte	0
 7497 0619 00        		.byte	0
 7498 061a 03        		.byte	3
 7499 061b 7F        		.byte	127
 7500 061c FE        		.byte	-2
 7501 061d 80        		.byte	-128
 7502 061e 80        		.byte	-128
 7503 061f FE        		.byte	-2
 7504 0620 7F        		.byte	127
 7505 0621 03        		.byte	3
 7506 0622 00        		.byte	0
 7507 0623 00        		.byte	0
 7508 0624 00        		.byte	0
 7509 0625 00        		.byte	0
 7510 0626 0F        		.byte	15
 7511 0627 0F        		.byte	15
 7512 0628 0F        		.byte	15
 7513 0629 0F        		.byte	15
 7514 062a 00        		.byte	0
 7515 062b 00        		.byte	0
 7516 062c 00        		.byte	0
 7517 062d 0F        		.byte	15
 7518 062e FF        		.byte	-1
 7519 062f F0        		.byte	-16
 7520 0630 00        		.byte	0
 7521 0631 F8        		.byte	-8
 7522 0632 F8        		.byte	-8
 7523 0633 00        		.byte	0
 7524 0634 F0        		.byte	-16
 7525 0635 FF        		.byte	-1
 7526 0636 0F        		.byte	15
 7527 0637 00        		.byte	0
 7528 0638 0F        		.byte	15
 7529 0639 0F        		.byte	15
 7530 063a 0F        		.byte	15
 7531 063b 00        		.byte	0
 7532 063c 00        		.byte	0
 7533 063d 0F        		.byte	15
 7534 063e 0F        		.byte	15
 7535 063f 0F        		.byte	15
 7536 0640 00        		.byte	0
 7537 0641 00        		.byte	0
 7538 0642 01        		.byte	1
 7539 0643 07        		.byte	7
 7540 0644 9F        		.byte	-97
 7541 0645 FC        		.byte	-4
 7542 0646 FC        		.byte	-4
 7543 0647 9F        		.byte	-97
 7544 0648 07        		.byte	7
 7545 0649 01        		.byte	1
 7546 064a 00        		.byte	0
 7547 064b 00        		.byte	0
 7548 064c 08        		.byte	8
 7549 064d 0E        		.byte	14
 7550 064e 0F        		.byte	15
 7551 064f 01        		.byte	1
 7552 0650 01        		.byte	1
 7553 0651 0F        		.byte	15
 7554 0652 0E        		.byte	14
 7555 0653 08        		.byte	8
 7556 0654 00        		.byte	0
 7557 0655 01        		.byte	1
 7558 0656 07        		.byte	7
 7559 0657 1F        		.byte	31
 7560 0658 3C        		.byte	60
 7561 0659 F0        		.byte	-16
 7562 065a F0        		.byte	-16
 7563 065b 3C        		.byte	60
 7564 065c 1F        		.byte	31
 7565 065d 07        		.byte	7
 7566 065e 01        		.byte	1
 7567 065f 00        		.byte	0
 7568 0660 00        		.byte	0
 7569 0661 00        		.byte	0
 7570 0662 00        		.byte	0
 7571 0663 0F        		.byte	15
 7572 0664 0F        		.byte	15
 7573 0665 00        		.byte	0
 7574 0666 00        		.byte	0
 7575 0667 00        		.byte	0
 7576 0668 00        		.byte	0
 7577 0669 00        		.byte	0
 7578 066a 03        		.byte	3
 7579 066b 03        		.byte	3
 7580 066c C3        		.byte	-61
 7581 066d E3        		.byte	-29
 7582 066e 7B        		.byte	123
 7583 066f 3F        		.byte	63
 7584 0670 0F        		.byte	15
 7585 0671 07        		.byte	7
 7586 0672 00        		.byte	0
 7587 0673 00        		.byte	0
 7588 0674 0E        		.byte	14
 7589 0675 0F        		.byte	15
 7590 0676 0F        		.byte	15
 7591 0677 0D        		.byte	13
 7592 0678 0C        		.byte	12
 7593 0679 0C        		.byte	12
 7594 067a 0C        		.byte	12
 7595 067b 0C        		.byte	12
 7596 067c 00        		.byte	0
 7597 067d 00        		.byte	0
 7598 067e 00        		.byte	0
 7599 067f 00        		.byte	0
 7600 0680 FF        		.byte	-1
 7601 0681 FF        		.byte	-1
 7602 0682 01        		.byte	1
 7603 0683 01        		.byte	1
 7604 0684 00        		.byte	0
 7605 0685 00        		.byte	0
 7606 0686 00        		.byte	0
 7607 0687 00        		.byte	0
 7608 0688 00        		.byte	0
 7609 0689 00        		.byte	0
 7610 068a 3F        		.byte	63
 7611 068b 3F        		.byte	63
 7612 068c 20        		.byte	32
 7613 068d 20        		.byte	32
 7614 068e 00        		.byte	0
 7615 068f 00        		.byte	0
 7616 0690 00        		.byte	0
 7617 0691 00        		.byte	0
 7618 0692 01        		.byte	1
 7619 0693 07        		.byte	7
 7620 0694 1C        		.byte	28
 7621 0695 70        		.byte	112
 7622 0696 C0        		.byte	-64
 7623 0697 00        		.byte	0
 7624 0698 00        		.byte	0
 7625 0699 00        		.byte	0
 7626 069a 00        		.byte	0
 7627 069b 00        		.byte	0
 7628 069c 00        		.byte	0
 7629 069d 00        		.byte	0
 7630 069e 00        		.byte	0
 7631 069f 00        		.byte	0
 7632 06a0 01        		.byte	1
 7633 06a1 07        		.byte	7
 7634 06a2 1C        		.byte	28
 7635 06a3 10        		.byte	16
 7636 06a4 00        		.byte	0
 7637 06a5 00        		.byte	0
 7638 06a6 00        		.byte	0
 7639 06a7 01        		.byte	1
 7640 06a8 01        		.byte	1
 7641 06a9 FF        		.byte	-1
 7642 06aa FF        		.byte	-1
 7643 06ab 00        		.byte	0
 7644 06ac 00        		.byte	0
 7645 06ad 00        		.byte	0
 7646 06ae 00        		.byte	0
 7647 06af 00        		.byte	0
 7648 06b0 00        		.byte	0
 7649 06b1 20        		.byte	32
 7650 06b2 20        		.byte	32
 7651 06b3 3F        		.byte	63
 7652 06b4 3F        		.byte	63
 7653 06b5 00        		.byte	0
 7654 06b6 00        		.byte	0
 7655 06b7 00        		.byte	0
 7656 06b8 00        		.byte	0
 7657 06b9 08        		.byte	8
 7658 06ba 0C        		.byte	12
 7659 06bb 0E        		.byte	14
 7660 06bc 07        		.byte	7
 7661 06bd 03        		.byte	3
 7662 06be 07        		.byte	7
 7663 06bf 0E        		.byte	14
 7664 06c0 0C        		.byte	12
 7665 06c1 08        		.byte	8
 7666 06c2 00        		.byte	0
 7667 06c3 00        		.byte	0
 7668 06c4 00        		.byte	0
 7669 06c5 00        		.byte	0
 7670 06c6 00        		.byte	0
 7671 06c7 00        		.byte	0
 7672 06c8 00        		.byte	0
 7673 06c9 00        		.byte	0
 7674 06ca 00        		.byte	0
 7675 06cb 00        		.byte	0
 7676 06cc 00        		.byte	0
 7677 06cd 00        		.byte	0
 7678 06ce 00        		.byte	0
 7679 06cf 00        		.byte	0
 7680 06d0 00        		.byte	0
 7681 06d1 00        		.byte	0
 7682 06d2 00        		.byte	0
 7683 06d3 00        		.byte	0
 7684 06d4 00        		.byte	0
 7685 06d5 00        		.byte	0
 7686 06d6 00        		.byte	0
 7687 06d7 80        		.byte	-128
 7688 06d8 80        		.byte	-128
 7689 06d9 80        		.byte	-128
 7690 06da 80        		.byte	-128
 7691 06db 80        		.byte	-128
 7692 06dc 80        		.byte	-128
 7693 06dd 80        		.byte	-128
 7694 06de 80        		.byte	-128
 7695 06df 80        		.byte	-128
 7696 06e0 80        		.byte	-128
 7697 06e1 00        		.byte	0
 7698 06e2 00        		.byte	0
 7699 06e3 00        		.byte	0
 7700 06e4 01        		.byte	1
 7701 06e5 03        		.byte	3
 7702 06e6 02        		.byte	2
 7703 06e7 00        		.byte	0
 7704 06e8 00        		.byte	0
 7705 06e9 00        		.byte	0
 7706 06ea 00        		.byte	0
 7707 06eb 00        		.byte	0
 7708 06ec 00        		.byte	0
 7709 06ed 00        		.byte	0
 7710 06ee 00        		.byte	0
 7711 06ef 00        		.byte	0
 7712 06f0 00        		.byte	0
 7713 06f1 00        		.byte	0
 7714 06f2 00        		.byte	0
 7715 06f3 00        		.byte	0
 7716 06f4 00        		.byte	0
 7717 06f5 00        		.byte	0
 7718 06f6 00        		.byte	0
 7719 06f7 B0        		.byte	-80
 7720 06f8 98        		.byte	-104
 7721 06f9 D8        		.byte	-40
 7722 06fa D8        		.byte	-40
 7723 06fb D8        		.byte	-40
 7724 06fc F8        		.byte	-8
 7725 06fd F0        		.byte	-16
 7726 06fe 00        		.byte	0
 7727 06ff 00        		.byte	0
 7728 0700 07        		.byte	7
 7729 0701 0F        		.byte	15
 7730 0702 0D        		.byte	13
 7731 0703 0C        		.byte	12
 7732 0704 0C        		.byte	12
 7733 0705 06        		.byte	6
 7734 0706 0F        		.byte	15
 7735 0707 0F        		.byte	15
 7736 0708 00        		.byte	0
 7737 0709 00        		.byte	0
 7738 070a FF        		.byte	-1
 7739 070b FF        		.byte	-1
 7740 070c 30        		.byte	48
 7741 070d 18        		.byte	24
 7742 070e 18        		.byte	24
 7743 070f 38        		.byte	56
 7744 0710 F0        		.byte	-16
 7745 0711 E0        		.byte	-32
 7746 0712 00        		.byte	0
 7747 0713 00        		.byte	0
 7748 0714 0F        		.byte	15
 7749 0715 0F        		.byte	15
 7750 0716 06        		.byte	6
 7751 0717 0C        		.byte	12
 7752 0718 0C        		.byte	12
 7753 0719 0E        		.byte	14
 7754 071a 07        		.byte	7
 7755 071b 03        		.byte	3
 7756 071c 00        		.byte	0
 7757 071d 00        		.byte	0
 7758 071e E0        		.byte	-32
 7759 071f F0        		.byte	-16
 7760 0720 38        		.byte	56
 7761 0721 18        		.byte	24
 7762 0722 18        		.byte	24
 7763 0723 18        		.byte	24
 7764 0724 18        		.byte	24
 7765 0725 30        		.byte	48
 7766 0726 00        		.byte	0
 7767 0727 00        		.byte	0
 7768 0728 03        		.byte	3
 7769 0729 07        		.byte	7
 7770 072a 0E        		.byte	14
 7771 072b 0C        		.byte	12
 7772 072c 0C        		.byte	12
 7773 072d 0C        		.byte	12
 7774 072e 0C        		.byte	12
 7775 072f 06        		.byte	6
 7776 0730 00        		.byte	0
 7777 0731 00        		.byte	0
 7778 0732 E0        		.byte	-32
 7779 0733 F0        		.byte	-16
 7780 0734 38        		.byte	56
 7781 0735 18        		.byte	24
 7782 0736 18        		.byte	24
 7783 0737 30        		.byte	48
 7784 0738 FF        		.byte	-1
 7785 0739 FF        		.byte	-1
 7786 073a 00        		.byte	0
 7787 073b 00        		.byte	0
 7788 073c 03        		.byte	3
 7789 073d 07        		.byte	7
 7790 073e 0E        		.byte	14
 7791 073f 0C        		.byte	12
 7792 0740 0C        		.byte	12
 7793 0741 06        		.byte	6
 7794 0742 0F        		.byte	15
 7795 0743 0F        		.byte	15
 7796 0744 00        		.byte	0
 7797 0745 00        		.byte	0
 7798 0746 E0        		.byte	-32
 7799 0747 F0        		.byte	-16
 7800 0748 D8        		.byte	-40
 7801 0749 D8        		.byte	-40
 7802 074a D8        		.byte	-40
 7803 074b D8        		.byte	-40
 7804 074c F0        		.byte	-16
 7805 074d E0        		.byte	-32
 7806 074e 00        		.byte	0
 7807 074f 00        		.byte	0
 7808 0750 03        		.byte	3
 7809 0751 07        		.byte	7
 7810 0752 0E        		.byte	14
 7811 0753 0C        		.byte	12
 7812 0754 0C        		.byte	12
 7813 0755 0C        		.byte	12
 7814 0756 0C        		.byte	12
 7815 0757 06        		.byte	6
 7816 0758 00        		.byte	0
 7817 0759 00        		.byte	0
 7818 075a 18        		.byte	24
 7819 075b 18        		.byte	24
 7820 075c FE        		.byte	-2
 7821 075d FF        		.byte	-1
 7822 075e 1B        		.byte	27
 7823 075f 1B        		.byte	27
 7824 0760 1B        		.byte	27
 7825 0761 00        		.byte	0
 7826 0762 00        		.byte	0
 7827 0763 00        		.byte	0
 7828 0764 00        		.byte	0
 7829 0765 00        		.byte	0
 7830 0766 0F        		.byte	15
 7831 0767 0F        		.byte	15
 7832 0768 00        		.byte	0
 7833 0769 00        		.byte	0
 7834 076a 00        		.byte	0
 7835 076b 00        		.byte	0
 7836 076c 00        		.byte	0
 7837 076d 00        		.byte	0
 7838 076e E0        		.byte	-32
 7839 076f F0        		.byte	-16
 7840 0770 38        		.byte	56
 7841 0771 18        		.byte	24
 7842 0772 18        		.byte	24
 7843 0773 30        		.byte	48
 7844 0774 F8        		.byte	-8
 7845 0775 F8        		.byte	-8
 7846 0776 00        		.byte	0
 7847 0777 00        		.byte	0
 7848 0778 03        		.byte	3
 7849 0779 37        		.byte	55
 7850 077a 6E        		.byte	110
 7851 077b 6C        		.byte	108
 7852 077c 6C        		.byte	108
 7853 077d 66        		.byte	102
 7854 077e 7F        		.byte	127
 7855 077f 3F        		.byte	63
 7856 0780 00        		.byte	0
 7857 0781 00        		.byte	0
 7858 0782 FF        		.byte	-1
 7859 0783 FF        		.byte	-1
 7860 0784 30        		.byte	48
 7861 0785 18        		.byte	24
 7862 0786 18        		.byte	24
 7863 0787 18        		.byte	24
 7864 0788 F8        		.byte	-8
 7865 0789 F0        		.byte	-16
 7866 078a 00        		.byte	0
 7867 078b 00        		.byte	0
 7868 078c 0F        		.byte	15
 7869 078d 0F        		.byte	15
 7870 078e 00        		.byte	0
 7871 078f 00        		.byte	0
 7872 0790 00        		.byte	0
 7873 0791 00        		.byte	0
 7874 0792 0F        		.byte	15
 7875 0793 0F        		.byte	15
 7876 0794 00        		.byte	0
 7877 0795 00        		.byte	0
 7878 0796 00        		.byte	0
 7879 0797 18        		.byte	24
 7880 0798 18        		.byte	24
 7881 0799 FB        		.byte	-5
 7882 079a FB        		.byte	-5
 7883 079b 00        		.byte	0
 7884 079c 00        		.byte	0
 7885 079d 00        		.byte	0
 7886 079e 00        		.byte	0
 7887 079f 00        		.byte	0
 7888 07a0 0C        		.byte	12
 7889 07a1 0C        		.byte	12
 7890 07a2 0C        		.byte	12
 7891 07a3 0F        		.byte	15
 7892 07a4 0F        		.byte	15
 7893 07a5 0C        		.byte	12
 7894 07a6 0C        		.byte	12
 7895 07a7 0C        		.byte	12
 7896 07a8 00        		.byte	0
 7897 07a9 00        		.byte	0
 7898 07aa 00        		.byte	0
 7899 07ab 18        		.byte	24
 7900 07ac 18        		.byte	24
 7901 07ad FB        		.byte	-5
 7902 07ae FB        		.byte	-5
 7903 07af 00        		.byte	0
 7904 07b0 00        		.byte	0
 7905 07b1 00        		.byte	0
 7906 07b2 00        		.byte	0
 7907 07b3 00        		.byte	0
 7908 07b4 60        		.byte	96
 7909 07b5 60        		.byte	96
 7910 07b6 60        		.byte	96
 7911 07b7 7F        		.byte	127
 7912 07b8 3F        		.byte	63
 7913 07b9 00        		.byte	0
 7914 07ba 00        		.byte	0
 7915 07bb 00        		.byte	0
 7916 07bc 00        		.byte	0
 7917 07bd 00        		.byte	0
 7918 07be FF        		.byte	-1
 7919 07bf FF        		.byte	-1
 7920 07c0 C0        		.byte	-64
 7921 07c1 F0        		.byte	-16
 7922 07c2 B8        		.byte	-72
 7923 07c3 18        		.byte	24
 7924 07c4 08        		.byte	8
 7925 07c5 00        		.byte	0
 7926 07c6 00        		.byte	0
 7927 07c7 00        		.byte	0
 7928 07c8 0F        		.byte	15
 7929 07c9 0F        		.byte	15
 7930 07ca 00        		.byte	0
 7931 07cb 01        		.byte	1
 7932 07cc 03        		.byte	3
 7933 07cd 0F        		.byte	15
 7934 07ce 0C        		.byte	12
 7935 07cf 08        		.byte	8
 7936 07d0 00        		.byte	0
 7937 07d1 00        		.byte	0
 7938 07d2 03        		.byte	3
 7939 07d3 03        		.byte	3
 7940 07d4 FF        		.byte	-1
 7941 07d5 FF        		.byte	-1
 7942 07d6 00        		.byte	0
 7943 07d7 00        		.byte	0
 7944 07d8 00        		.byte	0
 7945 07d9 00        		.byte	0
 7946 07da 00        		.byte	0
 7947 07db 00        		.byte	0
 7948 07dc 00        		.byte	0
 7949 07dd 00        		.byte	0
 7950 07de 07        		.byte	7
 7951 07df 0F        		.byte	15
 7952 07e0 0C        		.byte	12
 7953 07e1 0C        		.byte	12
 7954 07e2 0C        		.byte	12
 7955 07e3 00        		.byte	0
 7956 07e4 00        		.byte	0
 7957 07e5 00        		.byte	0
 7958 07e6 F8        		.byte	-8
 7959 07e7 F8        		.byte	-8
 7960 07e8 18        		.byte	24
 7961 07e9 F8        		.byte	-8
 7962 07ea F0        		.byte	-16
 7963 07eb 18        		.byte	24
 7964 07ec F8        		.byte	-8
 7965 07ed F0        		.byte	-16
 7966 07ee 00        		.byte	0
 7967 07ef 00        		.byte	0
 7968 07f0 0F        		.byte	15
 7969 07f1 0F        		.byte	15
 7970 07f2 00        		.byte	0
 7971 07f3 0F        		.byte	15
 7972 07f4 0F        		.byte	15
 7973 07f5 00        		.byte	0
 7974 07f6 0F        		.byte	15
 7975 07f7 0F        		.byte	15
 7976 07f8 00        		.byte	0
 7977 07f9 00        		.byte	0
 7978 07fa F8        		.byte	-8
 7979 07fb F8        		.byte	-8
 7980 07fc 30        		.byte	48
 7981 07fd 18        		.byte	24
 7982 07fe 18        		.byte	24
 7983 07ff 18        		.byte	24
 7984 0800 F8        		.byte	-8
 7985 0801 F0        		.byte	-16
 7986 0802 00        		.byte	0
 7987 0803 00        		.byte	0
 7988 0804 0F        		.byte	15
 7989 0805 0F        		.byte	15
 7990 0806 00        		.byte	0
 7991 0807 00        		.byte	0
 7992 0808 00        		.byte	0
 7993 0809 00        		.byte	0
 7994 080a 0F        		.byte	15
 7995 080b 0F        		.byte	15
 7996 080c 00        		.byte	0
 7997 080d 00        		.byte	0
 7998 080e E0        		.byte	-32
 7999 080f F0        		.byte	-16
 8000 0810 38        		.byte	56
 8001 0811 18        		.byte	24
 8002 0812 18        		.byte	24
 8003 0813 38        		.byte	56
 8004 0814 F0        		.byte	-16
 8005 0815 E0        		.byte	-32
 8006 0816 00        		.byte	0
 8007 0817 00        		.byte	0
 8008 0818 03        		.byte	3
 8009 0819 07        		.byte	7
 8010 081a 0E        		.byte	14
 8011 081b 0C        		.byte	12
 8012 081c 0C        		.byte	12
 8013 081d 0E        		.byte	14
 8014 081e 07        		.byte	7
 8015 081f 03        		.byte	3
 8016 0820 00        		.byte	0
 8017 0821 00        		.byte	0
 8018 0822 F8        		.byte	-8
 8019 0823 F8        		.byte	-8
 8020 0824 30        		.byte	48
 8021 0825 18        		.byte	24
 8022 0826 18        		.byte	24
 8023 0827 38        		.byte	56
 8024 0828 F0        		.byte	-16
 8025 0829 E0        		.byte	-32
 8026 082a 00        		.byte	0
 8027 082b 00        		.byte	0
 8028 082c 7F        		.byte	127
 8029 082d 7F        		.byte	127
 8030 082e 06        		.byte	6
 8031 082f 0C        		.byte	12
 8032 0830 0C        		.byte	12
 8033 0831 0E        		.byte	14
 8034 0832 07        		.byte	7
 8035 0833 03        		.byte	3
 8036 0834 00        		.byte	0
 8037 0835 00        		.byte	0
 8038 0836 E0        		.byte	-32
 8039 0837 F0        		.byte	-16
 8040 0838 38        		.byte	56
 8041 0839 18        		.byte	24
 8042 083a 18        		.byte	24
 8043 083b 30        		.byte	48
 8044 083c F8        		.byte	-8
 8045 083d F8        		.byte	-8
 8046 083e 00        		.byte	0
 8047 083f 00        		.byte	0
 8048 0840 03        		.byte	3
 8049 0841 07        		.byte	7
 8050 0842 0E        		.byte	14
 8051 0843 0C        		.byte	12
 8052 0844 0C        		.byte	12
 8053 0845 06        		.byte	6
 8054 0846 7F        		.byte	127
 8055 0847 7F        		.byte	127
 8056 0848 00        		.byte	0
 8057 0849 00        		.byte	0
 8058 084a 00        		.byte	0
 8059 084b F8        		.byte	-8
 8060 084c F8        		.byte	-8
 8061 084d 30        		.byte	48
 8062 084e 18        		.byte	24
 8063 084f 18        		.byte	24
 8064 0850 18        		.byte	24
 8065 0851 18        		.byte	24
 8066 0852 00        		.byte	0
 8067 0853 00        		.byte	0
 8068 0854 00        		.byte	0
 8069 0855 0F        		.byte	15
 8070 0856 0F        		.byte	15
 8071 0857 00        		.byte	0
 8072 0858 00        		.byte	0
 8073 0859 00        		.byte	0
 8074 085a 00        		.byte	0
 8075 085b 00        		.byte	0
 8076 085c 00        		.byte	0
 8077 085d 00        		.byte	0
 8078 085e 70        		.byte	112
 8079 085f F8        		.byte	-8
 8080 0860 D8        		.byte	-40
 8081 0861 D8        		.byte	-40
 8082 0862 D8        		.byte	-40
 8083 0863 D8        		.byte	-40
 8084 0864 98        		.byte	-104
 8085 0865 30        		.byte	48
 8086 0866 00        		.byte	0
 8087 0867 00        		.byte	0
 8088 0868 06        		.byte	6
 8089 0869 0C        		.byte	12
 8090 086a 0C        		.byte	12
 8091 086b 0C        		.byte	12
 8092 086c 0C        		.byte	12
 8093 086d 0D        		.byte	13
 8094 086e 0F        		.byte	15
 8095 086f 07        		.byte	7
 8096 0870 00        		.byte	0
 8097 0871 00        		.byte	0
 8098 0872 18        		.byte	24
 8099 0873 18        		.byte	24
 8100 0874 FE        		.byte	-2
 8101 0875 FE        		.byte	-2
 8102 0876 18        		.byte	24
 8103 0877 18        		.byte	24
 8104 0878 18        		.byte	24
 8105 0879 00        		.byte	0
 8106 087a 00        		.byte	0
 8107 087b 00        		.byte	0
 8108 087c 00        		.byte	0
 8109 087d 00        		.byte	0
 8110 087e 07        		.byte	7
 8111 087f 0F        		.byte	15
 8112 0880 0C        		.byte	12
 8113 0881 0C        		.byte	12
 8114 0882 0C        		.byte	12
 8115 0883 00        		.byte	0
 8116 0884 00        		.byte	0
 8117 0885 00        		.byte	0
 8118 0886 F8        		.byte	-8
 8119 0887 F8        		.byte	-8
 8120 0888 00        		.byte	0
 8121 0889 00        		.byte	0
 8122 088a 00        		.byte	0
 8123 088b 00        		.byte	0
 8124 088c F8        		.byte	-8
 8125 088d F8        		.byte	-8
 8126 088e 00        		.byte	0
 8127 088f 00        		.byte	0
 8128 0890 07        		.byte	7
 8129 0891 0F        		.byte	15
 8130 0892 0C        		.byte	12
 8131 0893 0C        		.byte	12
 8132 0894 0C        		.byte	12
 8133 0895 06        		.byte	6
 8134 0896 0F        		.byte	15
 8135 0897 0F        		.byte	15
 8136 0898 00        		.byte	0
 8137 0899 00        		.byte	0
 8138 089a 18        		.byte	24
 8139 089b F8        		.byte	-8
 8140 089c F0        		.byte	-16
 8141 089d 00        		.byte	0
 8142 089e 00        		.byte	0
 8143 089f F0        		.byte	-16
 8144 08a0 F8        		.byte	-8
 8145 08a1 18        		.byte	24
 8146 08a2 00        		.byte	0
 8147 08a3 00        		.byte	0
 8148 08a4 00        		.byte	0
 8149 08a5 00        		.byte	0
 8150 08a6 07        		.byte	7
 8151 08a7 0F        		.byte	15
 8152 08a8 0F        		.byte	15
 8153 08a9 07        		.byte	7
 8154 08aa 00        		.byte	0
 8155 08ab 00        		.byte	0
 8156 08ac 00        		.byte	0
 8157 08ad 38        		.byte	56
 8158 08ae F8        		.byte	-8
 8159 08af 80        		.byte	-128
 8160 08b0 00        		.byte	0
 8161 08b1 E0        		.byte	-32
 8162 08b2 E0        		.byte	-32
 8163 08b3 00        		.byte	0
 8164 08b4 80        		.byte	-128
 8165 08b5 F8        		.byte	-8
 8166 08b6 38        		.byte	56
 8167 08b7 00        		.byte	0
 8168 08b8 03        		.byte	3
 8169 08b9 0F        		.byte	15
 8170 08ba 0F        		.byte	15
 8171 08bb 01        		.byte	1
 8172 08bc 01        		.byte	1
 8173 08bd 0F        		.byte	15
 8174 08be 0F        		.byte	15
 8175 08bf 03        		.byte	3
 8176 08c0 00        		.byte	0
 8177 08c1 00        		.byte	0
 8178 08c2 08        		.byte	8
 8179 08c3 18        		.byte	24
 8180 08c4 78        		.byte	120
 8181 08c5 E0        		.byte	-32
 8182 08c6 E0        		.byte	-32
 8183 08c7 78        		.byte	120
 8184 08c8 18        		.byte	24
 8185 08c9 08        		.byte	8
 8186 08ca 00        		.byte	0
 8187 08cb 00        		.byte	0
 8188 08cc 08        		.byte	8
 8189 08cd 0C        		.byte	12
 8190 08ce 0F        		.byte	15
 8191 08cf 03        		.byte	3
 8192 08d0 03        		.byte	3
 8193 08d1 0F        		.byte	15
 8194 08d2 0C        		.byte	12
 8195 08d3 08        		.byte	8
 8196 08d4 00        		.byte	0
 8197 08d5 00        		.byte	0
 8198 08d6 08        		.byte	8
 8199 08d7 78        		.byte	120
 8200 08d8 F8        		.byte	-8
 8201 08d9 C0        		.byte	-64
 8202 08da 80        		.byte	-128
 8203 08db F8        		.byte	-8
 8204 08dc F8        		.byte	-8
 8205 08dd 18        		.byte	24
 8206 08de 00        		.byte	0
 8207 08df 00        		.byte	0
 8208 08e0 00        		.byte	0
 8209 08e1 60        		.byte	96
 8210 08e2 61        		.byte	97
 8211 08e3 7F        		.byte	127
 8212 08e4 1F        		.byte	31
 8213 08e5 07        		.byte	7
 8214 08e6 00        		.byte	0
 8215 08e7 00        		.byte	0
 8216 08e8 00        		.byte	0
 8217 08e9 00        		.byte	0
 8218 08ea 18        		.byte	24
 8219 08eb 18        		.byte	24
 8220 08ec 18        		.byte	24
 8221 08ed 98        		.byte	-104
 8222 08ee D8        		.byte	-40
 8223 08ef 78        		.byte	120
 8224 08f0 38        		.byte	56
 8225 08f1 18        		.byte	24
 8226 08f2 00        		.byte	0
 8227 08f3 00        		.byte	0
 8228 08f4 0C        		.byte	12
 8229 08f5 0E        		.byte	14
 8230 08f6 0F        		.byte	15
 8231 08f7 0D        		.byte	13
 8232 08f8 0C        		.byte	12
 8233 08f9 0C        		.byte	12
 8234 08fa 0C        		.byte	12
 8235 08fb 0C        		.byte	12
 8236 08fc 00        		.byte	0
 8237 08fd 00        		.byte	0
 8238 08fe 00        		.byte	0
 8239 08ff 80        		.byte	-128
 8240 0900 80        		.byte	-128
 8241 0901 7E        		.byte	126
 8242 0902 7F        		.byte	127
 8243 0903 01        		.byte	1
 8244 0904 01        		.byte	1
 8245 0905 00        		.byte	0
 8246 0906 00        		.byte	0
 8247 0907 00        		.byte	0
 8248 0908 00        		.byte	0
 8249 0909 00        		.byte	0
 8250 090a 00        		.byte	0
 8251 090b 3F        		.byte	63
 8252 090c 7F        		.byte	127
 8253 090d 40        		.byte	64
 8254 090e 40        		.byte	64
 8255 090f 00        		.byte	0
 8256 0910 00        		.byte	0
 8257 0911 10        		.byte	16
 8258 0912 18        		.byte	24
 8259 0913 1C        		.byte	28
 8260 0914 1E        		.byte	30
 8261 0915 FF        		.byte	-1
 8262 0916 FF        		.byte	-1
 8263 0917 1E        		.byte	30
 8264 0918 1C        		.byte	28
 8265 0919 18        		.byte	24
 8266 091a 10        		.byte	16
 8267 091b 00        		.byte	0
 8268 091c 00        		.byte	0
 8269 091d 00        		.byte	0
 8270 091e 00        		.byte	0
 8271 091f FF        		.byte	-1
 8272 0920 FF        		.byte	-1
 8273 0921 00        		.byte	0
 8274 0922 00        		.byte	0
 8275 0923 00        		.byte	0
 8276 0924 00        		.byte	0
 8277 0925 00        		.byte	0
 8278 0926 00        		.byte	0
 8279 0927 01        		.byte	1
 8280 0928 01        		.byte	1
 8281 0929 7F        		.byte	127
 8282 092a 7E        		.byte	126
 8283 092b 80        		.byte	-128
 8284 092c 80        		.byte	-128
 8285 092d 00        		.byte	0
 8286 092e 00        		.byte	0
 8287 092f 00        		.byte	0
 8288 0930 00        		.byte	0
 8289 0931 40        		.byte	64
 8290 0932 40        		.byte	64
 8291 0933 7F        		.byte	127
 8292 0934 3F        		.byte	63
 8293 0935 00        		.byte	0
 8294 0936 00        		.byte	0
 8295 0937 00        		.byte	0
 8296 0938 00        		.byte	0
 8297 0939 00        		.byte	0
 8298 093a C0        		.byte	-64
 8299 093b 60        		.byte	96
 8300 093c 60        		.byte	96
 8301 093d 60        		.byte	96
 8302 093e C0        		.byte	-64
 8303 093f C0        		.byte	-64
 8304 0940 C0        		.byte	-64
 8305 0941 60        		.byte	96
 8306 0942 00        		.byte	0
 8307 0943 00        		.byte	0
 8308 0944 00        		.byte	0
 8309 0945 00        		.byte	0
 8310 0946 00        		.byte	0
 8311 0947 00        		.byte	0
 8312 0948 00        		.byte	0
 8313 0949 00        		.byte	0
 8314 094a 00        		.byte	0
 8315 094b 00        		.byte	0
 8316 094c 00        		.byte	0
 8317               		.comm RX_array,256,1
 8318               		.comm buffer,256,1
 8319               		.comm debounce,8,1
 8320               		.comm font_bytes,1,1
 8321               		.comm font_w,1,1
 8322               		.comm font_h,1,1
 8323               		.comm font_space,1,1
 8588               	.Letext0:
DEFINED SYMBOLS
                            *ABS*:0000000000000000 main.c
     /tmp/ccbJjCKd.s:2      *ABS*:000000000000003f __SREG__
     /tmp/ccbJjCKd.s:3      *ABS*:000000000000003e __SP_H__
     /tmp/ccbJjCKd.s:4      *ABS*:000000000000003d __SP_L__
     /tmp/ccbJjCKd.s:5      *ABS*:0000000000000034 __CCP__
     /tmp/ccbJjCKd.s:6      *ABS*:0000000000000000 __tmp_reg__
     /tmp/ccbJjCKd.s:7      *ABS*:0000000000000001 __zero_reg__
     /tmp/ccbJjCKd.s:18     .text:0000000000000000 __vector_20
     /tmp/ccbJjCKd.s:5786   .bss:0000000000000000 RX_in
                            *COM*:0000000000000100 RX_array
     /tmp/ccbJjCKd.s:5798   .bss:0000000000000003 RX_bytes
     /tmp/ccbJjCKd.s:5804   .bss:0000000000000004 RX_pause
     /tmp/ccbJjCKd.s:85     .text:000000000000005e __vector_16
     /tmp/ccbJjCKd.s:5829   .data:0000000000000039 BL_dutycycle
     /tmp/ccbJjCKd.s:142    .text:00000000000000a8 ioinit
     /tmp/ccbJjCKd.s:179    .text:00000000000000ce delay_us
     /tmp/ccbJjCKd.s:220    .text:00000000000000f4 delay_ms
     /tmp/ccbJjCKd.s:261    .text:0000000000000120 USART_Init
     /tmp/ccbJjCKd.s:295    .text:000000000000013e RX_get_byte
     /tmp/ccbJjCKd.s:5792   .bss:0000000000000001 RX_read
     /tmp/ccbJjCKd.s:363    .text:000000000000019a put_char
     /tmp/ccbJjCKd.s:385    .text:00000000000001aa delay
     /tmp/ccbJjCKd.s:411    .text:00000000000001b6 write_command_LCD
     /tmp/ccbJjCKd.s:530    .text:000000000000020a write_data_LCD
     /tmp/ccbJjCKd.s:649    .text:000000000000025e write_block
     /tmp/ccbJjCKd.s:975    .text:000000000000038c read_data_LCD
     /tmp/ccbJjCKd.s:1105   .text:00000000000003de read_block
     /tmp/ccbJjCKd.s:1477   .text:000000000000052e clear_screen
     /tmp/ccbJjCKd.s:5810   .bss:0000000000000005 reverse
     /tmp/ccbJjCKd.s:5894   .bss:000000000000000b x_offset
     /tmp/ccbJjCKd.s:5900   .bss:000000000000000c y_offset
                            *COM*:0000000000000100 buffer
     /tmp/ccbJjCKd.s:1660   .text:00000000000005ec bitblt
     /tmp/ccbJjCKd.s:2284   .text:0000000000000972 print_char
                            *COM*:0000000000000001 font_bytes
     /tmp/ccbJjCKd.s:5918   .bss:000000000000000d aux_font
     /tmp/ccbJjCKd.s:5932   .progmem.data:0000000000000000 text_array
                            *COM*:0000000000000001 font_w
                            *COM*:0000000000000001 font_h
     /tmp/ccbJjCKd.s:5906   .data:0000000000000a63 font_mode
                            *COM*:0000000000000001 font_space
     /tmp/ccbJjCKd.s:6413   .progmem.data:00000000000001de aux_text_array
     /tmp/ccbJjCKd.s:2595   .text:0000000000000b28 read_byte
     /tmp/ccbJjCKd.s:2621   .text:0000000000000b3e pixel
     /tmp/ccbJjCKd.s:5926   .bss:0000000000000019 temp_side.2470
     /tmp/ccbJjCKd.s:5925   .bss:0000000000000018 temp_x.2471
     /tmp/ccbJjCKd.s:5927   .bss:000000000000001a temp_page.2469
     /tmp/ccbJjCKd.s:5924   .bss:0000000000000017 temp_data1.2472
     /tmp/ccbJjCKd.s:5923   .bss:0000000000000016 temp_data2.2473
     /tmp/ccbJjCKd.s:2758   .text:0000000000000c14 line
     /tmp/ccbJjCKd.s:3039   .text:0000000000000d72 circle
     /tmp/ccbJjCKd.s:3258   .text:0000000000000ebe EEPROM_write
     /tmp/ccbJjCKd.s:3284   .text:0000000000000ece EEPROM_read
     /tmp/ccbJjCKd.s:3309   .text:0000000000000edc set_backlight
     /tmp/ccbJjCKd.s:3364   .text:0000000000000f1a draw_block
     /tmp/ccbJjCKd.s:5922   .bss:0000000000000014 width.2650
     /tmp/ccbJjCKd.s:5920   .bss:0000000000000010 x.2652
     /tmp/ccbJjCKd.s:5921   .bss:0000000000000012 height.2651
                             .bss:000000000000000e y.2653
     /tmp/ccbJjCKd.s:3490   .text:0000000000000fd6 del_char
     /tmp/ccbJjCKd.s:3581   .text:0000000000001070 box
     /tmp/ccbJjCKd.s:3643   .text:00000000000010c4 draw_sprite
     /tmp/ccbJjCKd.s:5865   .data:000000000000003b sprite
     /tmp/ccbJjCKd.s:3688   .text:00000000000010fa set_baud
     /tmp/ccbJjCKd.s:3763   .text:0000000000001150 LCD_reset
     /tmp/ccbJjCKd.s:3821   .text:000000000000119a main
     /tmp/ccbJjCKd.s:5779   .data:0000000000000037 baud_rate
     /tmp/ccbJjCKd.s:5816   .data:0000000000000038 splash_screen
     /tmp/ccbJjCKd.s:5823   .bss:0000000000000006 debug_msg
     /tmp/ccbJjCKd.s:5911   .data:0000000000000a64 CR_LF
                            *COM*:0000000000000008 debounce
     /tmp/ccbJjCKd.s:5859   .bss:000000000000000a buttons
     /tmp/ccbJjCKd.s:5853   .bss:0000000000000009 RGB_counter
     /tmp/ccbJjCKd.s:5834   .data:000000000000003a RGB_red
     /tmp/ccbJjCKd.s:5841   .bss:0000000000000007 RGB_green
     /tmp/ccbJjCKd.s:5847   .bss:0000000000000008 RGB_blue

UNDEFINED SYMBOLS
__divmodhi4
__udivmodqi4
rprintf_devopen
rprintf
__do_copy_data
__do_clear_bss
