   1               		.file	"main.c"
   2               	__SREG__ = 0x3f
   3               	__SP_H__ = 0x3e
   4               	__SP_L__ = 0x3d
   5               	__CCP__  = 0x34
   6               	__tmp_reg__ = 0
   7               	__zero_reg__ = 1
  15               	.Ltext0:
  16               	.global	__vector_18
  18               	__vector_18:
  19               	.LFB4:
  20               	.LM1:
  21 0000 1F92      		push __zero_reg__
  22 0002 0F92      		push r0
  23 0004 0FB6      		in r0,__SREG__
  24 0006 0F92      		push r0
  25 0008 1124      		clr __zero_reg__
  26 000a 2F93      		push r18
  27 000c 8F93      		push r24
  28 000e 9F93      		push r25
  29 0010 EF93      		push r30
  30 0012 FF93      		push r31
  31               	/* prologue: Signal */
  32               	/* frame size = 0 */
  33               	.LM2:
  34               	/* #APP */
  35               	 ;  204 "main.c" 1
  36 0014 F894      		cli
  37               	 ;  0 "" 2
  38               	.LM3:
  39               	/* #NOAPP */
  40 0016 E091 0000 		lds r30,RX_in
  41 001a F091 0000 		lds r31,(RX_in)+1
  42 001e 8091 C600 		lds r24,198
  43 0022 E050      		subi r30,lo8(-(RX_array))
  44 0024 F040      		sbci r31,hi8(-(RX_array))
  45 0026 8083      		st Z,r24
  46               	.LM4:
  47 0028 8091 0000 		lds r24,RX_in
  48 002c 9091 0000 		lds r25,(RX_in)+1
  49 0030 8959      		subi r24,lo8(409)
  50 0032 9140      		sbci r25,hi8(409)
  51 0034 00F0      		brlo .L2
  52 0036 E091 0000 		lds r30,RX_in
  53 003a F091 0000 		lds r31,(RX_in)+1
  54 003e E050      		subi r30,lo8(-(RX_array))
  55 0040 F040      		sbci r31,hi8(-(RX_array))
  56 0042 8081      		ld r24,Z
  57 0044 8C37      		cpi r24,lo8(124)
  58 0046 01F0      		breq .L6
  59               	.L2:
  60               	.LM5:
  61 0048 8091 0000 		lds r24,RX_in
  62 004c 9091 0000 		lds r25,(RX_in)+1
  63 0050 0196      		adiw r24,1
  64 0052 9093 0000 		sts (RX_in)+1,r25
  65 0056 8093 0000 		sts RX_in,r24
  66               	.LM6:
  67 005a 8091 0000 		lds r24,RX_in
  68 005e 9091 0000 		lds r25,(RX_in)+1
  69 0062 805A      		subi r24,lo8(416)
  70 0064 9140      		sbci r25,hi8(416)
  71 0066 00F0      		brlo .L3
  72 0068 1092 0000 		sts (RX_in)+1,__zero_reg__
  73 006c 1092 0000 		sts RX_in,__zero_reg__
  74               	.L3:
  75               	.LM7:
  76               	/* #APP */
  77               	 ;  224 "main.c" 1
  78 0070 7894      		sei
  79               	 ;  0 "" 2
  80               	/* epilogue start */
  81               	.LM8:
  82               	/* #NOAPP */
  83 0072 FF91      		pop r31
  84 0074 EF91      		pop r30
  85 0076 9F91      		pop r25
  86 0078 8F91      		pop r24
  87 007a 2F91      		pop r18
  88 007c 0F90      		pop r0
  89 007e 0FBE      		out __SREG__,r0
  90 0080 0F90      		pop r0
  91 0082 1F90      		pop __zero_reg__
  92 0084 1895      		reti
  93               	.L6:
  94               	.LM9:
  95 0086 E091 0000 		lds r30,RX_in
  96 008a F091 0000 		lds r31,(RX_in)+1
  97 008e E050      		subi r30,lo8(-(RX_array))
  98 0090 F040      		sbci r31,hi8(-(RX_array))
  99 0092 8081      		ld r24,Z
 100 0094 8093 0000 		sts RX_array,r24
 101               	.LM10:
 102 0098 1092 0000 		sts (RX_in)+1,__zero_reg__
 103 009c 1092 0000 		sts RX_in,__zero_reg__
 104 00a0 00C0      		rjmp .L2
 105               	.LFE4:
 107               	.global	__vector_14
 109               	__vector_14:
 110               	.LFB5:
 111               	.LM11:
 112 00a2 1F92      		push __zero_reg__
 113 00a4 0F92      		push r0
 114 00a6 0FB6      		in r0,__SREG__
 115 00a8 0F92      		push r0
 116 00aa 1124      		clr __zero_reg__
 117 00ac 8F93      		push r24
 118 00ae 9F93      		push r25
 119               	/* prologue: Signal */
 120               	/* frame size = 0 */
 121               	.LM12:
 122 00b0 15BC      		out 69-32,__zero_reg__
 123               	.LM13:
 124 00b2 1092 6E00 		sts 110,__zero_reg__
 125               	.LM14:
 126 00b6 82E0      		ldi r24,lo8(2)
 127 00b8 85BB      		out 53-32,r24
 128               	.LM15:
 129 00ba 16BC      		out 70-32,__zero_reg__
 130               	.LM16:
 131 00bc 1A99      		sbic 35-32,2
 132 00be 00C0      		rjmp .L11
 133               	.LM17:
 134 00c0 2A9A      		sbi 37-32,2
 135               	.LM18:
 136 00c2 84E6      		ldi r24,lo8(100)
 137 00c4 9091 0000 		lds r25,BL_dutycycle
 138 00c8 891B      		sub r24,r25
 139 00ca 87BD      		out 71-32,r24
 140               	.L9:
 141               	.LM19:
 142 00cc 82E0      		ldi r24,lo8(2)
 143 00ce 8093 6E00 		sts 110,r24
 144               	.LM20:
 145 00d2 85BD      		out 69-32,r24
 146               	/* epilogue start */
 147               	.LM21:
 148 00d4 9F91      		pop r25
 149 00d6 8F91      		pop r24
 150 00d8 0F90      		pop r0
 151 00da 0FBE      		out __SREG__,r0
 152 00dc 0F90      		pop r0
 153 00de 1F90      		pop __zero_reg__
 154 00e0 1895      		reti
 155               	.L11:
 156               	.LM22:
 157 00e2 2A98      		cbi 37-32,2
 158               	.LM23:
 159 00e4 8091 0000 		lds r24,BL_dutycycle
 160 00e8 87BD      		out 71-32,r24
 161 00ea 00C0      		rjmp .L9
 162               	.LFE5:
 164               	.global	ioinit
 166               	ioinit:
 167               	.LFB7:
 168               	.LM24:
 169               	/* prologue: function */
 170               	/* frame size = 0 */
 171               	.LM25:
 172 00ec 83E0      		ldi r24,lo8(3)
 173 00ee 84B9      		out 36-32,r24
 174               	.LM26:
 175 00f0 8CEF      		ldi r24,lo8(-4)
 176 00f2 8AB9      		out 42-32,r24
 177               	.LM27:
 178 00f4 2A9A      		sbi 37-32,2
 179               	.LM28:
 180 00f6 229A      		sbi 36-32,2
 181               	.LM29:
 182 00f8 8091 0000 		lds r24,display
 183 00fc 8823      		tst r24
 184 00fe 01F0      		breq .L16
 185               	.LM30:
 186 0100 8130      		cpi r24,lo8(1)
 187 0102 01F0      		breq .L17
 188               	.L14:
 189               	.LM31:
 190 0104 82E0      		ldi r24,lo8(2)
 191 0106 8093 B100 		sts 177,r24
 192               	.LM32:
 193 010a 84BD      		out 68-32,r24
 194               	.LM33:
 195 010c 8093 6E00 		sts 110,r24
 196               	.LM34:
 197 0110 8091 0000 		lds r24,BL_dutycycle
 198 0114 87BD      		out 71-32,r24
 199               	/* epilogue start */
 200               	.LM35:
 201 0116 0895      		ret
 202               	.L16:
 203               	.LM36:
 204 0118 8FE3      		ldi r24,lo8(63)
 205 011a 87B9      		out 39-32,r24
 206               	.LM37:
 207 011c 88B9      		out 40-32,r24
 208 011e 00C0      		rjmp .L14
 209               	.L17:
 210               	.LM38:
 211 0120 8FE3      		ldi r24,lo8(63)
 212 0122 88B9      		out 40-32,r24
 213               	.LM39:
 214 0124 87B9      		out 39-32,r24
 215 0126 00C0      		rjmp .L14
 216               	.LFE7:
 218               	.global	delay_us
 220               	delay_us:
 221               	.LFB9:
 222               	.LM40:
 223               	.LVL0:
 224               	/* prologue: function */
 225               	/* frame size = 0 */
 226               	.LM41:
 227 0128 8823      		tst r24
 228 012a 01F4      		brne .L19
 229 012c 9FEF      		ldi r25,lo8(-1)
 230               	.L20:
 231               	.LM42:
 232 012e B89A      		sbi 55-32,0
 233               	.LM43:
 234 0130 9093 B200 		sts 178,r25
 235               	.L21:
 236               	.LM44:
 237 0134 B89B      		sbis 55-32,0
 238 0136 00C0      		rjmp .L21
 239               	.LM45:
 240 0138 8823      		tst r24
 241 013a 01F0      		breq .L24
 242               	.LM46:
 243 013c B89A      		sbi 55-32,0
 244               	.LM47:
 245 013e 9093 B200 		sts 178,r25
 246               	.L23:
 247               	.LM48:
 248 0142 B89B      		sbis 55-32,0
 249 0144 00C0      		rjmp .L23
 250               	.L24:
 251 0146 0895      		ret
 252               	.L19:
 253               	.LM49:
 254 0148 982F      		mov r25,r24
 255 014a 9195      		neg r25
 256 014c 00C0      		rjmp .L20
 257               	.LFE9:
 259               	.global	delay_ms
 261               	delay_ms:
 262               	.LFB8:
 263               	.LM50:
 264               	.LVL1:
 265 014e CF93      		push r28
 266 0150 DF93      		push r29
 267               	/* prologue: function */
 268               	/* frame size = 0 */
 269 0152 EC01      		movw r28,r24
 270               	.LM51:
 271 0154 0097      		sbiw r24,0
 272 0156 01F0      		breq .L30
 273               	.L31:
 274               	.LM52:
 275 0158 8AEF      		ldi r24,lo8(-6)
 276               	.LVL2:
 277 015a 0E94 0000 		call delay_us
 278               	.LM53:
 279 015e 8AEF      		ldi r24,lo8(-6)
 280 0160 0E94 0000 		call delay_us
 281               	.LM54:
 282 0164 8AEF      		ldi r24,lo8(-6)
 283 0166 0E94 0000 		call delay_us
 284               	.LM55:
 285 016a 8AEF      		ldi r24,lo8(-6)
 286 016c 0E94 0000 		call delay_us
 287               	.LM56:
 288 0170 2197      		sbiw r28,1
 289 0172 01F4      		brne .L31
 290               	.LVL3:
 291               	.L30:
 292               	/* epilogue start */
 293               	.LM57:
 294 0174 DF91      		pop r29
 295 0176 CF91      		pop r28
 296               	.LVL4:
 297 0178 0895      		ret
 298               	.LFE8:
 300               	.global	USART_Init
 302               	USART_Init:
 303               	.LFB10:
 304               	.LM58:
 305               	.LVL5:
 306               	/* prologue: function */
 307               	/* frame size = 0 */
 308               	.LM59:
 309 017a 9093 C500 		sts 197,r25
 310               	.LVL6:
 311               	.LM60:
 312 017e 8093 C400 		sts 196,r24
 313               	.LM61:
 314 0182 82E0      		ldi r24,lo8(2)
 315               	.LVL7:
 316 0184 8093 C000 		sts 192,r24
 317               	.LM62:
 318 0188 88E9      		ldi r24,lo8(-104)
 319 018a 8093 C100 		sts 193,r24
 320               	.LM63:
 321 018e 86E0      		ldi r24,lo8(6)
 322 0190 8093 C200 		sts 194,r24
 323               	.LM64:
 324               	/* #APP */
 325               	 ;  767 "main.c" 1
 326 0194 7894      		sei
 327               	 ;  0 "" 2
 328               	/* epilogue start */
 329               	.LM65:
 330               	/* #NOAPP */
 331 0196 0895      		ret
 332               	.LFE10:
 334               	.global	put_char
 336               	put_char:
 337               	.LFB11:
 338               	.LM66:
 339               	.LVL8:
 340               	/* prologue: function */
 341               	/* frame size = 0 */
 342 0198 982F      		mov r25,r24
 343               	.LVL9:
 344               	.L36:
 345               	.LM67:
 346 019a 8091 C000 		lds r24,192
 347 019e 85FF      		sbrs r24,5
 348 01a0 00C0      		rjmp .L36
 349               	.LM68:
 350 01a2 9093 C600 		sts 198,r25
 351               	/* epilogue start */
 352               	.LM69:
 353 01a6 0895      		ret
 354               	.LFE11:
 356               	.global	delay
 358               	delay:
 359               	.LFB12:
 360               	.LM70:
 361               	/* prologue: function */
 362               	/* frame size = 0 */
 363               	.LM71:
 364 01a8 80E0      		ldi r24,lo8(0)
 365               	.LVL10:
 366               	.L40:
 367               	.LM72:
 368               	/* #APP */
 369               	 ;  786 "main.c" 1
 370 01aa 0000      		nop
 371               	 ;  0 "" 2
 372               	.LM73:
 373               	/* #NOAPP */
 374 01ac 8F5F      		subi r24,lo8(-(1))
 375 01ae 8E31      		cpi r24,lo8(30)
 376 01b0 01F4      		brne .L40
 377               	/* epilogue start */
 378               	.LM74:
 379 01b2 0895      		ret
 380               	.LFE12:
 382               	.global	set_data
 384               	set_data:
 385               	.LFB13:
 386               	.LM75:
 387               	.LVL11:
 388               	/* prologue: function */
 389               	/* frame size = 0 */
 390               	.LM76:
 391 01b4 95B1      		in r25,37-32
 392 01b6 9C7F      		andi r25,lo8(-4)
 393 01b8 95B9      		out 37-32,r25
 394               	.LM77:
 395 01ba 9BB1      		in r25,43-32
 396 01bc 9370      		andi r25,lo8(3)
 397 01be 9BB9      		out 43-32,r25
 398               	.LM78:
 399 01c0 25B1      		in r18,37-32
 400 01c2 982F      		mov r25,r24
 401 01c4 9370      		andi r25,lo8(3)
 402 01c6 922B      		or r25,r18
 403 01c8 95B9      		out 37-32,r25
 404               	.LM79:
 405 01ca 9BB1      		in r25,43-32
 406 01cc 8C7F      		andi r24,lo8(-4)
 407               	.LVL12:
 408 01ce 982B      		or r25,r24
 409 01d0 9BB9      		out 43-32,r25
 410               	/* epilogue start */
 411               	.LM80:
 412 01d2 0895      		ret
 413               	.LFE13:
 415               	.global	set_x
 417               	set_x:
 418               	.LFB15:
 419               	.LM81:
 420               	.LVL13:
 421               	/* prologue: function */
 422               	/* frame size = 0 */
 423               	.LM82:
 424 01d4 8823      		tst r24
 425 01d6 01F4      		brne .L46
 426 01d8 93E0      		ldi r25,lo8(3)
 427 01da 2CE7      		ldi r18,lo8(124)
 428               	.L47:
 429               	.LM83:
 430 01dc 88B1      		in r24,40-32
 431               	.LVL14:
 432 01de 887F      		andi r24,lo8(-8)
 433 01e0 88B9      		out 40-32,r24
 434               	.LBB164:
 435               	.LBB165:
 436               	.LM84:
 437 01e2 85B1      		in r24,37-32
 438 01e4 8C7F      		andi r24,lo8(-4)
 439 01e6 85B9      		out 37-32,r24
 440               	.LM85:
 441 01e8 8BB1      		in r24,43-32
 442 01ea 8370      		andi r24,lo8(3)
 443 01ec 8BB9      		out 43-32,r24
 444               	.LM86:
 445 01ee 85B1      		in r24,37-32
 446 01f0 982B      		or r25,r24
 447 01f2 95B9      		out 37-32,r25
 448               	.LM87:
 449 01f4 8BB1      		in r24,43-32
 450 01f6 282B      		or r18,r24
 451 01f8 2BB9      		out 43-32,r18
 452 01fa 80E0      		ldi r24,lo8(0)
 453               	.LVL15:
 454               	.L48:
 455               	.LBE165:
 456               	.LBE164:
 457               	.LBB166:
 458               	.LBB167:
 459               	.LM88:
 460               	/* #APP */
 461               	 ;  786 "main.c" 1
 462 01fc 0000      		nop
 463               	 ;  0 "" 2
 464               	.LM89:
 465               	/* #NOAPP */
 466 01fe 8F5F      		subi r24,lo8(-(1))
 467 0200 8E31      		cpi r24,lo8(30)
 468 0202 01F4      		brne .L48
 469               	.LBE167:
 470               	.LBE166:
 471               	.LM90:
 472 0204 409A      		sbi 40-32,0
 473 0206 80E0      		ldi r24,lo8(0)
 474               	.LVL16:
 475               	.L49:
 476               	.LBB168:
 477               	.LBB169:
 478               	.LM91:
 479               	/* #APP */
 480               	 ;  786 "main.c" 1
 481 0208 0000      		nop
 482               	 ;  0 "" 2
 483               	.LM92:
 484               	/* #NOAPP */
 485 020a 8F5F      		subi r24,lo8(-(1))
 486 020c 8E31      		cpi r24,lo8(30)
 487 020e 01F4      		brne .L49
 488               	.LBE169:
 489               	.LBE168:
 490               	.LM93:
 491 0210 4098      		cbi 40-32,0
 492 0212 80E0      		ldi r24,lo8(0)
 493               	.LVL17:
 494               	.L50:
 495               	.LBB170:
 496               	.LBB171:
 497               	.LM94:
 498               	/* #APP */
 499               	 ;  786 "main.c" 1
 500 0214 0000      		nop
 501               	 ;  0 "" 2
 502               	.LM95:
 503               	/* #NOAPP */
 504 0216 8F5F      		subi r24,lo8(-(1))
 505 0218 8E31      		cpi r24,lo8(30)
 506 021a 01F4      		brne .L50
 507               	.LBE171:
 508               	.LBE170:
 509               	.LM96:
 510 021c 88B1      		in r24,40-32
 511               	.LVL18:
 512 021e 8760      		ori r24,lo8(7)
 513 0220 88B9      		out 40-32,r24
 514 0222 80E0      		ldi r24,lo8(0)
 515               	.LVL19:
 516               	.L51:
 517               	.LBB172:
 518               	.LBB173:
 519               	.LM97:
 520               	/* #APP */
 521               	 ;  786 "main.c" 1
 522 0224 0000      		nop
 523               	 ;  0 "" 2
 524               	.LM98:
 525               	/* #NOAPP */
 526 0226 8F5F      		subi r24,lo8(-(1))
 527 0228 8E31      		cpi r24,lo8(30)
 528 022a 01F4      		brne .L51
 529               	/* epilogue start */
 530               	.LBE173:
 531               	.LBE172:
 532               	.LM99:
 533 022c 0895      		ret
 534               	.LVL20:
 535               	.L46:
 536               	.LM100:
 537 022e 8150      		subi r24,lo8(-(-1))
 538               	.LVL21:
 539 0230 8064      		ori r24,lo8(64)
 540 0232 982F      		mov r25,r24
 541 0234 9370      		andi r25,lo8(3)
 542 0236 282F      		mov r18,r24
 543 0238 2C7F      		andi r18,lo8(-4)
 544 023a 00C0      		rjmp .L47
 545               	.LFE15:
 547               	.global	set_page
 549               	set_page:
 550               	.LFB17:
 551               	.LM101:
 552               	.LVL22:
 553               	/* prologue: function */
 554               	/* frame size = 0 */
 555               	.LM102:
 556 023c 98B1      		in r25,40-32
 557 023e 987F      		andi r25,lo8(-8)
 558 0240 98B9      		out 40-32,r25
 559               	.LBB174:
 560               	.LBB175:
 561               	.LM103:
 562 0242 95B1      		in r25,37-32
 563 0244 9C7F      		andi r25,lo8(-4)
 564 0246 95B9      		out 37-32,r25
 565               	.LM104:
 566 0248 9BB1      		in r25,43-32
 567 024a 9370      		andi r25,lo8(3)
 568 024c 9BB9      		out 43-32,r25
 569               	.LM105:
 570 024e 25B1      		in r18,37-32
 571 0250 886B      		ori r24,lo8(-72)
 572               	.LVL23:
 573 0252 982F      		mov r25,r24
 574 0254 9370      		andi r25,lo8(3)
 575 0256 922B      		or r25,r18
 576 0258 95B9      		out 37-32,r25
 577               	.LM106:
 578 025a 9BB1      		in r25,43-32
 579 025c 8C7F      		andi r24,lo8(-4)
 580 025e 892B      		or r24,r25
 581 0260 8BB9      		out 43-32,r24
 582 0262 80E0      		ldi r24,lo8(0)
 583               	.LVL24:
 584               	.L58:
 585               	.LBE175:
 586               	.LBE174:
 587               	.LBB176:
 588               	.LBB177:
 589               	.LM107:
 590               	/* #APP */
 591               	 ;  786 "main.c" 1
 592 0264 0000      		nop
 593               	 ;  0 "" 2
 594               	.LM108:
 595               	/* #NOAPP */
 596 0266 8F5F      		subi r24,lo8(-(1))
 597 0268 8E31      		cpi r24,lo8(30)
 598 026a 01F4      		brne .L58
 599               	.LBE177:
 600               	.LBE176:
 601               	.LM109:
 602 026c 409A      		sbi 40-32,0
 603 026e 80E0      		ldi r24,lo8(0)
 604               	.LVL25:
 605               	.L59:
 606               	.LBB178:
 607               	.LBB179:
 608               	.LM110:
 609               	/* #APP */
 610               	 ;  786 "main.c" 1
 611 0270 0000      		nop
 612               	 ;  0 "" 2
 613               	.LM111:
 614               	/* #NOAPP */
 615 0272 8F5F      		subi r24,lo8(-(1))
 616 0274 8E31      		cpi r24,lo8(30)
 617 0276 01F4      		brne .L59
 618               	.LBE179:
 619               	.LBE178:
 620               	.LM112:
 621 0278 4098      		cbi 40-32,0
 622 027a 80E0      		ldi r24,lo8(0)
 623               	.LVL26:
 624               	.L60:
 625               	.LBB180:
 626               	.LBB181:
 627               	.LM113:
 628               	/* #APP */
 629               	 ;  786 "main.c" 1
 630 027c 0000      		nop
 631               	 ;  0 "" 2
 632               	.LM114:
 633               	/* #NOAPP */
 634 027e 8F5F      		subi r24,lo8(-(1))
 635 0280 8E31      		cpi r24,lo8(30)
 636 0282 01F4      		brne .L60
 637               	.LBE181:
 638               	.LBE180:
 639               	.LM115:
 640 0284 88B1      		in r24,40-32
 641               	.LVL27:
 642 0286 8760      		ori r24,lo8(7)
 643 0288 88B9      		out 40-32,r24
 644 028a 80E0      		ldi r24,lo8(0)
 645               	.LVL28:
 646               	.L61:
 647               	.LBB182:
 648               	.LBB183:
 649               	.LM116:
 650               	/* #APP */
 651               	 ;  786 "main.c" 1
 652 028c 0000      		nop
 653               	 ;  0 "" 2
 654               	.LM117:
 655               	/* #NOAPP */
 656 028e 8F5F      		subi r24,lo8(-(1))
 657 0290 8E31      		cpi r24,lo8(30)
 658 0292 01F4      		brne .L61
 659               	/* epilogue start */
 660               	.LBE183:
 661               	.LBE182:
 662               	.LM118:
 663 0294 0895      		ret
 664               	.LFE17:
 666               	.global	write_byte
 668               	write_byte:
 669               	.LFB18:
 670               	.LM119:
 671               	.LVL29:
 672               	/* prologue: function */
 673               	/* frame size = 0 */
 674               	.LM120:
 675 0296 419A      		sbi 40-32,1
 676               	.LBB184:
 677               	.LBB185:
 678               	.LM121:
 679 0298 95B1      		in r25,37-32
 680 029a 9C7F      		andi r25,lo8(-4)
 681 029c 95B9      		out 37-32,r25
 682               	.LM122:
 683 029e 9BB1      		in r25,43-32
 684 02a0 9370      		andi r25,lo8(3)
 685 02a2 9BB9      		out 43-32,r25
 686               	.LM123:
 687 02a4 25B1      		in r18,37-32
 688 02a6 982F      		mov r25,r24
 689 02a8 9370      		andi r25,lo8(3)
 690 02aa 922B      		or r25,r18
 691 02ac 95B9      		out 37-32,r25
 692               	.LM124:
 693 02ae 9BB1      		in r25,43-32
 694 02b0 8C7F      		andi r24,lo8(-4)
 695               	.LVL30:
 696 02b2 982B      		or r25,r24
 697 02b4 9BB9      		out 43-32,r25
 698 02b6 80E0      		ldi r24,lo8(0)
 699               	.LVL31:
 700               	.L68:
 701               	.LBE185:
 702               	.LBE184:
 703               	.LBB186:
 704               	.LBB187:
 705               	.LM125:
 706               	/* #APP */
 707               	 ;  786 "main.c" 1
 708 02b8 0000      		nop
 709               	 ;  0 "" 2
 710               	.LM126:
 711               	/* #NOAPP */
 712 02ba 8F5F      		subi r24,lo8(-(1))
 713 02bc 8E31      		cpi r24,lo8(30)
 714 02be 01F4      		brne .L68
 715               	.LBE187:
 716               	.LBE186:
 717               	.LM127:
 718 02c0 6130      		cpi r22,lo8(1)
 719 02c2 01F0      		breq .L81
 720               	.LM128:
 721 02c4 6230      		cpi r22,lo8(2)
 722 02c6 01F0      		breq .L71
 723               	.L80:
 724 02c8 80E0      		ldi r24,lo8(0)
 725               	.LVL32:
 726               	.L75:
 727               	.LBB188:
 728               	.LBB189:
 729               	.LM129:
 730               	/* #APP */
 731               	 ;  786 "main.c" 1
 732 02ca 0000      		nop
 733               	 ;  0 "" 2
 734               	.LM130:
 735               	/* #NOAPP */
 736 02cc 8F5F      		subi r24,lo8(-(1))
 737 02ce 8E31      		cpi r24,lo8(30)
 738 02d0 01F4      		brne .L75
 739               	.LBE189:
 740               	.LBE188:
 741               	.LM131:
 742 02d2 409A      		sbi 40-32,0
 743 02d4 80E0      		ldi r24,lo8(0)
 744               	.LVL33:
 745               	.L72:
 746               	.LBB190:
 747               	.LBB191:
 748               	.LM132:
 749               	/* #APP */
 750               	 ;  786 "main.c" 1
 751 02d6 0000      		nop
 752               	 ;  0 "" 2
 753               	.LM133:
 754               	/* #NOAPP */
 755 02d8 8F5F      		subi r24,lo8(-(1))
 756 02da 8E31      		cpi r24,lo8(30)
 757 02dc 01F4      		brne .L72
 758               	.LBE191:
 759               	.LBE190:
 760               	.LM134:
 761 02de 4098      		cbi 40-32,0
 762 02e0 80E0      		ldi r24,lo8(0)
 763               	.LVL34:
 764               	.L73:
 765               	.LBB192:
 766               	.LBB193:
 767               	.LM135:
 768               	/* #APP */
 769               	 ;  786 "main.c" 1
 770 02e2 0000      		nop
 771               	 ;  0 "" 2
 772               	.LM136:
 773               	/* #NOAPP */
 774 02e4 8F5F      		subi r24,lo8(-(1))
 775 02e6 8E31      		cpi r24,lo8(30)
 776 02e8 01F4      		brne .L73
 777               	.LBE193:
 778               	.LBE192:
 779               	.LM137:
 780 02ea 88B1      		in r24,40-32
 781               	.LVL35:
 782 02ec 8563      		ori r24,lo8(53)
 783 02ee 88B9      		out 40-32,r24
 784               	/* epilogue start */
 785               	.LM138:
 786 02f0 0895      		ret
 787               	.LVL36:
 788               	.L71:
 789               	.LM139:
 790 02f2 88B1      		in r24,40-32
 791               	.LVL37:
 792 02f4 8A7D      		andi r24,lo8(-38)
 793 02f6 88B9      		out 40-32,r24
 794 02f8 00C0      		rjmp .L80
 795               	.LVL38:
 796               	.L81:
 797               	.LM140:
 798 02fa 88B1      		in r24,40-32
 799               	.LVL39:
 800 02fc 8A7E      		andi r24,lo8(-22)
 801 02fe 88B9      		out 40-32,r24
 802 0300 80E0      		ldi r24,lo8(0)
 803               	.LVL40:
 804 0302 00C0      		rjmp .L75
 805               	.LFE18:
 807               	.global	display_on
 809               	display_on:
 810               	.LFB19:
 811               	.LM141:
 812               	/* prologue: function */
 813               	/* frame size = 0 */
 814               	.LBB194:
 815               	.LBB195:
 816               	.LM142:
 817 0304 85B1      		in r24,37-32
 818 0306 8C7F      		andi r24,lo8(-4)
 819 0308 85B9      		out 37-32,r24
 820               	.LM143:
 821 030a 8BB1      		in r24,43-32
 822 030c 8370      		andi r24,lo8(3)
 823 030e 8BB9      		out 43-32,r24
 824               	.LM144:
 825 0310 85B1      		in r24,37-32
 826 0312 8360      		ori r24,lo8(3)
 827 0314 85B9      		out 37-32,r24
 828               	.LM145:
 829 0316 8BB1      		in r24,43-32
 830 0318 8C63      		ori r24,lo8(60)
 831 031a 8BB9      		out 43-32,r24
 832               	.LBE195:
 833               	.LBE194:
 834               	.LM146:
 835 031c 88B1      		in r24,40-32
 836 031e 887F      		andi r24,lo8(-8)
 837 0320 88B9      		out 40-32,r24
 838 0322 80E0      		ldi r24,lo8(0)
 839               	.LVL41:
 840               	.L83:
 841               	.LBB196:
 842               	.LBB197:
 843               	.LM147:
 844               	/* #APP */
 845               	 ;  786 "main.c" 1
 846 0324 0000      		nop
 847               	 ;  0 "" 2
 848               	.LM148:
 849               	/* #NOAPP */
 850 0326 8F5F      		subi r24,lo8(-(1))
 851 0328 8E31      		cpi r24,lo8(30)
 852 032a 01F4      		brne .L83
 853               	.LBE197:
 854               	.LBE196:
 855               	.LM149:
 856 032c 409A      		sbi 40-32,0
 857 032e 80E0      		ldi r24,lo8(0)
 858               	.LVL42:
 859               	.L84:
 860               	.LBB198:
 861               	.LBB199:
 862               	.LM150:
 863               	/* #APP */
 864               	 ;  786 "main.c" 1
 865 0330 0000      		nop
 866               	 ;  0 "" 2
 867               	.LM151:
 868               	/* #NOAPP */
 869 0332 8F5F      		subi r24,lo8(-(1))
 870 0334 8E31      		cpi r24,lo8(30)
 871 0336 01F4      		brne .L84
 872               	.LBE199:
 873               	.LBE198:
 874               	.LM152:
 875 0338 4098      		cbi 40-32,0
 876               	.LM153:
 877 033a 88B1      		in r24,40-32
 878               	.LVL43:
 879 033c 8760      		ori r24,lo8(7)
 880 033e 88B9      		out 40-32,r24
 881               	/* epilogue start */
 882               	.LM154:
 883 0340 0895      		ret
 884               	.LFE19:
 886               	.global	read_byte
 888               	read_byte:
 889               	.LFB22:
 890               	.LM155:
 891               	.LVL44:
 892 0342 1F93      		push r17
 893               	/* prologue: function */
 894               	/* frame size = 0 */
 895 0344 162F      		mov r17,r22
 896               	.LM156:
 897 0346 8823      		tst r24
 898 0348 01F0      		breq .+2
 899 034a 00C0      		rjmp .L89
 900               	.LVL45:
 901 034c 8FE3      		ldi r24,lo8(63)
 902               	.LVL46:
 903               	.L90:
 904               	.LM157:
 905 034e 0E94 0000 		call set_x
 906               	.LVL47:
 907               	.LM158:
 908 0352 88B1      		in r24,40-32
 909 0354 8F63      		ori r24,lo8(63)
 910 0356 88B9      		out 40-32,r24
 911               	.LM159:
 912 0358 84B1      		in r24,36-32
 913 035a 8C7F      		andi r24,lo8(-4)
 914 035c 84B9      		out 36-32,r24
 915               	.LM160:
 916 035e 1AB8      		out 42-32,__zero_reg__
 917 0360 80E0      		ldi r24,lo8(0)
 918               	.LVL48:
 919               	.L91:
 920               	.LBB200:
 921               	.LBB201:
 922               	.LM161:
 923               	/* #APP */
 924               	 ;  786 "main.c" 1
 925 0362 0000      		nop
 926               	 ;  0 "" 2
 927               	.LM162:
 928               	/* #NOAPP */
 929 0364 8F5F      		subi r24,lo8(-(1))
 930 0366 8E31      		cpi r24,lo8(30)
 931 0368 01F4      		brne .L91
 932 036a 80E0      		ldi r24,lo8(0)
 933               	.LVL49:
 934               	.L92:
 935               	.LBE201:
 936               	.LBE200:
 937               	.LBB202:
 938               	.LBB203:
 939               	.LM163:
 940               	/* #APP */
 941               	 ;  786 "main.c" 1
 942 036c 0000      		nop
 943               	 ;  0 "" 2
 944               	.LM164:
 945               	/* #NOAPP */
 946 036e 8F5F      		subi r24,lo8(-(1))
 947 0370 8E31      		cpi r24,lo8(30)
 948 0372 01F4      		brne .L92
 949               	.LBE203:
 950               	.LBE202:
 951               	.LM165:
 952 0374 1130      		cpi r17,lo8(1)
 953 0376 01F4      		brne .+2
 954 0378 00C0      		rjmp .L130
 955               	.LM166:
 956 037a 1230      		cpi r17,lo8(2)
 957 037c 01F4      		brne .+2
 958 037e 00C0      		rjmp .L95
 959               	.L128:
 960 0380 80E0      		ldi r24,lo8(0)
 961               	.LVL50:
 962               	.L112:
 963               	.LBB204:
 964               	.LBB205:
 965               	.LM167:
 966               	/* #APP */
 967               	 ;  786 "main.c" 1
 968 0382 0000      		nop
 969               	 ;  0 "" 2
 970               	.LM168:
 971               	/* #NOAPP */
 972 0384 8F5F      		subi r24,lo8(-(1))
 973 0386 8E31      		cpi r24,lo8(30)
 974 0388 01F4      		brne .L112
 975 038a 80E0      		ldi r24,lo8(0)
 976               	.LVL51:
 977               	.L96:
 978               	.LBE205:
 979               	.LBE204:
 980               	.LBB206:
 981               	.LBB207:
 982               	.LM169:
 983               	/* #APP */
 984               	 ;  786 "main.c" 1
 985 038c 0000      		nop
 986               	 ;  0 "" 2
 987               	.LM170:
 988               	/* #NOAPP */
 989 038e 8F5F      		subi r24,lo8(-(1))
 990 0390 8E31      		cpi r24,lo8(30)
 991 0392 01F4      		brne .L96
 992               	.LBE207:
 993               	.LBE206:
 994               	.LM171:
 995 0394 409A      		sbi 40-32,0
 996 0396 80E0      		ldi r24,lo8(0)
 997               	.LVL52:
 998               	.L97:
 999               	.LBB208:
 1000               	.LBB209:
 1001               	.LM172:
 1002               	/* #APP */
 1003               	 ;  786 "main.c" 1
 1004 0398 0000      		nop
 1005               	 ;  0 "" 2
 1006               	.LM173:
 1007               	/* #NOAPP */
 1008 039a 8F5F      		subi r24,lo8(-(1))
 1009 039c 8E31      		cpi r24,lo8(30)
 1010 039e 01F4      		brne .L97
 1011 03a0 80E0      		ldi r24,lo8(0)
 1012               	.LVL53:
 1013               	.L98:
 1014               	.LBE209:
 1015               	.LBE208:
 1016               	.LBB210:
 1017               	.LBB211:
 1018               	.LM174:
 1019               	/* #APP */
 1020               	 ;  786 "main.c" 1
 1021 03a2 0000      		nop
 1022               	 ;  0 "" 2
 1023               	.LM175:
 1024               	/* #NOAPP */
 1025 03a4 8F5F      		subi r24,lo8(-(1))
 1026 03a6 8E31      		cpi r24,lo8(30)
 1027 03a8 01F4      		brne .L98
 1028               	.LBE211:
 1029               	.LBE210:
 1030               	.LM176:
 1031 03aa 4098      		cbi 40-32,0
 1032 03ac 80E0      		ldi r24,lo8(0)
 1033               	.LVL54:
 1034               	.L99:
 1035               	.LBB212:
 1036               	.LBB213:
 1037               	.LM177:
 1038               	/* #APP */
 1039               	 ;  786 "main.c" 1
 1040 03ae 0000      		nop
 1041               	 ;  0 "" 2
 1042               	.LM178:
 1043               	/* #NOAPP */
 1044 03b0 8F5F      		subi r24,lo8(-(1))
 1045 03b2 8E31      		cpi r24,lo8(30)
 1046 03b4 01F4      		brne .L99
 1047 03b6 80E0      		ldi r24,lo8(0)
 1048               	.LVL55:
 1049               	.L100:
 1050               	.LBE213:
 1051               	.LBE212:
 1052               	.LBB214:
 1053               	.LBB215:
 1054               	.LM179:
 1055               	/* #APP */
 1056               	 ;  786 "main.c" 1
 1057 03b8 0000      		nop
 1058               	 ;  0 "" 2
 1059               	.LM180:
 1060               	/* #NOAPP */
 1061 03ba 8F5F      		subi r24,lo8(-(1))
 1062 03bc 8E31      		cpi r24,lo8(30)
 1063 03be 01F4      		brne .L100
 1064               	.LBE215:
 1065               	.LBE214:
 1066               	.LM181:
 1067 03c0 88B1      		in r24,40-32
 1068               	.LVL56:
 1069 03c2 8F63      		ori r24,lo8(63)
 1070 03c4 88B9      		out 40-32,r24
 1071 03c6 80E0      		ldi r24,lo8(0)
 1072               	.LVL57:
 1073               	.L101:
 1074               	.LBB216:
 1075               	.LBB217:
 1076               	.LM182:
 1077               	/* #APP */
 1078               	 ;  786 "main.c" 1
 1079 03c8 0000      		nop
 1080               	 ;  0 "" 2
 1081               	.LM183:
 1082               	/* #NOAPP */
 1083 03ca 8F5F      		subi r24,lo8(-(1))
 1084 03cc 8E31      		cpi r24,lo8(30)
 1085 03ce 01F4      		brne .L101
 1086 03d0 80E0      		ldi r24,lo8(0)
 1087               	.LVL58:
 1088               	.L102:
 1089               	.LBE217:
 1090               	.LBE216:
 1091               	.LBB218:
 1092               	.LBB219:
 1093               	.LM184:
 1094               	/* #APP */
 1095               	 ;  786 "main.c" 1
 1096 03d2 0000      		nop
 1097               	 ;  0 "" 2
 1098               	.LM185:
 1099               	/* #NOAPP */
 1100 03d4 8F5F      		subi r24,lo8(-(1))
 1101 03d6 8E31      		cpi r24,lo8(30)
 1102 03d8 01F4      		brne .L102
 1103               	.LBE219:
 1104               	.LBE218:
 1105               	.LM186:
 1106 03da 1130      		cpi r17,lo8(1)
 1107 03dc 01F0      		breq .L131
 1108               	.LM187:
 1109 03de 1230      		cpi r17,lo8(2)
 1110 03e0 01F0      		breq .L105
 1111               	.L129:
 1112 03e2 80E0      		ldi r24,lo8(0)
 1113               	.LVL59:
 1114               	.L111:
 1115               	.LBB220:
 1116               	.LBB221:
 1117               	.LM188:
 1118               	/* #APP */
 1119               	 ;  786 "main.c" 1
 1120 03e4 0000      		nop
 1121               	 ;  0 "" 2
 1122               	.LM189:
 1123               	/* #NOAPP */
 1124 03e6 8F5F      		subi r24,lo8(-(1))
 1125 03e8 8E31      		cpi r24,lo8(30)
 1126 03ea 01F4      		brne .L111
 1127 03ec 80E0      		ldi r24,lo8(0)
 1128               	.LVL60:
 1129               	.L106:
 1130               	.LBE221:
 1131               	.LBE220:
 1132               	.LBB222:
 1133               	.LBB223:
 1134               	.LM190:
 1135               	/* #APP */
 1136               	 ;  786 "main.c" 1
 1137 03ee 0000      		nop
 1138               	 ;  0 "" 2
 1139               	.LM191:
 1140               	/* #NOAPP */
 1141 03f0 8F5F      		subi r24,lo8(-(1))
 1142 03f2 8E31      		cpi r24,lo8(30)
 1143 03f4 01F4      		brne .L106
 1144               	.LBE223:
 1145               	.LBE222:
 1146               	.LM192:
 1147 03f6 409A      		sbi 40-32,0
 1148 03f8 80E0      		ldi r24,lo8(0)
 1149               	.LVL61:
 1150               	.L107:
 1151               	.LBB224:
 1152               	.LBB225:
 1153               	.LM193:
 1154               	/* #APP */
 1155               	 ;  786 "main.c" 1
 1156 03fa 0000      		nop
 1157               	 ;  0 "" 2
 1158               	.LM194:
 1159               	/* #NOAPP */
 1160 03fc 8F5F      		subi r24,lo8(-(1))
 1161 03fe 8E31      		cpi r24,lo8(30)
 1162 0400 01F4      		brne .L107
 1163 0402 80E0      		ldi r24,lo8(0)
 1164               	.LVL62:
 1165               	.L108:
 1166               	.LBE225:
 1167               	.LBE224:
 1168               	.LBB226:
 1169               	.LBB227:
 1170               	.LM195:
 1171               	/* #APP */
 1172               	 ;  786 "main.c" 1
 1173 0404 0000      		nop
 1174               	 ;  0 "" 2
 1175               	.LM196:
 1176               	/* #NOAPP */
 1177 0406 8F5F      		subi r24,lo8(-(1))
 1178 0408 8E31      		cpi r24,lo8(30)
 1179 040a 01F4      		brne .L108
 1180               	.LBE227:
 1181               	.LBE226:
 1182               	.LM197:
 1183 040c 23B1      		in r18,35-32
 1184               	.LVL63:
 1185               	.LM198:
 1186 040e 99B1      		in r25,41-32
 1187               	.LVL64:
 1188               	.LM199:
 1189 0410 4098      		cbi 40-32,0
 1190               	.LM200:
 1191 0412 88B1      		in r24,40-32
 1192               	.LVL65:
 1193 0414 8F63      		ori r24,lo8(63)
 1194 0416 88B9      		out 40-32,r24
 1195               	.LM201:
 1196 0418 84B1      		in r24,36-32
 1197 041a 8360      		ori r24,lo8(3)
 1198 041c 84B9      		out 36-32,r24
 1199               	.LM202:
 1200 041e 8AB1      		in r24,42-32
 1201 0420 8C6F      		ori r24,lo8(-4)
 1202 0422 8AB9      		out 42-32,r24
 1203 0424 80E0      		ldi r24,lo8(0)
 1204               	.LVL66:
 1205               	.L109:
 1206               	.LBB228:
 1207               	.LBB229:
 1208               	.LM203:
 1209               	/* #APP */
 1210               	 ;  786 "main.c" 1
 1211 0426 0000      		nop
 1212               	 ;  0 "" 2
 1213               	.LM204:
 1214               	/* #NOAPP */
 1215 0428 8F5F      		subi r24,lo8(-(1))
 1216 042a 8E31      		cpi r24,lo8(30)
 1217 042c 01F4      		brne .L109
 1218               	.LBE229:
 1219               	.LBE228:
 1220               	.LM205:
 1221 042e 2370      		andi r18,lo8(3)
 1222 0430 9C7F      		andi r25,lo8(-4)
 1223               	.LM206:
 1224 0432 892F      		mov r24,r25
 1225               	.LVL67:
 1226 0434 822B      		or r24,r18
 1227               	/* epilogue start */
 1228 0436 1F91      		pop r17
 1229               	.LVL68:
 1230 0438 0895      		ret
 1231               	.LVL69:
 1232               	.L89:
 1233               	.LM207:
 1234 043a 8150      		subi r24,lo8(-(-1))
 1235               	.LVL70:
 1236 043c 00C0      		rjmp .L90
 1237               	.LVL71:
 1238               	.L105:
 1239               	.LM208:
 1240 043e 88B1      		in r24,40-32
 1241               	.LVL72:
 1242 0440 8E7D      		andi r24,lo8(-34)
 1243 0442 88B9      		out 40-32,r24
 1244 0444 00C0      		rjmp .L129
 1245               	.LVL73:
 1246               	.L95:
 1247               	.LM209:
 1248 0446 88B1      		in r24,40-32
 1249               	.LVL74:
 1250 0448 8E7D      		andi r24,lo8(-34)
 1251 044a 88B9      		out 40-32,r24
 1252 044c 00C0      		rjmp .L128
 1253               	.LVL75:
 1254               	.L131:
 1255               	.LM210:
 1256 044e 88B1      		in r24,40-32
 1257               	.LVL76:
 1258 0450 8E7E      		andi r24,lo8(-18)
 1259 0452 88B9      		out 40-32,r24
 1260 0454 80E0      		ldi r24,lo8(0)
 1261               	.LVL77:
 1262 0456 00C0      		rjmp .L111
 1263               	.LVL78:
 1264               	.L130:
 1265               	.LM211:
 1266 0458 88B1      		in r24,40-32
 1267               	.LVL79:
 1268 045a 8E7E      		andi r24,lo8(-18)
 1269 045c 88B9      		out 40-32,r24
 1270 045e 80E0      		ldi r24,lo8(0)
 1271               	.LVL80:
 1272 0460 00C0      		rjmp .L112
 1273               	.LFE22:
 1275               	.global	rnd
 1277               	rnd:
 1278               	.LFB23:
 1279               	.LM212:
 1280               	.LVL81:
 1281 0462 EF92      		push r14
 1282 0464 FF92      		push r15
 1283 0466 0F93      		push r16
 1284 0468 1F93      		push r17
 1285 046a CF93      		push r28
 1286 046c DF93      		push r29
 1287               	/* prologue: function */
 1288               	/* frame size = 0 */
 1289 046e 7B01      		movw r14,r22
 1290 0470 8C01      		movw r16,r24
 1291               	.LM213:
 1292 0472 0E94 0000 		call __fixsfsi
 1293               	.LVL82:
 1294 0476 EB01      		movw r28,r22
 1295               	.LVL83:
 1296               	.LM214:
 1297 0478 BE01      		movw r22,r28
 1298 047a 8827      		clr r24
 1299 047c 77FD      		sbrc r23,7
 1300 047e 8095      		com r24
 1301 0480 982F      		mov r25,r24
 1302               	.LVL84:
 1303 0482 0E94 0000 		call __floatsisf
 1304               	.LVL85:
 1305 0486 9B01      		movw r18,r22
 1306 0488 AC01      		movw r20,r24
 1307 048a C801      		movw r24,r16
 1308 048c B701      		movw r22,r14
 1309 048e 0E94 0000 		call __subsf3
 1310 0492 20E0      		ldi r18,lo8(0x3f000000)
 1311 0494 30E0      		ldi r19,hi8(0x3f000000)
 1312 0496 40E0      		ldi r20,hlo8(0x3f000000)
 1313 0498 5FE3      		ldi r21,hhi8(0x3f000000)
 1314 049a 0E94 0000 		call __gesf2
 1315 049e 8823      		tst r24
 1316 04a0 04F0      		brlt .L133
 1317 04a2 2196      		adiw r28,1
 1318               	.LVL86:
 1319               	.L133:
 1320               	.LM215:
 1321 04a4 CE01      		movw r24,r28
 1322               	.LVL87:
 1323               	/* epilogue start */
 1324 04a6 DF91      		pop r29
 1325 04a8 CF91      		pop r28
 1326 04aa 1F91      		pop r17
 1327 04ac 0F91      		pop r16
 1328 04ae FF90      		pop r15
 1329 04b0 EF90      		pop r14
 1330               	.LVL88:
 1331 04b2 0895      		ret
 1332               	.LFE23:
 1334               	.global	EEPROM_write
 1336               	EEPROM_write:
 1337               	.LFB25:
 1338               	.LM216:
 1339               	/* prologue: function */
 1340               	/* frame size = 0 */
 1341               	.LVL89:
 1342               	.L138:
 1343               	.LM217:
 1344 04b4 F999      		sbic 63-32,1
 1345 04b6 00C0      		rjmp .L138
 1346               	.LM218:
 1347 04b8 92BD      		out (65)+1-32,r25
 1348 04ba 81BD      		out 65-32,r24
 1349               	.LM219:
 1350 04bc 60BD      		out 64-32,r22
 1351               	.LM220:
 1352 04be FA9A      		sbi 63-32,2
 1353               	.LM221:
 1354 04c0 F99A      		sbi 63-32,1
 1355               	/* epilogue start */
 1356               	.LM222:
 1357 04c2 0895      		ret
 1358               	.LFE25:
 1360               	.global	EEPROM_read
 1362               	EEPROM_read:
 1363               	.LFB26:
 1364               	.LM223:
 1365               	/* prologue: function */
 1366               	/* frame size = 0 */
 1367               	.LVL90:
 1368               	.L142:
 1369               	.LM224:
 1370 04c4 F999      		sbic 63-32,1
 1371 04c6 00C0      		rjmp .L142
 1372               	.LM225:
 1373 04c8 92BD      		out (65)+1-32,r25
 1374 04ca 81BD      		out 65-32,r24
 1375               	.LM226:
 1376 04cc F89A      		sbi 63-32,0
 1377               	.LM227:
 1378 04ce 80B5      		in r24,64-32
 1379               	.LVL91:
 1380               	/* epilogue start */
 1381               	.LM228:
 1382 04d0 0895      		ret
 1383               	.LFE26:
 1385               	.global	set_backlight
 1387               	set_backlight:
 1388               	.LFB27:
 1389               	.LM229:
 1390               	.LVL92:
 1391               	/* prologue: function */
 1392               	/* frame size = 0 */
 1393               	.LM230:
 1394 04d2 22E0      		ldi r18,lo8(2)
 1395 04d4 24BD      		out 68-32,r18
 1396               	.LM231:
 1397 04d6 9091 0000 		lds r25,BL_dutycycle
 1398 04da 9436      		cpi r25,lo8(100)
 1399 04dc 00F4      		brsh .L150
 1400               	.LM232:
 1401 04de 9923      		tst r25
 1402 04e0 01F0      		breq .L151
 1403               	.LM233:
 1404 04e2 15BC      		out 69-32,__zero_reg__
 1405               	.LM234:
 1406 04e4 1092 6E00 		sts 110,__zero_reg__
 1407               	.LM235:
 1408 04e8 84E6      		ldi r24,lo8(100)
 1409               	.LVL93:
 1410 04ea 891B      		sub r24,r25
 1411 04ec 87BD      		out 71-32,r24
 1412               	.LM236:
 1413 04ee 2093 6E00 		sts 110,r18
 1414               	.LM237:
 1415 04f2 25BD      		out 69-32,r18
 1416               	.LM238:
 1417 04f4 8FB7      		in r24,__SREG__
 1418 04f6 8068      		ori r24,lo8(-128)
 1419 04f8 8FBF      		out __SREG__,r24
 1420 04fa 0895      		ret
 1421               	.LVL94:
 1422               	.L151:
 1423               	.LM239:
 1424 04fc 15BC      		out 69-32,__zero_reg__
 1425               	.LM240:
 1426 04fe 1092 6E00 		sts 110,__zero_reg__
 1427               	.LM241:
 1428 0502 2A9A      		sbi 37-32,2
 1429 0504 0895      		ret
 1430               	.L150:
 1431               	.LM242:
 1432 0506 15BC      		out 69-32,__zero_reg__
 1433               	.LM243:
 1434 0508 1092 6E00 		sts 110,__zero_reg__
 1435               	.LM244:
 1436 050c 2A98      		cbi 37-32,2
 1437 050e 0895      		ret
 1438               	.LFE27:
 1440               	.global	set_baud
 1442               	set_baud:
 1443               	.LFB32:
 1444               	.LM245:
 1445               	.LVL95:
 1446               	/* prologue: function */
 1447               	/* frame size = 0 */
 1448 0510 982F      		mov r25,r24
 1449               	.LM246:
 1450 0512 8130      		cpi r24,lo8(1)
 1451 0514 01F0      		breq .L162
 1452               	.LM247:
 1453 0516 8230      		cpi r24,lo8(2)
 1454 0518 01F0      		breq .L163
 1455               	.LM248:
 1456 051a 8330      		cpi r24,lo8(3)
 1457 051c 01F0      		breq .L164
 1458               	.LM249:
 1459 051e 8430      		cpi r24,lo8(4)
 1460 0520 01F0      		breq .L165
 1461               	.LM250:
 1462 0522 8530      		cpi r24,lo8(5)
 1463 0524 01F0      		breq .L166
 1464               	.LM251:
 1465 0526 8630      		cpi r24,lo8(6)
 1466 0528 01F0      		breq .L167
 1467 052a 0895      		ret
 1468               	.L162:
 1469               	.LBB230:
 1470               	.LBB231:
 1471               	.LM252:
 1472 052c 8093 C500 		sts 197,r24
 1473               	.LM253:
 1474 0530 8FE9      		ldi r24,lo8(-97)
 1475               	.LVL96:
 1476               	.L160:
 1477               	.LBE231:
 1478               	.LBE230:
 1479               	.LBB232:
 1480               	.LBB233:
 1481 0532 8093 C400 		sts 196,r24
 1482               	.LM254:
 1483 0536 82E0      		ldi r24,lo8(2)
 1484 0538 8093 C000 		sts 192,r24
 1485               	.L161:
 1486               	.LM255:
 1487 053c 88E9      		ldi r24,lo8(-104)
 1488 053e 8093 C100 		sts 193,r24
 1489               	.LM256:
 1490 0542 86E0      		ldi r24,lo8(6)
 1491 0544 8093 C200 		sts 194,r24
 1492               	.LM257:
 1493               	/* #APP */
 1494               	 ;  767 "main.c" 1
 1495 0548 7894      		sei
 1496               	 ;  0 "" 2
 1497               	/* #NOAPP */
 1498 054a 0895      		ret
 1499               	.LVL97:
 1500               	.L163:
 1501               	.LBE233:
 1502               	.LBE232:
 1503               	.LBB235:
 1504               	.LBB236:
 1505               	.LM258:
 1506 054c 1092 C500 		sts 197,__zero_reg__
 1507               	.LM259:
 1508 0550 8FEC      		ldi r24,lo8(-49)
 1509               	.LVL98:
 1510 0552 8093 C400 		sts 196,r24
 1511               	.LM260:
 1512 0556 9093 C000 		sts 192,r25
 1513 055a 00C0      		rjmp .L161
 1514               	.LVL99:
 1515               	.L164:
 1516               	.LBE236:
 1517               	.LBE235:
 1518               	.LBB237:
 1519               	.LBB238:
 1520               	.LM261:
 1521 055c 1092 C500 		sts 197,__zero_reg__
 1522               	.LM262:
 1523 0560 87E6      		ldi r24,lo8(103)
 1524               	.LVL100:
 1525 0562 8093 C400 		sts 196,r24
 1526               	.LM263:
 1527 0566 82E0      		ldi r24,lo8(2)
 1528 0568 8093 C000 		sts 192,r24
 1529 056c 00C0      		rjmp .L161
 1530               	.LVL101:
 1531               	.L166:
 1532               	.LBE238:
 1533               	.LBE237:
 1534               	.LBB239:
 1535               	.LBB234:
 1536               	.LM264:
 1537 056e 1092 C500 		sts 197,__zero_reg__
 1538               	.LM265:
 1539 0572 81E2      		ldi r24,lo8(33)
 1540               	.LVL102:
 1541 0574 00C0      		rjmp .L160
 1542               	.LVL103:
 1543               	.L167:
 1544               	.LBE234:
 1545               	.LBE239:
 1546               	.LBB240:
 1547               	.LBB241:
 1548               	.LM266:
 1549 0576 1092 C500 		sts 197,__zero_reg__
 1550               	.LM267:
 1551 057a 80E1      		ldi r24,lo8(16)
 1552               	.LVL104:
 1553 057c 8093 C400 		sts 196,r24
 1554               	.LM268:
 1555 0580 82E0      		ldi r24,lo8(2)
 1556 0582 8093 C000 		sts 192,r24
 1557               	.LM269:
 1558 0586 88E9      		ldi r24,lo8(-104)
 1559 0588 8093 C100 		sts 193,r24
 1560               	.LM270:
 1561 058c 9093 C200 		sts 194,r25
 1562               	.LM271:
 1563               	/* #APP */
 1564               	 ;  767 "main.c" 1
 1565 0590 7894      		sei
 1566               	 ;  0 "" 2
 1567               	/* #NOAPP */
 1568 0592 0895      		ret
 1569               	.LVL105:
 1570               	.L165:
 1571               	.LBE241:
 1572               	.LBE240:
 1573               	.LBB242:
 1574               	.LBB243:
 1575               	.LM272:
 1576 0594 1092 C500 		sts 197,__zero_reg__
 1577               	.LM273:
 1578 0598 83E3      		ldi r24,lo8(51)
 1579               	.LVL106:
 1580 059a 8093 C400 		sts 196,r24
 1581               	.LM274:
 1582 059e 82E0      		ldi r24,lo8(2)
 1583 05a0 8093 C000 		sts 192,r24
 1584 05a4 00C0      		rjmp .L161
 1585               	.LBE243:
 1586               	.LBE242:
 1587               	.LFE32:
 1589               	.global	read
 1591               	read:
 1592               	.LFB33:
 1593               	.LM275:
 1594               	.LVL107:
 1595 05a6 0F93      		push r16
 1596 05a8 1F93      		push r17
 1597               	/* prologue: function */
 1598               	/* frame size = 0 */
 1599               	.LM276:
 1600 05aa 94B1      		in r25,36-32
 1601 05ac 9C7F      		andi r25,lo8(-4)
 1602 05ae 94B9      		out 36-32,r25
 1603               	.LM277:
 1604 05b0 9AB1      		in r25,42-32
 1605 05b2 9270      		andi r25,lo8(2)
 1606 05b4 9AB9      		out 42-32,r25
 1607               	.LM278:
 1608 05b6 98B1      		in r25,40-32
 1609 05b8 997F      		andi r25,lo8(-7)
 1610 05ba 98B9      		out 40-32,r25
 1611               	.LM279:
 1612 05bc 8130      		cpi r24,lo8(1)
 1613 05be 01F4      		brne .L169
 1614 05c0 4398      		cbi 40-32,3
 1615               	.L169:
 1616               	.LM280:
 1617 05c2 82E0      		ldi r24,lo8(2)
 1618               	.LVL108:
 1619 05c4 0E94 0000 		call delay_us
 1620               	.LM281:
 1621 05c8 03B1      		in r16,35-32
 1622               	.LVL109:
 1623               	.LM282:
 1624 05ca 0370      		andi r16,lo8(3)
 1625               	.LM283:
 1626 05cc 19B1      		in r17,41-32
 1627               	.LVL110:
 1628               	.LM284:
 1629 05ce 88B1      		in r24,40-32
 1630 05d0 8E60      		ori r24,lo8(14)
 1631 05d2 88B9      		out 40-32,r24
 1632               	.LM285:
 1633 05d4 82E0      		ldi r24,lo8(2)
 1634 05d6 0E94 0000 		call delay_us
 1635 05da 1C7F      		andi r17,lo8(-4)
 1636               	.LM286:
 1637 05dc 812F      		mov r24,r17
 1638 05de 802B      		or r24,r16
 1639               	/* epilogue start */
 1640 05e0 1F91      		pop r17
 1641               	.LVL111:
 1642 05e2 0F91      		pop r16
 1643               	.LVL112:
 1644 05e4 0895      		ret
 1645               	.LFE33:
 1647               	.global	write
 1649               	write:
 1650               	.LFB34:
 1651               	.LM287:
 1652               	.LVL113:
 1653               	/* prologue: function */
 1654               	/* frame size = 0 */
 1655               	.LM288:
 1656 05e6 94B1      		in r25,36-32
 1657 05e8 9360      		ori r25,lo8(3)
 1658 05ea 94B9      		out 36-32,r25
 1659               	.LM289:
 1660 05ec 9AB1      		in r25,42-32
 1661 05ee 9C6F      		ori r25,lo8(-4)
 1662 05f0 9AB9      		out 42-32,r25
 1663               	.LBB244:
 1664               	.LBB245:
 1665               	.LM290:
 1666 05f2 95B1      		in r25,37-32
 1667 05f4 9C7F      		andi r25,lo8(-4)
 1668 05f6 95B9      		out 37-32,r25
 1669               	.LM291:
 1670 05f8 9BB1      		in r25,43-32
 1671 05fa 9370      		andi r25,lo8(3)
 1672 05fc 9BB9      		out 43-32,r25
 1673               	.LM292:
 1674 05fe 25B1      		in r18,37-32
 1675 0600 962F      		mov r25,r22
 1676 0602 9370      		andi r25,lo8(3)
 1677 0604 922B      		or r25,r18
 1678 0606 95B9      		out 37-32,r25
 1679               	.LM293:
 1680 0608 9BB1      		in r25,43-32
 1681 060a 6C7F      		andi r22,lo8(-4)
 1682               	.LVL114:
 1683 060c 962B      		or r25,r22
 1684 060e 9BB9      		out 43-32,r25
 1685               	.LBE245:
 1686               	.LBE244:
 1687               	.LM294:
 1688 0610 8130      		cpi r24,lo8(1)
 1689 0612 01F0      		breq .L175
 1690               	.LM295:
 1691 0614 88B1      		in r24,40-32
 1692               	.LVL115:
 1693 0616 8A7F      		andi r24,lo8(-6)
 1694 0618 88B9      		out 40-32,r24
 1695               	.L173:
 1696               	.LM296:
 1697 061a 82E0      		ldi r24,lo8(2)
 1698 061c 0E94 0000 		call delay_us
 1699               	.LVL116:
 1700               	.LM297:
 1701 0620 88B1      		in r24,40-32
 1702 0622 8D60      		ori r24,lo8(13)
 1703 0624 88B9      		out 40-32,r24
 1704               	.LM298:
 1705 0626 82E0      		ldi r24,lo8(2)
 1706 0628 0E94 0000 		call delay_us
 1707               	.LM299:
 1708 062c 84B1      		in r24,36-32
 1709 062e 8C7F      		andi r24,lo8(-4)
 1710 0630 84B9      		out 36-32,r24
 1711               	.LM300:
 1712 0632 8AB1      		in r24,42-32
 1713 0634 8270      		andi r24,lo8(2)
 1714 0636 8AB9      		out 42-32,r24
 1715               	.LM301:
 1716 0638 82E0      		ldi r24,lo8(2)
 1717 063a 0E94 0000 		call delay_us
 1718               	/* epilogue start */
 1719               	.LM302:
 1720 063e 0895      		ret
 1721               	.LVL117:
 1722               	.L175:
 1723               	.LM303:
 1724 0640 88B1      		in r24,40-32
 1725               	.LVL118:
 1726 0642 827F      		andi r24,lo8(-14)
 1727 0644 88B9      		out 40-32,r24
 1728 0646 00C0      		rjmp .L173
 1729               	.LFE34:
 1731               	.global	pixel
 1733               	pixel:
 1734               	.LFB20:
 1735               	.LM304:
 1736               	.LVL119:
 1737 0648 EF92      		push r14
 1738 064a FF92      		push r15
 1739 064c 0F93      		push r16
 1740 064e 1F93      		push r17
 1741 0650 CF93      		push r28
 1742 0652 DF93      		push r29
 1743               	/* prologue: function */
 1744               	/* frame size = 0 */
 1745 0654 F82E      		mov r15,r24
 1746 0656 162F      		mov r17,r22
 1747               	.LM305:
 1748 0658 5091 0000 		lds r21,display
 1749 065c 652F      		mov r22,r21
 1750               	.LVL120:
 1751 065e 70E0      		ldi r23,lo8(0)
 1752 0660 212F      		mov r18,r17
 1753 0662 30E0      		ldi r19,lo8(0)
 1754               	.LVL121:
 1755 0664 CB01      		movw r24,r22
 1756               	.LVL122:
 1757 0666 880F      		lsl r24
 1758 0668 991F      		rol r25
 1759 066a 8295      		swap r24
 1760 066c 9295      		swap r25
 1761 066e 907F      		andi r25,0xf0
 1762 0670 9827      		eor r25,r24
 1763 0672 807F      		andi r24,0xf0
 1764 0674 9827      		eor r25,r24
 1765 0676 8158      		subi r24,lo8(-(127))
 1766 0678 9F4F      		sbci r25,hi8(-(127))
 1767 067a 8217      		cp r24,r18
 1768 067c 9307      		cpc r25,r19
 1769 067e 04F4      		brge .+2
 1770 0680 00C0      		rjmp .L188
 1771               	.LVL123:
 1772               	.LM306:
 1773 0682 E42F      		mov r30,r20
 1774 0684 F0E0      		ldi r31,lo8(0)
 1775 0686 0024      		clr __tmp_reg__
 1776 0688 7695      		lsr r23
 1777 068a 6795      		ror r22
 1778 068c 0794      		ror __tmp_reg__
 1779 068e 7695      		lsr r23
 1780 0690 6795      		ror r22
 1781 0692 0794      		ror __tmp_reg__
 1782 0694 762F      		mov r23,r22
 1783 0696 602D      		mov r22,__tmp_reg__
 1784 0698 615C      		subi r22,lo8(-(63))
 1785 069a 7F4F      		sbci r23,hi8(-(63))
 1786 069c 6E17      		cp r22,r30
 1787 069e 7F07      		cpc r23,r31
 1788 06a0 04F4      		brge .+2
 1789 06a2 00C0      		rjmp .L188
 1790               	.LM307:
 1791 06a4 8091 0000 		lds r24,reverse
 1792 06a8 8130      		cpi r24,lo8(1)
 1793 06aa 01F4      		brne .+2
 1794 06ac 00C0      		rjmp .L194
 1795               	.L178:
 1796               	.LM308:
 1797 06ae 5523      		tst r21
 1798 06b0 01F0      		breq .+2
 1799 06b2 00C0      		rjmp .L179
 1800               	.LM309:
 1801 06b4 1034      		cpi r17,lo8(64)
 1802 06b6 00F4      		brsh .+2
 1803 06b8 00C0      		rjmp .L180
 1804               	.LVL124:
 1805 06ba 82E0      		ldi r24,lo8(2)
 1806 06bc 8093 0000 		sts temp_side.1949,r24
 1807 06c0 1054      		subi r17,lo8(-(-64))
 1808 06c2 1093 0000 		sts temp_x.1950,r17
 1809               	.LVL125:
 1810               	.L181:
 1811               	.LM310:
 1812 06c6 4695      		lsr r20
 1813 06c8 4695      		lsr r20
 1814 06ca 4695      		lsr r20
 1815               	.LVL126:
 1816 06cc 87E0      		ldi r24,lo8(7)
 1817 06ce 841B      		sub r24,r20
 1818 06d0 8093 0000 		sts temp_page.1948,r24
 1819               	.LM311:
 1820 06d4 27E0      		ldi r18,lo8(7)
 1821 06d6 30E0      		ldi r19,hi8(7)
 1822 06d8 A901      		movw r20,r18
 1823               	.LVL127:
 1824 06da 4E1B      		sub r20,r30
 1825 06dc 5F0B      		sbc r21,r31
 1826 06de 281B      		sub r18,r24
 1827 06e0 3109      		sbc r19,__zero_reg__
 1828 06e2 220F      		lsl r18
 1829 06e4 331F      		rol r19
 1830 06e6 220F      		lsl r18
 1831 06e8 331F      		rol r19
 1832 06ea 220F      		lsl r18
 1833 06ec 331F      		rol r19
 1834 06ee 420F      		add r20,r18
 1835 06f0 531F      		adc r21,r19
 1836 06f2 21E0      		ldi r18,lo8(1)
 1837 06f4 30E0      		ldi r19,hi8(1)
 1838 06f6 00C0      		rjmp 2f
 1839 06f8 220F      	1:	lsl r18
 1840 06fa 331F      		rol r19
 1841 06fc 4A95      	2:	dec r20
 1842 06fe 02F4      		brpl 1b
 1843 0700 122F      		mov r17,r18
 1844               	.LVL128:
 1845 0702 2093 0000 		sts temp_data1.1951,r18
 1846               	.LM312:
 1847 0706 0E94 0000 		call set_page
 1848               	.LVL129:
 1849               	.LM313:
 1850 070a 0091 0000 		lds r16,temp_x.1950
 1851 070e 802F      		mov r24,r16
 1852 0710 0E94 0000 		call set_x
 1853               	.LM314:
 1854 0714 E090 0000 		lds r14,temp_side.1949
 1855 0718 802F      		mov r24,r16
 1856 071a 6E2D      		mov r22,r14
 1857 071c 0E94 0000 		call read_byte
 1858 0720 8093 0000 		sts temp_data2.1952,r24
 1859               	.LM315:
 1860 0724 FF20      		tst r15
 1861 0726 01F0      		breq .+2
 1862 0728 00C0      		rjmp .L182
 1863               	.LM316:
 1864 072a 1095      		com r17
 1865               	.LM317:
 1866 072c 1823      		and r17,r24
 1867 072e 1093 0000 		sts temp_data1.1951,r17
 1868               	.L183:
 1869               	.LM318:
 1870 0732 802F      		mov r24,r16
 1871 0734 0E94 0000 		call set_x
 1872               	.LM319:
 1873 0738 8091 0000 		lds r24,temp_data1.1951
 1874 073c 6E2D      		mov r22,r14
 1875 073e 0E94 0000 		call write_byte
 1876               	.LVL130:
 1877               	.L188:
 1878               	/* epilogue start */
 1879               	.LM320:
 1880 0742 DF91      		pop r29
 1881               	.LVL131:
 1882 0744 CF91      		pop r28
 1883               	.LVL132:
 1884 0746 1F91      		pop r17
 1885               	.LVL133:
 1886 0748 0F91      		pop r16
 1887 074a FF90      		pop r15
 1888               	.LVL134:
 1889 074c EF90      		pop r14
 1890 074e 0895      		ret
 1891               	.LVL135:
 1892               	.L179:
 1893               	.LM321:
 1894 0750 5130      		cpi r21,lo8(1)
 1895 0752 01F4      		brne .L188
 1896               	.LM322:
 1897 0754 8FE7      		ldi r24,lo8(127)
 1898 0756 90E0      		ldi r25,hi8(127)
 1899 0758 8E1B      		sub r24,r30
 1900 075a 9F0B      		sbc r25,r31
 1901 075c 880F      		lsl r24
 1902 075e 991F      		rol r25
 1903 0760 880F      		lsl r24
 1904 0762 991F      		rol r25
 1905               	.LVL136:
 1906 0764 EC01      		movw r28,r24
 1907               	.LVL137:
 1908 0766 CC0F      		lsl r28
 1909 0768 DD1F      		rol r29
 1910 076a CC0F      		lsl r28
 1911 076c DD1F      		rol r29
 1912               	.LVL138:
 1913 076e C80F      		add r28,r24
 1914 0770 D91F      		adc r29,r25
 1915 0772 812F      		mov r24,r17
 1916 0774 8695      		lsr r24
 1917 0776 8695      		lsr r24
 1918 0778 8695      		lsr r24
 1919 077a C80F      		add r28,r24
 1920 077c D11D      		adc r29,__zero_reg__
 1921               	.L184:
 1922               	.LM323:
 1923 077e 80E0      		ldi r24,lo8(0)
 1924 0780 0E94 0000 		call read
 1925               	.LVL139:
 1926 0784 90E0      		ldi r25,lo8(0)
 1927 0786 8370      		andi r24,lo8(3)
 1928 0788 9070      		andi r25,hi8(3)
 1929 078a 892B      		or r24,r25
 1930 078c 01F0      		breq .L184
 1931               	.LM324:
 1932 078e 81E0      		ldi r24,lo8(1)
 1933 0790 6C2F      		mov r22,r28
 1934 0792 0E94 0000 		call write
 1935               	.L185:
 1936               	.LM325:
 1937 0796 80E0      		ldi r24,lo8(0)
 1938 0798 0E94 0000 		call read
 1939 079c 90E0      		ldi r25,lo8(0)
 1940 079e 8370      		andi r24,lo8(3)
 1941 07a0 9070      		andi r25,hi8(3)
 1942 07a2 892B      		or r24,r25
 1943 07a4 01F0      		breq .L185
 1944               	.LM326:
 1945 07a6 81E0      		ldi r24,lo8(1)
 1946 07a8 6D2F      		mov r22,r29
 1947               	.LVL140:
 1948 07aa 0E94 0000 		call write
 1949               	.L186:
 1950               	.LM327:
 1951 07ae 80E0      		ldi r24,lo8(0)
 1952 07b0 0E94 0000 		call read
 1953 07b4 90E0      		ldi r25,lo8(0)
 1954 07b6 8370      		andi r24,lo8(3)
 1955 07b8 9070      		andi r25,hi8(3)
 1956 07ba 892B      		or r24,r25
 1957 07bc 01F0      		breq .L186
 1958               	.LM328:
 1959 07be 80E0      		ldi r24,lo8(0)
 1960 07c0 64E2      		ldi r22,lo8(36)
 1961 07c2 0E94 0000 		call write
 1962               	.LM329:
 1963 07c6 1095      		com r17
 1964               	.LVL141:
 1965               	.LM330:
 1966 07c8 186F      		ori r17,lo8(-8)
 1967               	.LM331:
 1968 07ca FF20      		tst r15
 1969 07cc 01F4      		brne .L189
 1970 07ce 177F      		andi r17,lo8(-9)
 1971               	.L189:
 1972               	.LM332:
 1973 07d0 80E0      		ldi r24,lo8(0)
 1974 07d2 0E94 0000 		call read
 1975 07d6 90E0      		ldi r25,lo8(0)
 1976 07d8 8370      		andi r24,lo8(3)
 1977 07da 9070      		andi r25,hi8(3)
 1978 07dc 892B      		or r24,r25
 1979 07de 01F0      		breq .L189
 1980               	.LM333:
 1981 07e0 80E0      		ldi r24,lo8(0)
 1982 07e2 612F      		mov r22,r17
 1983 07e4 0E94 0000 		call write
 1984 07e8 00C0      		rjmp .L188
 1985               	.LVL142:
 1986               	.L194:
 1987               	.LM334:
 1988 07ea F826      		eor r15,r24
 1989 07ec 00C0      		rjmp .L178
 1990               	.LVL143:
 1991               	.L182:
 1992               	.LM335:
 1993 07ee 182B      		or r17,r24
 1994 07f0 1093 0000 		sts temp_data1.1951,r17
 1995 07f4 00C0      		rjmp .L183
 1996               	.LVL144:
 1997               	.L180:
 1998               	.LM336:
 1999 07f6 81E0      		ldi r24,lo8(1)
 2000 07f8 8093 0000 		sts temp_side.1949,r24
 2001 07fc 1093 0000 		sts temp_x.1950,r17
 2002 0800 00C0      		rjmp .L181
 2003               	.LFE20:
 2005               	.global	erase_block
 2007               	erase_block:
 2008               	.LFB30:
 2009               	.LM337:
 2010               	.LVL145:
 2011 0802 3F92      		push r3
 2012 0804 4F92      		push r4
 2013 0806 5F92      		push r5
 2014 0808 6F92      		push r6
 2015 080a 7F92      		push r7
 2016 080c 8F92      		push r8
 2017 080e 9F92      		push r9
 2018 0810 AF92      		push r10
 2019 0812 BF92      		push r11
 2020 0814 CF92      		push r12
 2021 0816 DF92      		push r13
 2022 0818 EF92      		push r14
 2023 081a FF92      		push r15
 2024 081c 0F93      		push r16
 2025 081e 1F93      		push r17
 2026 0820 CF93      		push r28
 2027 0822 DF93      		push r29
 2028               	/* prologue: function */
 2029               	/* frame size = 0 */
 2030 0824 A82E      		mov r10,r24
 2031 0826 322E      		mov r3,r18
 2032               	.LM338:
 2033 0828 422E      		mov r4,r18
 2034 082a 5524      		clr r5
 2035 082c 5092 0000 		sts (temp_y.2352)+1,r5
 2036 0830 4092 0000 		sts temp_y.2352,r4
 2037 0834 662E      		mov r6,r22
 2038 0836 7724      		clr r7
 2039               	.LVL146:
 2040 0838 4614      		cp r4,r6
 2041 083a 5704      		cpc r5,r7
 2042 083c 04F0      		brlt .L201
 2043               	.LVL147:
 2044 083e 082F      		mov r16,r24
 2045 0840 10E0      		ldi r17,lo8(0)
 2046 0842 E42E      		mov r14,r20
 2047 0844 FF24      		clr r15
 2048 0846 8824      		clr r8
 2049 0848 9924      		clr r9
 2050               	.LM339:
 2051 084a 6801      		movw r12,r16
 2052 084c 0894      		sec
 2053 084e C11C      		adc r12,__zero_reg__
 2054 0850 D11C      		adc r13,__zero_reg__
 2055               	.LVL148:
 2056               	.L200:
 2057               	.LM340:
 2058 0852 E016      		cp r14,r16
 2059 0854 F106      		cpc r15,r17
 2060 0856 04F0      		brlt .L204
 2061               	.LVL149:
 2062 0858 B32C      		mov r11,r3
 2063 085a B818      		sub r11,r8
 2064 085c C0E0      		ldi r28,lo8(0)
 2065 085e D0E0      		ldi r29,hi8(0)
 2066               	.LVL150:
 2067               	.L199:
 2068               	.LM341:
 2069 0860 6A2D      		mov r22,r10
 2070 0862 6C0F      		add r22,r28
 2071 0864 80E0      		ldi r24,lo8(0)
 2072               	.LVL151:
 2073 0866 4B2D      		mov r20,r11
 2074               	.LVL152:
 2075 0868 0E94 0000 		call pixel
 2076               	.LM342:
 2077 086c 9601      		movw r18,r12
 2078 086e 2C0F      		add r18,r28
 2079 0870 3D1F      		adc r19,r29
 2080 0872 2196      		adiw r28,1
 2081               	.LM343:
 2082 0874 CE01      		movw r24,r28
 2083 0876 800F      		add r24,r16
 2084 0878 911F      		adc r25,r17
 2085 087a E816      		cp r14,r24
 2086 087c F906      		cpc r15,r25
 2087 087e 04F4      		brge .L199
 2088               	.LVL153:
 2089               	.L198:
 2090 0880 0894      		sec
 2091 0882 811C      		adc r8,__zero_reg__
 2092 0884 911C      		adc r9,__zero_reg__
 2093               	.LM344:
 2094 0886 C201      		movw r24,r4
 2095 0888 8819      		sub r24,r8
 2096 088a 9909      		sbc r25,r9
 2097 088c 8615      		cp r24,r6
 2098 088e 9705      		cpc r25,r7
 2099 0890 04F4      		brge .L200
 2100 0892 6418      		sub r6,r4
 2101 0894 7508      		sbc r7,r5
 2102               	.LVL154:
 2103 0896 0894      		sec
 2104 0898 4108      		sbc r4,__zero_reg__
 2105 089a 5108      		sbc r5,__zero_reg__
 2106 089c 640C      		add r6,r4
 2107 089e 751C      		adc r7,r5
 2108               	.LVL155:
 2109 08a0 7092 0000 		sts (temp_y.2352)+1,r7
 2110 08a4 6092 0000 		sts temp_y.2352,r6
 2111 08a8 3093 0000 		sts (temp_x.2351)+1,r19
 2112 08ac 2093 0000 		sts temp_x.2351,r18
 2113               	.LVL156:
 2114               	.L201:
 2115               	/* epilogue start */
 2116               	.LM345:
 2117 08b0 DF91      		pop r29
 2118 08b2 CF91      		pop r28
 2119 08b4 1F91      		pop r17
 2120 08b6 0F91      		pop r16
 2121 08b8 FF90      		pop r15
 2122 08ba EF90      		pop r14
 2123 08bc DF90      		pop r13
 2124 08be CF90      		pop r12
 2125 08c0 BF90      		pop r11
 2126 08c2 AF90      		pop r10
 2127               	.LVL157:
 2128 08c4 9F90      		pop r9
 2129 08c6 8F90      		pop r8
 2130 08c8 7F90      		pop r7
 2131               	.LVL158:
 2132 08ca 6F90      		pop r6
 2133               	.LVL159:
 2134 08cc 5F90      		pop r5
 2135 08ce 4F90      		pop r4
 2136 08d0 3F90      		pop r3
 2137               	.LVL160:
 2138 08d2 0895      		ret
 2139               	.LVL161:
 2140               	.L204:
 2141               	.LM346:
 2142 08d4 9801      		movw r18,r16
 2143               	.LVL162:
 2144 08d6 00C0      		rjmp .L198
 2145               	.LFE30:
 2147               	.global	del_char
 2149               	del_char:
 2150               	.LFB28:
 2151               	.LM347:
 2152               	.LVL163:
 2153 08d8 0F93      		push r16
 2154 08da 1F93      		push r17
 2155               	/* prologue: function */
 2156               	/* frame size = 0 */
 2157               	.LM348:
 2158 08dc 8823      		tst r24
 2159 08de 01F0      		breq .+2
 2160 08e0 00C0      		rjmp .L218
 2161               	.LM349:
 2162 08e2 4091 0000 		lds r20,x_offset
 2163 08e6 4630      		cpi r20,lo8(6)
 2164 08e8 00F4      		brsh .L207
 2165               	.LM350:
 2166 08ea 8091 0000 		lds r24,display
 2167               	.LVL164:
 2168 08ee 682F      		mov r22,r24
 2169 08f0 70E0      		ldi r23,lo8(0)
 2170 08f2 4858      		subi r20,lo8(-(120))
 2171 08f4 CB01      		movw r24,r22
 2172 08f6 880F      		lsl r24
 2173 08f8 991F      		rol r25
 2174 08fa 880F      		lsl r24
 2175 08fc 991F      		rol r25
 2176 08fe 9C01      		movw r18,r24
 2177 0900 220F      		lsl r18
 2178 0902 331F      		rol r19
 2179 0904 220F      		lsl r18
 2180 0906 331F      		rol r19
 2181 0908 220F      		lsl r18
 2182 090a 331F      		rol r19
 2183 090c 820F      		add r24,r18
 2184 090e 931F      		adc r25,r19
 2185 0910 480F      		add r20,r24
 2186 0912 4093 0000 		sts x_offset,r20
 2187               	.LM351:
 2188 0916 4091 0000 		lds r20,y_offset
 2189 091a 485F      		subi r20,lo8(-(8))
 2190 091c 4093 0000 		sts y_offset,r20
 2191               	.LM352:
 2192 0920 242F      		mov r18,r20
 2193 0922 30E0      		ldi r19,lo8(0)
 2194 0924 CB01      		movw r24,r22
 2195 0926 0024      		clr __tmp_reg__
 2196 0928 9695      		lsr r25
 2197 092a 8795      		ror r24
 2198 092c 0794      		ror __tmp_reg__
 2199 092e 9695      		lsr r25
 2200 0930 8795      		ror r24
 2201 0932 0794      		ror __tmp_reg__
 2202 0934 982F      		mov r25,r24
 2203 0936 802D      		mov r24,__tmp_reg__
 2204 0938 CF96      		adiw r24,63
 2205 093a 8217      		cp r24,r18
 2206 093c 9307      		cpc r25,r19
 2207 093e 04F4      		brge .L206
 2208 0940 6095      		com r22
 2209 0942 7095      		com r23
 2210 0944 0024      		clr __tmp_reg__
 2211 0946 7695      		lsr r23
 2212 0948 6795      		ror r22
 2213 094a 0794      		ror __tmp_reg__
 2214 094c 7695      		lsr r23
 2215 094e 6795      		ror r22
 2216 0950 0794      		ror __tmp_reg__
 2217 0952 762F      		mov r23,r22
 2218 0954 602D      		mov r22,__tmp_reg__
 2219 0956 842F      		mov r24,r20
 2220 0958 860F      		add r24,r22
 2221 095a 8093 0000 		sts y_offset,r24
 2222 095e 482F      		mov r20,r24
 2223 0960 00C0      		rjmp .L206
 2224               	.LVL165:
 2225               	.L207:
 2226               	.LM353:
 2227 0962 4650      		subi r20,lo8(-(-6))
 2228 0964 4093 0000 		sts x_offset,r20
 2229               	.L218:
 2230 0968 4091 0000 		lds r20,y_offset
 2231               	.L206:
 2232               	.LM354:
 2233 096c 5091 0000 		lds r21,x_offset
 2234 0970 052F      		mov r16,r21
 2235               	.LVL166:
 2236               	.L210:
 2237               	.LM355:
 2238 0972 142F      		mov r17,r20
 2239 0974 1750      		subi r17,lo8(-(-7))
 2240 0976 4117      		cp r20,r17
 2241 0978 00F0      		brlo .L208
 2242               	.L214:
 2243               	.LM356:
 2244 097a 80E0      		ldi r24,lo8(0)
 2245               	.LVL167:
 2246 097c 602F      		mov r22,r16
 2247 097e 412F      		mov r20,r17
 2248 0980 0E94 0000 		call pixel
 2249               	.LVL168:
 2250               	.LM357:
 2251 0984 1F5F      		subi r17,lo8(-(1))
 2252 0986 4091 0000 		lds r20,y_offset
 2253 098a 4117      		cp r20,r17
 2254 098c 00F4      		brsh .L214
 2255 098e 5091 0000 		lds r21,x_offset
 2256               	.LVL169:
 2257               	.L208:
 2258               	.LM358:
 2259 0992 0F5F      		subi r16,lo8(-(1))
 2260 0994 852F      		mov r24,r21
 2261               	.LVL170:
 2262 0996 90E0      		ldi r25,lo8(0)
 2263 0998 0596      		adiw r24,5
 2264 099a 202F      		mov r18,r16
 2265 099c 30E0      		ldi r19,lo8(0)
 2266 099e 8217      		cp r24,r18
 2267 09a0 9307      		cpc r25,r19
 2268 09a2 04F4      		brge .L210
 2269               	.LVL171:
 2270               	.LM359:
 2271 09a4 8091 0000 		lds r24,display
 2272 09a8 8823      		tst r24
 2273 09aa 01F4      		brne .L212
 2274 09ac 60E0      		ldi r22,lo8(0)
 2275 09ae 40E0      		ldi r20,lo8(0)
 2276 09b0 0E94 0000 		call pixel
 2277               	.LVL172:
 2278               	.L212:
 2279               	/* epilogue start */
 2280               	.LM360:
 2281 09b4 1F91      		pop r17
 2282               	.LVL173:
 2283 09b6 0F91      		pop r16
 2284               	.LVL174:
 2285 09b8 0895      		ret
 2286               	.LFE28:
 2288               	.global	line
 2290               	line:
 2291               	.LFB21:
 2292               	.LM361:
 2293               	.LVL175:
 2294 09ba 2F92      		push r2
 2295 09bc 3F92      		push r3
 2296 09be 4F92      		push r4
 2297 09c0 5F92      		push r5
 2298 09c2 6F92      		push r6
 2299 09c4 7F92      		push r7
 2300 09c6 8F92      		push r8
 2301 09c8 9F92      		push r9
 2302 09ca AF92      		push r10
 2303 09cc BF92      		push r11
 2304 09ce CF92      		push r12
 2305 09d0 DF92      		push r13
 2306 09d2 EF92      		push r14
 2307 09d4 FF92      		push r15
 2308 09d6 0F93      		push r16
 2309               	.LVL176:
 2310 09d8 1F93      		push r17
 2311 09da DF93      		push r29
 2312 09dc CF93      		push r28
 2313 09de CDB7      		in r28,__SP_L__
 2314 09e0 DEB7      		in r29,__SP_H__
 2315 09e2 2B97      		sbiw r28,11
 2316 09e4 0FB6      		in __tmp_reg__,__SREG__
 2317 09e6 F894      		cli
 2318 09e8 DEBF      		out __SP_H__,r29
 2319 09ea 0FBE      		out __SREG__,__tmp_reg__
 2320 09ec CDBF      		out __SP_L__,r28
 2321               	/* prologue: function */
 2322               	/* frame size = 11 */
 2323 09ee 8D83      		std Y+5,r24
 2324 09f0 6E83      		std Y+6,r22
 2325 09f2 4F83      		std Y+7,r20
 2326 09f4 0887      		std Y+8,r16
 2327               	.LVL177:
 2328               	.LM362:
 2329 09f6 A62E      		mov r10,r22
 2330 09f8 BB24      		clr r11
 2331 09fa 3091 0000 		lds r19,display
 2332 09fe 3987      		std Y+9,r19
 2333 0a00 432F      		mov r20,r19
 2334               	.LVL178:
 2335 0a02 50E0      		ldi r21,lo8(0)
 2336 0a04 CA01      		movw r24,r20
 2337               	.LVL179:
 2338 0a06 880F      		lsl r24
 2339 0a08 991F      		rol r25
 2340 0a0a 8295      		swap r24
 2341 0a0c 9295      		swap r25
 2342 0a0e 907F      		andi r25,0xf0
 2343 0a10 9827      		eor r25,r24
 2344 0a12 807F      		andi r24,0xf0
 2345 0a14 9827      		eor r25,r24
 2346 0a16 8158      		subi r24,lo8(-(127))
 2347 0a18 9F4F      		sbci r25,hi8(-(127))
 2348 0a1a 822E      		mov r8,r18
 2349 0a1c 9924      		clr r9
 2350 0a1e 8A15      		cp r24,r10
 2351 0a20 9B05      		cpc r25,r11
 2352 0a22 04F0      		brlt .L234
 2353               	.LVL180:
 2354 0a24 8815      		cp r24,r8
 2355 0a26 9905      		cpc r25,r9
 2356 0a28 04F4      		brge .L241
 2357               	.LVL181:
 2358               	.L234:
 2359               	/* epilogue start */
 2360               	.LM363:
 2361 0a2a 2B96      		adiw r28,11
 2362 0a2c 0FB6      		in __tmp_reg__,__SREG__
 2363 0a2e F894      		cli
 2364 0a30 DEBF      		out __SP_H__,r29
 2365 0a32 0FBE      		out __SREG__,__tmp_reg__
 2366 0a34 CDBF      		out __SP_L__,r28
 2367 0a36 CF91      		pop r28
 2368 0a38 DF91      		pop r29
 2369 0a3a 1F91      		pop r17
 2370 0a3c 0F91      		pop r16
 2371 0a3e FF90      		pop r15
 2372 0a40 EF90      		pop r14
 2373 0a42 DF90      		pop r13
 2374 0a44 CF90      		pop r12
 2375               	.LVL182:
 2376 0a46 BF90      		pop r11
 2377 0a48 AF90      		pop r10
 2378 0a4a 9F90      		pop r9
 2379 0a4c 8F90      		pop r8
 2380 0a4e 7F90      		pop r7
 2381 0a50 6F90      		pop r6
 2382 0a52 5F90      		pop r5
 2383 0a54 4F90      		pop r4
 2384               	.LVL183:
 2385 0a56 3F90      		pop r3
 2386               	.LVL184:
 2387 0a58 2F90      		pop r2
 2388               	.LVL185:
 2389 0a5a 0895      		ret
 2390               	.LVL186:
 2391               	.L241:
 2392               	.LM364:
 2393 0a5c 8F81      		ldd r24,Y+7
 2394 0a5e 282E      		mov r2,r24
 2395               	.LVL187:
 2396 0a60 3324      		clr r3
 2397               	.LVL188:
 2398 0a62 CA01      		movw r24,r20
 2399 0a64 0024      		clr __tmp_reg__
 2400 0a66 9695      		lsr r25
 2401 0a68 8795      		ror r24
 2402 0a6a 0794      		ror __tmp_reg__
 2403 0a6c 9695      		lsr r25
 2404 0a6e 8795      		ror r24
 2405 0a70 0794      		ror __tmp_reg__
 2406 0a72 982F      		mov r25,r24
 2407 0a74 802D      		mov r24,__tmp_reg__
 2408 0a76 CF96      		adiw r24,63
 2409 0a78 E02F      		mov r30,r16
 2410 0a7a F0E0      		ldi r31,lo8(0)
 2411 0a7c FC83      		std Y+4,r31
 2412 0a7e EB83      		std Y+3,r30
 2413 0a80 8215      		cp r24,r2
 2414 0a82 9305      		cpc r25,r3
 2415 0a84 04F0      		brlt .L234
 2416 0a86 8E17      		cp r24,r30
 2417 0a88 9F07      		cpc r25,r31
 2418 0a8a 04F0      		brlt .L234
 2419               	.LM365:
 2420 0a8c 9401      		movw r18,r8
 2421               	.LVL189:
 2422 0a8e 2A19      		sub r18,r10
 2423 0a90 3B09      		sbc r19,r11
 2424 0a92 3A83      		std Y+2,r19
 2425 0a94 2983      		std Y+1,r18
 2426               	.LVL190:
 2427               	.LM366:
 2428 0a96 6F01      		movw r12,r30
 2429               	.LVL191:
 2430 0a98 C218      		sub r12,r2
 2431 0a9a D308      		sbc r13,r3
 2432               	.LM367:
 2433 0a9c B601      		movw r22,r12
 2434 0a9e 8827      		clr r24
 2435 0aa0 77FD      		sbrc r23,7
 2436 0aa2 8095      		com r24
 2437 0aa4 982F      		mov r25,r24
 2438               	.LVL192:
 2439 0aa6 0E94 0000 		call __floatsisf
 2440               	.LVL193:
 2441 0aaa 7B01      		movw r14,r22
 2442 0aac 8C01      		movw r16,r24
 2443 0aae 4981      		ldd r20,Y+1
 2444 0ab0 5A81      		ldd r21,Y+2
 2445 0ab2 BA01      		movw r22,r20
 2446 0ab4 8827      		clr r24
 2447 0ab6 77FD      		sbrc r23,7
 2448 0ab8 8095      		com r24
 2449 0aba 982F      		mov r25,r24
 2450               	.LVL194:
 2451 0abc 0E94 0000 		call __floatsisf
 2452               	.LVL195:
 2453 0ac0 9B01      		movw r18,r22
 2454 0ac2 AC01      		movw r20,r24
 2455 0ac4 C801      		movw r24,r16
 2456 0ac6 B701      		movw r22,r14
 2457 0ac8 0E94 0000 		call __divsf3
 2458 0acc 2B01      		movw r4,r22
 2459 0ace 3C01      		movw r6,r24
 2460               	.LVL196:
 2461               	.LM368:
 2462 0ad0 B101      		movw r22,r2
 2463 0ad2 8827      		clr r24
 2464 0ad4 77FD      		sbrc r23,7
 2465 0ad6 8095      		com r24
 2466 0ad8 982F      		mov r25,r24
 2467               	.LVL197:
 2468 0ada 0E94 0000 		call __floatsisf
 2469               	.LVL198:
 2470 0ade 7B01      		movw r14,r22
 2471 0ae0 8C01      		movw r16,r24
 2472 0ae2 B501      		movw r22,r10
 2473 0ae4 8827      		clr r24
 2474 0ae6 77FD      		sbrc r23,7
 2475 0ae8 8095      		com r24
 2476 0aea 982F      		mov r25,r24
 2477               	.LVL199:
 2478 0aec 0E94 0000 		call __floatsisf
 2479               	.LVL200:
 2480 0af0 A301      		movw r20,r6
 2481 0af2 9201      		movw r18,r4
 2482 0af4 0E94 0000 		call __mulsf3
 2483 0af8 9B01      		movw r18,r22
 2484 0afa AC01      		movw r20,r24
 2485 0afc C801      		movw r24,r16
 2486 0afe B701      		movw r22,r14
 2487 0b00 0E94 0000 		call __subsf3
 2488 0b04 0E94 0000 		call __fixsfsi
 2489 0b08 9B01      		movw r18,r22
 2490               	.LVL201:
 2491               	.LM369:
 2492 0b0a C601      		movw r24,r12
 2493               	.LVL202:
 2494 0b0c D7FC      		sbrc r13,7
 2495 0b0e 00C0      		rjmp .L242
 2496               	.LVL203:
 2497               	.L222:
 2498 0b10 E981      		ldd r30,Y+1
 2499 0b12 FA81      		ldd r31,Y+2
 2500               	.LVL204:
 2501 0b14 E817      		cp r30,r24
 2502 0b16 F907      		cpc r31,r25
 2503 0b18 04F0      		brlt .+2
 2504 0b1a 00C0      		rjmp .L243
 2505               	.LM370:
 2506 0b1c 4F81      		ldd r20,Y+7
 2507 0b1e 5885      		ldd r21,Y+8
 2508 0b20 4517      		cp r20,r21
 2509 0b22 00F0      		brlo .+2
 2510 0b24 00C0      		rjmp .L225
 2511               	.LVL205:
 2512               	.LM371:
 2513 0b26 8B81      		ldd r24,Y+3
 2514 0b28 9C81      		ldd r25,Y+4
 2515               	.LVL206:
 2516 0b2a 8215      		cp r24,r2
 2517 0b2c 9305      		cpc r25,r3
 2518 0b2e 04F4      		brge .+2
 2519 0b30 00C0      		rjmp .L223
 2520               	.LVL207:
 2521 0b32 4101      		movw r8,r2
 2522 0b34 821A      		sub r8,r18
 2523 0b36 930A      		sbc r9,r19
 2524 0b38 CC24      		clr r12
 2525 0b3a DD24      		clr r13
 2526               	.LVL208:
 2527 0b3c 00C0      		rjmp .L229
 2528               	.LVL209:
 2529               	.L244:
 2530               	.LM372:
 2531 0b3e BB86      		std Y+11,r11
 2532 0b40 AA86      		std Y+10,r10
 2533               	.LVL210:
 2534               	.L227:
 2535               	.LM373:
 2536 0b42 4F81      		ldd r20,Y+7
 2537 0b44 4C0D      		add r20,r12
 2538 0b46 8D81      		ldd r24,Y+5
 2539 0b48 6A85      		ldd r22,Y+10
 2540 0b4a 0E94 0000 		call pixel
 2541               	.LVL211:
 2542 0b4e 0894      		sec
 2543 0b50 C11C      		adc r12,__zero_reg__
 2544 0b52 D11C      		adc r13,__zero_reg__
 2545 0b54 0894      		sec
 2546 0b56 811C      		adc r8,__zero_reg__
 2547 0b58 911C      		adc r9,__zero_reg__
 2548               	.LM374:
 2549 0b5a C601      		movw r24,r12
 2550 0b5c 820D      		add r24,r2
 2551 0b5e 931D      		adc r25,r3
 2552 0b60 EB81      		ldd r30,Y+3
 2553 0b62 FC81      		ldd r31,Y+4
 2554 0b64 E817      		cp r30,r24
 2555 0b66 F907      		cpc r31,r25
 2556 0b68 04F4      		brge .+2
 2557 0b6a 00C0      		rjmp .L240
 2558               	.LVL212:
 2559               	.L229:
 2560               	.LM375:
 2561 0b6c E981      		ldd r30,Y+1
 2562 0b6e FA81      		ldd r31,Y+2
 2563 0b70 EF2B      		or r30,r31
 2564 0b72 01F0      		breq .L244
 2565               	.LM376:
 2566 0b74 B401      		movw r22,r8
 2567 0b76 8827      		clr r24
 2568 0b78 77FD      		sbrc r23,7
 2569 0b7a 8095      		com r24
 2570 0b7c 982F      		mov r25,r24
 2571 0b7e 0E94 0000 		call __floatsisf
 2572               	.LVL213:
 2573 0b82 A301      		movw r20,r6
 2574 0b84 9201      		movw r18,r4
 2575 0b86 0E94 0000 		call __divsf3
 2576 0b8a 7B01      		movw r14,r22
 2577 0b8c 8C01      		movw r16,r24
 2578               	.LBB246:
 2579               	.LBB247:
 2580               	.LM377:
 2581 0b8e 0E94 0000 		call __fixsfsi
 2582 0b92 7B87      		std Y+11,r23
 2583 0b94 6A87      		std Y+10,r22
 2584               	.LVL214:
 2585               	.LM378:
 2586 0b96 9B01      		movw r18,r22
 2587 0b98 B901      		movw r22,r18
 2588 0b9a 8827      		clr r24
 2589 0b9c 77FD      		sbrc r23,7
 2590 0b9e 8095      		com r24
 2591 0ba0 982F      		mov r25,r24
 2592               	.LVL215:
 2593 0ba2 0E94 0000 		call __floatsisf
 2594               	.LVL216:
 2595 0ba6 9B01      		movw r18,r22
 2596 0ba8 AC01      		movw r20,r24
 2597 0baa C801      		movw r24,r16
 2598 0bac B701      		movw r22,r14
 2599 0bae 0E94 0000 		call __subsf3
 2600 0bb2 20E0      		ldi r18,lo8(0x3f000000)
 2601 0bb4 30E0      		ldi r19,hi8(0x3f000000)
 2602 0bb6 40E0      		ldi r20,hlo8(0x3f000000)
 2603 0bb8 5FE3      		ldi r21,hhi8(0x3f000000)
 2604 0bba 0E94 0000 		call __gesf2
 2605 0bbe 8823      		tst r24
 2606 0bc0 04F4      		brge .+2
 2607 0bc2 00C0      		rjmp .L227
 2608 0bc4 4A85      		ldd r20,Y+10
 2609 0bc6 5B85      		ldd r21,Y+11
 2610               	.LVL217:
 2611 0bc8 4F5F      		subi r20,lo8(-(1))
 2612 0bca 5F4F      		sbci r21,hi8(-(1))
 2613 0bcc 5B87      		std Y+11,r21
 2614 0bce 4A87      		std Y+10,r20
 2615               	.LVL218:
 2616 0bd0 00C0      		rjmp .L227
 2617               	.LVL219:
 2618               	.L243:
 2619               	.LBE247:
 2620               	.LBE246:
 2621               	.LM379:
 2622 0bd2 8A14      		cp r8,r10
 2623 0bd4 9B04      		cpc r9,r11
 2624 0bd6 04F0      		brlt .L223
 2625 0bd8 B901      		movw r22,r18
 2626 0bda 8827      		clr r24
 2627 0bdc 77FD      		sbrc r23,7
 2628 0bde 8095      		com r24
 2629 0be0 982F      		mov r25,r24
 2630               	.LVL220:
 2631 0be2 0E94 0000 		call __floatsisf
 2632               	.LVL221:
 2633 0be6 6B01      		movw r12,r22
 2634 0be8 7C01      		movw r14,r24
 2635               	.LVL222:
 2636 0bea 2224      		clr r2
 2637 0bec 3324      		clr r3
 2638               	.LVL223:
 2639               	.L224:
 2640               	.LM380:
 2641 0bee 1E81      		ldd r17,Y+6
 2642 0bf0 120D      		add r17,r2
 2643 0bf2 B101      		movw r22,r2
 2644 0bf4 6A0D      		add r22,r10
 2645 0bf6 7B1D      		adc r23,r11
 2646 0bf8 8827      		clr r24
 2647 0bfa 77FD      		sbrc r23,7
 2648 0bfc 8095      		com r24
 2649 0bfe 982F      		mov r25,r24
 2650 0c00 0E94 0000 		call __floatsisf
 2651 0c04 A301      		movw r20,r6
 2652 0c06 9201      		movw r18,r4
 2653 0c08 0E94 0000 		call __mulsf3
 2654 0c0c A701      		movw r20,r14
 2655 0c0e 9601      		movw r18,r12
 2656 0c10 0E94 0000 		call __addsf3
 2657 0c14 0E94 0000 		call __fixunssfsi
 2658 0c18 9B01      		movw r18,r22
 2659 0c1a AC01      		movw r20,r24
 2660 0c1c 8D81      		ldd r24,Y+5
 2661 0c1e 612F      		mov r22,r17
 2662 0c20 422F      		mov r20,r18
 2663 0c22 0E94 0000 		call pixel
 2664 0c26 0894      		sec
 2665 0c28 211C      		adc r2,__zero_reg__
 2666 0c2a 311C      		adc r3,__zero_reg__
 2667               	.LM381:
 2668 0c2c C501      		movw r24,r10
 2669 0c2e 820D      		add r24,r2
 2670 0c30 931D      		adc r25,r3
 2671 0c32 8816      		cp r8,r24
 2672 0c34 9906      		cpc r9,r25
 2673 0c36 04F4      		brge .L224
 2674               	.LVL224:
 2675               	.L240:
 2676 0c38 F091 0000 		lds r31,display
 2677 0c3c F987      		std Y+9,r31
 2678               	.LVL225:
 2679               	.L223:
 2680               	.LM382:
 2681 0c3e 2985      		ldd r18,Y+9
 2682               	.LVL226:
 2683 0c40 2223      		tst r18
 2684 0c42 01F0      		breq .+2
 2685 0c44 00C0      		rjmp .L234
 2686 0c46 80E0      		ldi r24,lo8(0)
 2687 0c48 60E0      		ldi r22,lo8(0)
 2688 0c4a 40E0      		ldi r20,lo8(0)
 2689 0c4c 0E94 0000 		call pixel
 2690 0c50 00C0      		rjmp .L234
 2691               	.LVL227:
 2692               	.L225:
 2693               	.LM383:
 2694 0c52 4F81      		ldd r20,Y+7
 2695 0c54 5885      		ldd r21,Y+8
 2696 0c56 5417      		cp r21,r20
 2697 0c58 00F4      		brsh .L223
 2698               	.LM384:
 2699 0c5a 8B81      		ldd r24,Y+3
 2700 0c5c 9C81      		ldd r25,Y+4
 2701               	.LVL228:
 2702 0c5e 2816      		cp r2,r24
 2703 0c60 3906      		cpc r3,r25
 2704 0c62 04F0      		brlt .L223
 2705               	.LVL229:
 2706 0c64 4101      		movw r8,r2
 2707 0c66 821A      		sub r8,r18
 2708 0c68 930A      		sbc r9,r19
 2709 0c6a CC24      		clr r12
 2710 0c6c DD24      		clr r13
 2711               	.LVL230:
 2712 0c6e 00C0      		rjmp .L233
 2713               	.LVL231:
 2714               	.L245:
 2715               	.LM385:
 2716 0c70 BB86      		std Y+11,r11
 2717 0c72 AA86      		std Y+10,r10
 2718               	.LVL232:
 2719               	.L231:
 2720               	.LM386:
 2721 0c74 4F81      		ldd r20,Y+7
 2722 0c76 4C19      		sub r20,r12
 2723 0c78 8D81      		ldd r24,Y+5
 2724 0c7a 6A85      		ldd r22,Y+10
 2725 0c7c 0E94 0000 		call pixel
 2726               	.LVL233:
 2727 0c80 0894      		sec
 2728 0c82 C11C      		adc r12,__zero_reg__
 2729 0c84 D11C      		adc r13,__zero_reg__
 2730 0c86 0894      		sec
 2731 0c88 8108      		sbc r8,__zero_reg__
 2732 0c8a 9108      		sbc r9,__zero_reg__
 2733               	.LM387:
 2734 0c8c C101      		movw r24,r2
 2735 0c8e 8C19      		sub r24,r12
 2736 0c90 9D09      		sbc r25,r13
 2737 0c92 EB81      		ldd r30,Y+3
 2738 0c94 FC81      		ldd r31,Y+4
 2739 0c96 8E17      		cp r24,r30
 2740 0c98 9F07      		cpc r25,r31
 2741 0c9a 04F0      		brlt .L240
 2742               	.LVL234:
 2743               	.L233:
 2744               	.LM388:
 2745 0c9c E981      		ldd r30,Y+1
 2746 0c9e FA81      		ldd r31,Y+2
 2747 0ca0 EF2B      		or r30,r31
 2748 0ca2 01F0      		breq .L245
 2749               	.LM389:
 2750 0ca4 B401      		movw r22,r8
 2751 0ca6 8827      		clr r24
 2752 0ca8 77FD      		sbrc r23,7
 2753 0caa 8095      		com r24
 2754 0cac 982F      		mov r25,r24
 2755 0cae 0E94 0000 		call __floatsisf
 2756               	.LVL235:
 2757 0cb2 A301      		movw r20,r6
 2758 0cb4 9201      		movw r18,r4
 2759 0cb6 0E94 0000 		call __divsf3
 2760 0cba 7B01      		movw r14,r22
 2761 0cbc 8C01      		movw r16,r24
 2762               	.LBB248:
 2763               	.LBB249:
 2764               	.LM390:
 2765 0cbe 0E94 0000 		call __fixsfsi
 2766 0cc2 7B87      		std Y+11,r23
 2767 0cc4 6A87      		std Y+10,r22
 2768               	.LVL236:
 2769               	.LM391:
 2770 0cc6 9B01      		movw r18,r22
 2771 0cc8 B901      		movw r22,r18
 2772 0cca 8827      		clr r24
 2773 0ccc 77FD      		sbrc r23,7
 2774 0cce 8095      		com r24
 2775 0cd0 982F      		mov r25,r24
 2776               	.LVL237:
 2777 0cd2 0E94 0000 		call __floatsisf
 2778               	.LVL238:
 2779 0cd6 9B01      		movw r18,r22
 2780 0cd8 AC01      		movw r20,r24
 2781 0cda C801      		movw r24,r16
 2782 0cdc B701      		movw r22,r14
 2783 0cde 0E94 0000 		call __subsf3
 2784 0ce2 20E0      		ldi r18,lo8(0x3f000000)
 2785 0ce4 30E0      		ldi r19,hi8(0x3f000000)
 2786 0ce6 40E0      		ldi r20,hlo8(0x3f000000)
 2787 0ce8 5FE3      		ldi r21,hhi8(0x3f000000)
 2788 0cea 0E94 0000 		call __gesf2
 2789 0cee 8823      		tst r24
 2790 0cf0 04F0      		brlt .L231
 2791 0cf2 4A85      		ldd r20,Y+10
 2792 0cf4 5B85      		ldd r21,Y+11
 2793               	.LVL239:
 2794 0cf6 4F5F      		subi r20,lo8(-(1))
 2795 0cf8 5F4F      		sbci r21,hi8(-(1))
 2796 0cfa 5B87      		std Y+11,r21
 2797 0cfc 4A87      		std Y+10,r20
 2798               	.LVL240:
 2799 0cfe 00C0      		rjmp .L231
 2800               	.LVL241:
 2801               	.L242:
 2802               	.LBE249:
 2803               	.LBE248:
 2804               	.LM392:
 2805 0d00 9095      		com r25
 2806 0d02 8195      		neg r24
 2807 0d04 9F4F      		sbci r25,lo8(-1)
 2808               	.LVL242:
 2809 0d06 00C0      		rjmp .L222
 2810               	.LFE21:
 2812               	.global	box
 2814               	box:
 2815               	.LFB31:
 2816               	.LM393:
 2817               	.LVL243:
 2818 0d08 DF92      		push r13
 2819 0d0a EF92      		push r14
 2820 0d0c FF92      		push r15
 2821 0d0e 0F93      		push r16
 2822 0d10 1F93      		push r17
 2823               	/* prologue: function */
 2824               	/* frame size = 0 */
 2825 0d12 F82E      		mov r15,r24
 2826 0d14 D62E      		mov r13,r22
 2827 0d16 E42E      		mov r14,r20
 2828 0d18 122F      		mov r17,r18
 2829               	.LM394:
 2830 0d1a 81E0      		ldi r24,lo8(1)
 2831               	.LVL244:
 2832 0d1c 642F      		mov r22,r20
 2833               	.LVL245:
 2834 0d1e 422F      		mov r20,r18
 2835               	.LVL246:
 2836 0d20 2E2D      		mov r18,r14
 2837               	.LVL247:
 2838 0d22 0D2D      		mov r16,r13
 2839 0d24 0E94 0000 		call line
 2840               	.LM395:
 2841 0d28 81E0      		ldi r24,lo8(1)
 2842 0d2a 6F2D      		mov r22,r15
 2843 0d2c 412F      		mov r20,r17
 2844 0d2e 2E2D      		mov r18,r14
 2845 0d30 012F      		mov r16,r17
 2846 0d32 0E94 0000 		call line
 2847               	.LM396:
 2848 0d36 81E0      		ldi r24,lo8(1)
 2849 0d38 6F2D      		mov r22,r15
 2850 0d3a 412F      		mov r20,r17
 2851 0d3c 2F2D      		mov r18,r15
 2852 0d3e 0D2D      		mov r16,r13
 2853 0d40 0E94 0000 		call line
 2854               	.LM397:
 2855 0d44 81E0      		ldi r24,lo8(1)
 2856 0d46 6F2D      		mov r22,r15
 2857 0d48 4D2D      		mov r20,r13
 2858 0d4a 2E2D      		mov r18,r14
 2859 0d4c 0E94 0000 		call line
 2860               	/* epilogue start */
 2861               	.LM398:
 2862 0d50 1F91      		pop r17
 2863               	.LVL248:
 2864 0d52 0F91      		pop r16
 2865 0d54 FF90      		pop r15
 2866               	.LVL249:
 2867 0d56 EF90      		pop r14
 2868               	.LVL250:
 2869 0d58 DF90      		pop r13
 2870               	.LVL251:
 2871 0d5a 0895      		ret
 2872               	.LFE31:
 2874               	.global	print_char
 2876               	print_char:
 2877               	.LFB16:
 2878               	.LM399:
 2879               	.LVL252:
 2880 0d5c DF92      		push r13
 2881 0d5e EF92      		push r14
 2882 0d60 FF92      		push r15
 2883 0d62 0F93      		push r16
 2884 0d64 1F93      		push r17
 2885 0d66 CF93      		push r28
 2886 0d68 DF93      		push r29
 2887               	/* prologue: function */
 2888               	/* frame size = 0 */
 2889 0d6a D82E      		mov r13,r24
 2890               	.LM400:
 2891 0d6c 85E0      		ldi r24,lo8(5)
 2892               	.LVL253:
 2893 0d6e 689F      		mul r22,r24
 2894 0d70 B001      		movw r22,r0
 2895 0d72 1124      		clr r1
 2896               	.LVL254:
 2897 0d74 EB01      		movw r28,r22
 2898 0d76 C050      		subi r28,lo8(-(text_array-160))
 2899 0d78 D040      		sbci r29,hi8(-(text_array-160))
 2900               	.LM401:
 2901 0d7a 00E0      		ldi r16,lo8(text_array-155)
 2902 0d7c E02E      		mov r14,r16
 2903 0d7e 00E0      		ldi r16,hi8(text_array-155)
 2904 0d80 F02E      		mov r15,r16
 2905 0d82 E60E      		add r14,r22
 2906 0d84 F71E      		adc r15,r23
 2907               	.LVL255:
 2908               	.L252:
 2909               	.LBB250:
 2910               	.LM402:
 2911 0d86 FE01      		movw r30,r28
 2912               	/* #APP */
 2913               	 ;  956 "main.c" 1
 2914 0d88 0491      		lpm r16, Z
 2915               		
 2916               	 ;  0 "" 2
 2917               	/* #NOAPP */
 2918 0d8a 10E0      		ldi r17,lo8(0)
 2919 0d8c 00C0      		rjmp .L251
 2920               	.L249:
 2921               	.LBE250:
 2922               	.LM403:
 2923 0d8e 1F5F      		subi r17,lo8(-(1))
 2924 0d90 1830      		cpi r17,lo8(8)
 2925 0d92 01F0      		breq .L250
 2926               	.L258:
 2927               	.LM404:
 2928 0d94 000F      		lsl r16
 2929               	.L251:
 2930               	.LM405:
 2931 0d96 07FF      		sbrs r16,7
 2932 0d98 00C0      		rjmp .L249
 2933 0d9a 4091 0000 		lds r20,y_offset
 2934 0d9e 411B      		sub r20,r17
 2935 0da0 8D2D      		mov r24,r13
 2936 0da2 6091 0000 		lds r22,x_offset
 2937 0da6 0E94 0000 		call pixel
 2938               	.LM406:
 2939 0daa 1F5F      		subi r17,lo8(-(1))
 2940 0dac 1830      		cpi r17,lo8(8)
 2941 0dae 01F4      		brne .L258
 2942               	.L250:
 2943               	.LM407:
 2944 0db0 2091 0000 		lds r18,x_offset
 2945 0db4 2F5F      		subi r18,lo8(-(1))
 2946 0db6 2093 0000 		sts x_offset,r18
 2947 0dba 2196      		adiw r28,1
 2948               	.LM408:
 2949 0dbc CE15      		cp r28,r14
 2950 0dbe DF05      		cpc r29,r15
 2951 0dc0 01F4      		brne .L252
 2952               	.LM409:
 2953 0dc2 2F5F      		subi r18,lo8(-(1))
 2954 0dc4 2093 0000 		sts x_offset,r18
 2955               	.LM410:
 2956 0dc8 6091 0000 		lds r22,display
 2957 0dcc 462F      		mov r20,r22
 2958 0dce 50E0      		ldi r21,lo8(0)
 2959 0dd0 30E0      		ldi r19,lo8(0)
 2960 0dd2 CA01      		movw r24,r20
 2961 0dd4 880F      		lsl r24
 2962 0dd6 991F      		rol r25
 2963 0dd8 8295      		swap r24
 2964 0dda 9295      		swap r25
 2965 0ddc 907F      		andi r25,0xf0
 2966 0dde 9827      		eor r25,r24
 2967 0de0 807F      		andi r24,0xf0
 2968 0de2 9827      		eor r25,r24
 2969               	.LVL256:
 2970 0de4 8758      		subi r24,lo8(-(121))
 2971 0de6 9F4F      		sbci r25,hi8(-(121))
 2972 0de8 8217      		cp r24,r18
 2973 0dea 9307      		cpc r25,r19
 2974 0dec 04F4      		brge .L253
 2975               	.LM411:
 2976 0dee 1092 0000 		sts x_offset,__zero_reg__
 2977               	.LM412:
 2978 0df2 8091 0000 		lds r24,y_offset
 2979 0df6 8830      		cpi r24,lo8(8)
 2980 0df8 00F4      		brsh .L254
 2981               	.LM413:
 2982 0dfa 0024      		clr __tmp_reg__
 2983 0dfc 5695      		lsr r21
 2984 0dfe 4795      		ror r20
 2985 0e00 0794      		ror __tmp_reg__
 2986 0e02 5695      		lsr r21
 2987 0e04 4795      		ror r20
 2988 0e06 0794      		ror __tmp_reg__
 2989 0e08 542F      		mov r21,r20
 2990 0e0a 402D      		mov r20,__tmp_reg__
 2991 0e0c 842F      		mov r24,r20
 2992 0e0e 815C      		subi r24,lo8(-(63))
 2993 0e10 8093 0000 		sts y_offset,r24
 2994               	.L253:
 2995               	.LM414:
 2996 0e14 6623      		tst r22
 2997 0e16 01F4      		brne .L256
 2998 0e18 80E0      		ldi r24,lo8(0)
 2999 0e1a 40E0      		ldi r20,lo8(0)
 3000 0e1c 0E94 0000 		call pixel
 3001               	.L256:
 3002               	/* epilogue start */
 3003               	.LM415:
 3004 0e20 DF91      		pop r29
 3005 0e22 CF91      		pop r28
 3006 0e24 1F91      		pop r17
 3007 0e26 0F91      		pop r16
 3008               	.LVL257:
 3009 0e28 FF90      		pop r15
 3010 0e2a EF90      		pop r14
 3011 0e2c DF90      		pop r13
 3012               	.LVL258:
 3013 0e2e 0895      		ret
 3014               	.LVL259:
 3015               	.L254:
 3016               	.LM416:
 3017 0e30 8850      		subi r24,lo8(-(-8))
 3018 0e32 8093 0000 		sts y_offset,r24
 3019 0e36 00C0      		rjmp .L253
 3020               	.LFE16:
 3022               	.global	clear_screen
 3024               	clear_screen:
 3025               	.LFB14:
 3026               	.LM417:
 3027 0e38 CF93      		push r28
 3028 0e3a DF93      		push r29
 3029               	/* prologue: function */
 3030               	/* frame size = 0 */
 3031               	.LM418:
 3032 0e3c 8091 0000 		lds r24,display
 3033 0e40 8823      		tst r24
 3034 0e42 01F4      		brne .+2
 3035 0e44 00C0      		rjmp .L261
 3036               	.LM419:
 3037 0e46 8130      		cpi r24,lo8(1)
 3038 0e48 01F0      		breq .+2
 3039 0e4a 00C0      		rjmp .L288
 3040               	.L291:
 3041               	.LM420:
 3042 0e4c 80E0      		ldi r24,lo8(0)
 3043 0e4e 0E94 0000 		call read
 3044 0e52 90E0      		ldi r25,lo8(0)
 3045 0e54 8370      		andi r24,lo8(3)
 3046 0e56 9070      		andi r25,hi8(3)
 3047 0e58 892B      		or r24,r25
 3048 0e5a 01F0      		breq .L291
 3049               	.LM421:
 3050 0e5c 81E0      		ldi r24,lo8(1)
 3051 0e5e 60E0      		ldi r22,lo8(0)
 3052 0e60 0E94 0000 		call write
 3053               	.L283:
 3054               	.LM422:
 3055 0e64 80E0      		ldi r24,lo8(0)
 3056 0e66 0E94 0000 		call read
 3057 0e6a 90E0      		ldi r25,lo8(0)
 3058 0e6c 8370      		andi r24,lo8(3)
 3059 0e6e 9070      		andi r25,hi8(3)
 3060 0e70 892B      		or r24,r25
 3061 0e72 01F0      		breq .L283
 3062               	.LM423:
 3063 0e74 81E0      		ldi r24,lo8(1)
 3064 0e76 60E0      		ldi r22,lo8(0)
 3065 0e78 0E94 0000 		call write
 3066               	.L284:
 3067               	.LM424:
 3068 0e7c 80E0      		ldi r24,lo8(0)
 3069 0e7e 0E94 0000 		call read
 3070 0e82 90E0      		ldi r25,lo8(0)
 3071 0e84 8370      		andi r24,lo8(3)
 3072 0e86 9070      		andi r25,hi8(3)
 3073 0e88 892B      		or r24,r25
 3074 0e8a 01F0      		breq .L284
 3075               	.LM425:
 3076 0e8c 80E0      		ldi r24,lo8(0)
 3077 0e8e 64E2      		ldi r22,lo8(36)
 3078 0e90 0E94 0000 		call write
 3079 0e94 C0E0      		ldi r28,lo8(0)
 3080 0e96 D0E0      		ldi r29,hi8(0)
 3081               	.LVL260:
 3082               	.L314:
 3083               	.LM426:
 3084 0e98 80E0      		ldi r24,lo8(0)
 3085 0e9a 0E94 0000 		call read
 3086 0e9e 90E0      		ldi r25,lo8(0)
 3087 0ea0 8370      		andi r24,lo8(3)
 3088 0ea2 9070      		andi r25,hi8(3)
 3089 0ea4 892B      		or r24,r25
 3090 0ea6 01F0      		breq .L314
 3091               	.LM427:
 3092 0ea8 8091 0000 		lds r24,reverse
 3093 0eac 8130      		cpi r24,lo8(1)
 3094 0eae 01F4      		brne .+2
 3095 0eb0 00C0      		rjmp .L316
 3096               	.LM428:
 3097 0eb2 8823      		tst r24
 3098 0eb4 01F4      		brne .+2
 3099 0eb6 00C0      		rjmp .L317
 3100               	.L290:
 3101               	.LM429:
 3102 0eb8 80E0      		ldi r24,lo8(0)
 3103 0eba 0E94 0000 		call read
 3104 0ebe 90E0      		ldi r25,lo8(0)
 3105 0ec0 8370      		andi r24,lo8(3)
 3106 0ec2 9070      		andi r25,hi8(3)
 3107 0ec4 892B      		or r24,r25
 3108 0ec6 01F0      		breq .L290
 3109               	.LM430:
 3110 0ec8 80E0      		ldi r24,lo8(0)
 3111 0eca 60EC      		ldi r22,lo8(-64)
 3112 0ecc 0E94 0000 		call write
 3113               	.LM431:
 3114 0ed0 2196      		adiw r28,1
 3115 0ed2 8AE0      		ldi r24,hi8(2560)
 3116 0ed4 C030      		cpi r28,lo8(2560)
 3117 0ed6 D807      		cpc r29,r24
 3118 0ed8 01F4      		brne .L314
 3119               	.LM432:
 3120 0eda 1092 0000 		sts x_offset,__zero_reg__
 3121               	.LM433:
 3122 0ede 8FE7      		ldi r24,lo8(127)
 3123 0ee0 8093 0000 		sts y_offset,r24
 3124 0ee4 00C0      		rjmp .L288
 3125               	.LVL261:
 3126               	.L261:
 3127               	.LBB251:
 3128               	.LBB252:
 3129               	.LM434:
 3130               	/* #APP */
 3131               	 ;  786 "main.c" 1
 3132 0ee6 0000      		nop
 3133               	 ;  0 "" 2
 3134               	.LM435:
 3135               	/* #NOAPP */
 3136 0ee8 8F5F      		subi r24,lo8(-(1))
 3137               	.LVL262:
 3138 0eea 8E31      		cpi r24,lo8(30)
 3139 0eec 01F4      		brne .L261
 3140               	.LBE252:
 3141               	.LBE251:
 3142               	.LM436:
 3143 0eee 4091 0000 		lds r20,reverse
 3144 0ef2 30E0      		ldi r19,lo8(0)
 3145               	.LVL263:
 3146               	.L280:
 3147               	.LM437:
 3148 0ef4 88B1      		in r24,40-32
 3149               	.LVL264:
 3150 0ef6 887F      		andi r24,lo8(-8)
 3151 0ef8 88B9      		out 40-32,r24
 3152               	.LBB253:
 3153               	.LBB254:
 3154               	.LM438:
 3155 0efa 85B1      		in r24,37-32
 3156 0efc 8C7F      		andi r24,lo8(-4)
 3157 0efe 85B9      		out 37-32,r24
 3158               	.LM439:
 3159 0f00 8BB1      		in r24,43-32
 3160 0f02 8370      		andi r24,lo8(3)
 3161 0f04 8BB9      		out 43-32,r24
 3162               	.LM440:
 3163 0f06 25B1      		in r18,37-32
 3164 0f08 932F      		mov r25,r19
 3165               	.LVL265:
 3166 0f0a 986B      		ori r25,lo8(-72)
 3167 0f0c 892F      		mov r24,r25
 3168 0f0e 8370      		andi r24,lo8(3)
 3169 0f10 822B      		or r24,r18
 3170 0f12 85B9      		out 37-32,r24
 3171               	.LM441:
 3172 0f14 8BB1      		in r24,43-32
 3173 0f16 9C7F      		andi r25,lo8(-4)
 3174 0f18 982B      		or r25,r24
 3175 0f1a 9BB9      		out 43-32,r25
 3176 0f1c 80E0      		ldi r24,lo8(0)
 3177               	.LVL266:
 3178               	.L262:
 3179               	.LBE254:
 3180               	.LBE253:
 3181               	.LBB255:
 3182               	.LBB256:
 3183               	.LM442:
 3184               	/* #APP */
 3185               	 ;  786 "main.c" 1
 3186 0f1e 0000      		nop
 3187               	 ;  0 "" 2
 3188               	.LM443:
 3189               	/* #NOAPP */
 3190 0f20 8F5F      		subi r24,lo8(-(1))
 3191 0f22 8E31      		cpi r24,lo8(30)
 3192 0f24 01F4      		brne .L262
 3193               	.LBE256:
 3194               	.LBE255:
 3195               	.LM444:
 3196 0f26 409A      		sbi 40-32,0
 3197 0f28 80E0      		ldi r24,lo8(0)
 3198               	.LVL267:
 3199               	.L263:
 3200               	.LBB257:
 3201               	.LBB258:
 3202               	.LM445:
 3203               	/* #APP */
 3204               	 ;  786 "main.c" 1
 3205 0f2a 0000      		nop
 3206               	 ;  0 "" 2
 3207               	.LM446:
 3208               	/* #NOAPP */
 3209 0f2c 8F5F      		subi r24,lo8(-(1))
 3210 0f2e 8E31      		cpi r24,lo8(30)
 3211 0f30 01F4      		brne .L263
 3212               	.LBE258:
 3213               	.LBE257:
 3214               	.LM447:
 3215 0f32 4098      		cbi 40-32,0
 3216 0f34 80E0      		ldi r24,lo8(0)
 3217               	.LVL268:
 3218               	.L264:
 3219               	.LBB259:
 3220               	.LBB260:
 3221               	.LM448:
 3222               	/* #APP */
 3223               	 ;  786 "main.c" 1
 3224 0f36 0000      		nop
 3225               	 ;  0 "" 2
 3226               	.LM449:
 3227               	/* #NOAPP */
 3228 0f38 8F5F      		subi r24,lo8(-(1))
 3229 0f3a 8E31      		cpi r24,lo8(30)
 3230 0f3c 01F4      		brne .L264
 3231               	.LBE260:
 3232               	.LBE259:
 3233               	.LM450:
 3234 0f3e 88B1      		in r24,40-32
 3235               	.LVL269:
 3236 0f40 8760      		ori r24,lo8(7)
 3237 0f42 88B9      		out 40-32,r24
 3238 0f44 80E0      		ldi r24,lo8(0)
 3239               	.LVL270:
 3240               	.L265:
 3241               	.LBB261:
 3242               	.LBB262:
 3243               	.LM451:
 3244               	/* #APP */
 3245               	 ;  786 "main.c" 1
 3246 0f46 0000      		nop
 3247               	 ;  0 "" 2
 3248               	.LM452:
 3249               	/* #NOAPP */
 3250 0f48 8F5F      		subi r24,lo8(-(1))
 3251 0f4a 8E31      		cpi r24,lo8(30)
 3252 0f4c 01F4      		brne .L265
 3253               	.LBE262:
 3254               	.LBE261:
 3255               	.LM453:
 3256 0f4e 88B1      		in r24,40-32
 3257               	.LVL271:
 3258 0f50 887F      		andi r24,lo8(-8)
 3259 0f52 88B9      		out 40-32,r24
 3260               	.LBB263:
 3261               	.LBB264:
 3262               	.LM454:
 3263 0f54 85B1      		in r24,37-32
 3264 0f56 8C7F      		andi r24,lo8(-4)
 3265 0f58 85B9      		out 37-32,r24
 3266               	.LM455:
 3267 0f5a 8BB1      		in r24,43-32
 3268 0f5c 8370      		andi r24,lo8(3)
 3269 0f5e 8BB9      		out 43-32,r24
 3270               	.LM456:
 3271 0f60 85B1      		in r24,37-32
 3272 0f62 85B9      		out 37-32,r24
 3273               	.LM457:
 3274 0f64 5E9A      		sbi 43-32,6
 3275 0f66 80E0      		ldi r24,lo8(0)
 3276               	.LVL272:
 3277               	.L266:
 3278               	.LBE264:
 3279               	.LBE263:
 3280               	.LBB265:
 3281               	.LBB266:
 3282               	.LM458:
 3283               	/* #APP */
 3284               	 ;  786 "main.c" 1
 3285 0f68 0000      		nop
 3286               	 ;  0 "" 2
 3287               	.LM459:
 3288               	/* #NOAPP */
 3289 0f6a 8F5F      		subi r24,lo8(-(1))
 3290 0f6c 8E31      		cpi r24,lo8(30)
 3291 0f6e 01F4      		brne .L266
 3292               	.LBE266:
 3293               	.LBE265:
 3294               	.LM460:
 3295 0f70 409A      		sbi 40-32,0
 3296 0f72 80E0      		ldi r24,lo8(0)
 3297               	.LVL273:
 3298               	.L267:
 3299               	.LBB267:
 3300               	.LBB268:
 3301               	.LM461:
 3302               	/* #APP */
 3303               	 ;  786 "main.c" 1
 3304 0f74 0000      		nop
 3305               	 ;  0 "" 2
 3306               	.LM462:
 3307               	/* #NOAPP */
 3308 0f76 8F5F      		subi r24,lo8(-(1))
 3309 0f78 8E31      		cpi r24,lo8(30)
 3310 0f7a 01F4      		brne .L267
 3311               	.LBE268:
 3312               	.LBE267:
 3313               	.LM463:
 3314 0f7c 4098      		cbi 40-32,0
 3315 0f7e 80E0      		ldi r24,lo8(0)
 3316               	.LVL274:
 3317               	.L268:
 3318               	.LBB269:
 3319               	.LBB270:
 3320               	.LM464:
 3321               	/* #APP */
 3322               	 ;  786 "main.c" 1
 3323 0f80 0000      		nop
 3324               	 ;  0 "" 2
 3325               	.LM465:
 3326               	/* #NOAPP */
 3327 0f82 8F5F      		subi r24,lo8(-(1))
 3328 0f84 8E31      		cpi r24,lo8(30)
 3329 0f86 01F4      		brne .L268
 3330               	.LBE270:
 3331               	.LBE269:
 3332               	.LM466:
 3333 0f88 88B1      		in r24,40-32
 3334               	.LVL275:
 3335 0f8a 8760      		ori r24,lo8(7)
 3336 0f8c 88B9      		out 40-32,r24
 3337               	.LM467:
 3338 0f8e 4130      		cpi r20,lo8(1)
 3339 0f90 01F4      		brne .+2
 3340 0f92 00C0      		rjmp .L318
 3341               	.LBB271:
 3342               	.LBB272:
 3343               	.LM468:
 3344 0f94 85B1      		in r24,37-32
 3345 0f96 8C7F      		andi r24,lo8(-4)
 3346 0f98 85B9      		out 37-32,r24
 3347               	.LM469:
 3348 0f9a 8BB1      		in r24,43-32
 3349 0f9c 8370      		andi r24,lo8(3)
 3350 0f9e 8BB9      		out 43-32,r24
 3351               	.LM470:
 3352 0fa0 85B1      		in r24,37-32
 3353 0fa2 85B9      		out 37-32,r24
 3354               	.LM471:
 3355 0fa4 8BB1      		in r24,43-32
 3356 0fa6 8BB9      		out 43-32,r24
 3357 0fa8 90E0      		ldi r25,lo8(0)
 3358               	.LVL276:
 3359               	.L315:
 3360               	.LBE272:
 3361               	.LBE271:
 3362               	.LM472:
 3363 0faa 80E0      		ldi r24,lo8(0)
 3364               	.LVL277:
 3365               	.L271:
 3366               	.LBB273:
 3367               	.LBB274:
 3368               	.LM473:
 3369               	/* #APP */
 3370               	 ;  786 "main.c" 1
 3371 0fac 0000      		nop
 3372               	 ;  0 "" 2
 3373               	.LM474:
 3374               	/* #NOAPP */
 3375 0fae 8F5F      		subi r24,lo8(-(1))
 3376 0fb0 8E31      		cpi r24,lo8(30)
 3377 0fb2 01F4      		brne .L271
 3378               	.LBE274:
 3379               	.LBE273:
 3380               	.LM475:
 3381 0fb4 88B1      		in r24,40-32
 3382               	.LVL278:
 3383 0fb6 8A7E      		andi r24,lo8(-22)
 3384 0fb8 88B9      		out 40-32,r24
 3385 0fba 80E0      		ldi r24,lo8(0)
 3386               	.LVL279:
 3387               	.L272:
 3388               	.LBB275:
 3389               	.LBB276:
 3390               	.LM476:
 3391               	/* #APP */
 3392               	 ;  786 "main.c" 1
 3393 0fbc 0000      		nop
 3394               	 ;  0 "" 2
 3395               	.LM477:
 3396               	/* #NOAPP */
 3397 0fbe 8F5F      		subi r24,lo8(-(1))
 3398 0fc0 8E31      		cpi r24,lo8(30)
 3399 0fc2 01F4      		brne .L272
 3400               	.LBE276:
 3401               	.LBE275:
 3402               	.LM478:
 3403 0fc4 409A      		sbi 40-32,0
 3404 0fc6 80E0      		ldi r24,lo8(0)
 3405               	.LVL280:
 3406               	.L273:
 3407               	.LBB277:
 3408               	.LBB278:
 3409               	.LM479:
 3410               	/* #APP */
 3411               	 ;  786 "main.c" 1
 3412 0fc8 0000      		nop
 3413               	 ;  0 "" 2
 3414               	.LM480:
 3415               	/* #NOAPP */
 3416 0fca 8F5F      		subi r24,lo8(-(1))
 3417 0fcc 8E31      		cpi r24,lo8(30)
 3418 0fce 01F4      		brne .L273
 3419               	.LBE278:
 3420               	.LBE277:
 3421               	.LM481:
 3422 0fd0 4098      		cbi 40-32,0
 3423 0fd2 80E0      		ldi r24,lo8(0)
 3424               	.LVL281:
 3425               	.L274:
 3426               	.LBB279:
 3427               	.LBB280:
 3428               	.LM482:
 3429               	/* #APP */
 3430               	 ;  786 "main.c" 1
 3431 0fd4 0000      		nop
 3432               	 ;  0 "" 2
 3433               	.LM483:
 3434               	/* #NOAPP */
 3435 0fd6 8F5F      		subi r24,lo8(-(1))
 3436 0fd8 8E31      		cpi r24,lo8(30)
 3437 0fda 01F4      		brne .L274
 3438               	.LBE280:
 3439               	.LBE279:
 3440               	.LM484:
 3441 0fdc 88B1      		in r24,40-32
 3442               	.LVL282:
 3443 0fde 8561      		ori r24,lo8(21)
 3444 0fe0 88B9      		out 40-32,r24
 3445 0fe2 80E0      		ldi r24,lo8(0)
 3446               	.LVL283:
 3447               	.L275:
 3448               	.LBB281:
 3449               	.LBB282:
 3450               	.LM485:
 3451               	/* #APP */
 3452               	 ;  786 "main.c" 1
 3453 0fe4 0000      		nop
 3454               	 ;  0 "" 2
 3455               	.LM486:
 3456               	/* #NOAPP */
 3457 0fe6 8F5F      		subi r24,lo8(-(1))
 3458 0fe8 8E31      		cpi r24,lo8(30)
 3459 0fea 01F4      		brne .L275
 3460               	.LBE282:
 3461               	.LBE281:
 3462               	.LM487:
 3463 0fec 88B1      		in r24,40-32
 3464               	.LVL284:
 3465 0fee 8A7D      		andi r24,lo8(-38)
 3466 0ff0 88B9      		out 40-32,r24
 3467 0ff2 80E0      		ldi r24,lo8(0)
 3468               	.LVL285:
 3469               	.L276:
 3470               	.LBB283:
 3471               	.LBB284:
 3472               	.LM488:
 3473               	/* #APP */
 3474               	 ;  786 "main.c" 1
 3475 0ff4 0000      		nop
 3476               	 ;  0 "" 2
 3477               	.LM489:
 3478               	/* #NOAPP */
 3479 0ff6 8F5F      		subi r24,lo8(-(1))
 3480 0ff8 8E31      		cpi r24,lo8(30)
 3481 0ffa 01F4      		brne .L276
 3482               	.LBE284:
 3483               	.LBE283:
 3484               	.LM490:
 3485 0ffc 409A      		sbi 40-32,0
 3486 0ffe 80E0      		ldi r24,lo8(0)
 3487               	.LVL286:
 3488               	.L277:
 3489               	.LBB285:
 3490               	.LBB286:
 3491               	.LM491:
 3492               	/* #APP */
 3493               	 ;  786 "main.c" 1
 3494 1000 0000      		nop
 3495               	 ;  0 "" 2
 3496               	.LM492:
 3497               	/* #NOAPP */
 3498 1002 8F5F      		subi r24,lo8(-(1))
 3499 1004 8E31      		cpi r24,lo8(30)
 3500 1006 01F4      		brne .L277
 3501               	.LBE286:
 3502               	.LBE285:
 3503               	.LM493:
 3504 1008 4098      		cbi 40-32,0
 3505 100a 80E0      		ldi r24,lo8(0)
 3506               	.LVL287:
 3507               	.L278:
 3508               	.LBB287:
 3509               	.LBB288:
 3510               	.LM494:
 3511               	/* #APP */
 3512               	 ;  786 "main.c" 1
 3513 100c 0000      		nop
 3514               	 ;  0 "" 2
 3515               	.LM495:
 3516               	/* #NOAPP */
 3517 100e 8F5F      		subi r24,lo8(-(1))
 3518 1010 8E31      		cpi r24,lo8(30)
 3519 1012 01F4      		brne .L278
 3520               	.LBE288:
 3521               	.LBE287:
 3522               	.LM496:
 3523 1014 88B1      		in r24,40-32
 3524               	.LVL288:
 3525 1016 8562      		ori r24,lo8(37)
 3526 1018 88B9      		out 40-32,r24
 3527               	.LM497:
 3528 101a 9F5F      		subi r25,lo8(-(1))
 3529 101c 9034      		cpi r25,lo8(64)
 3530 101e 01F0      		breq .+2
 3531 1020 00C0      		rjmp .L315
 3532               	.LM498:
 3533 1022 3F5F      		subi r19,lo8(-(1))
 3534 1024 3830      		cpi r19,lo8(8)
 3535 1026 01F0      		breq .+2
 3536 1028 00C0      		rjmp .L280
 3537               	.LM499:
 3538 102a 1092 0000 		sts x_offset,__zero_reg__
 3539               	.LM500:
 3540 102e 8FE3      		ldi r24,lo8(63)
 3541 1030 8093 0000 		sts y_offset,r24
 3542               	.LVL289:
 3543               	.L288:
 3544               	/* epilogue start */
 3545               	.LM501:
 3546 1034 DF91      		pop r29
 3547 1036 CF91      		pop r28
 3548               	.LVL290:
 3549 1038 0895      		ret
 3550               	.LVL291:
 3551               	.L318:
 3552               	.LBB289:
 3553               	.LBB290:
 3554               	.LM502:
 3555 103a 85B1      		in r24,37-32
 3556 103c 8C7F      		andi r24,lo8(-4)
 3557 103e 85B9      		out 37-32,r24
 3558               	.LM503:
 3559 1040 8BB1      		in r24,43-32
 3560 1042 8370      		andi r24,lo8(3)
 3561 1044 8BB9      		out 43-32,r24
 3562               	.LM504:
 3563 1046 85B1      		in r24,37-32
 3564 1048 8360      		ori r24,lo8(3)
 3565 104a 85B9      		out 37-32,r24
 3566               	.LM505:
 3567 104c 8BB1      		in r24,43-32
 3568 104e 8C6F      		ori r24,lo8(-4)
 3569 1050 8BB9      		out 43-32,r24
 3570 1052 90E0      		ldi r25,lo8(0)
 3571               	.LVL292:
 3572 1054 00C0      		rjmp .L315
 3573               	.LVL293:
 3574               	.L317:
 3575               	.LBE290:
 3576               	.LBE289:
 3577               	.LM506:
 3578 1056 81E0      		ldi r24,lo8(1)
 3579 1058 60E0      		ldi r22,lo8(0)
 3580 105a 0E94 0000 		call write
 3581 105e 00C0      		rjmp .L290
 3582               	.L316:
 3583               	.LM507:
 3584 1060 6FEF      		ldi r22,lo8(-1)
 3585 1062 0E94 0000 		call write
 3586 1066 00C0      		rjmp .L290
 3587               	.LFE14:
 3589               	.global	display_init
 3591               	display_init:
 3592               	.LFB35:
 3593               	.LM508:
 3594               	/* prologue: function */
 3595               	/* frame size = 0 */
 3596               	.L320:
 3597               	.LM509:
 3598 1068 80E0      		ldi r24,lo8(0)
 3599 106a 0E94 0000 		call read
 3600 106e 90E0      		ldi r25,lo8(0)
 3601 1070 8370      		andi r24,lo8(3)
 3602 1072 9070      		andi r25,hi8(3)
 3603 1074 892B      		or r24,r25
 3604 1076 01F0      		breq .L320
 3605               	.LM510:
 3606 1078 81E0      		ldi r24,lo8(1)
 3607 107a 60E0      		ldi r22,lo8(0)
 3608 107c 0E94 0000 		call write
 3609               	.L321:
 3610               	.LM511:
 3611 1080 80E0      		ldi r24,lo8(0)
 3612 1082 0E94 0000 		call read
 3613 1086 90E0      		ldi r25,lo8(0)
 3614 1088 8370      		andi r24,lo8(3)
 3615 108a 9070      		andi r25,hi8(3)
 3616 108c 892B      		or r24,r25
 3617 108e 01F0      		breq .L321
 3618               	.LM512:
 3619 1090 81E0      		ldi r24,lo8(1)
 3620 1092 60E0      		ldi r22,lo8(0)
 3621 1094 0E94 0000 		call write
 3622               	.L322:
 3623               	.LM513:
 3624 1098 80E0      		ldi r24,lo8(0)
 3625 109a 0E94 0000 		call read
 3626 109e 90E0      		ldi r25,lo8(0)
 3627 10a0 8370      		andi r24,lo8(3)
 3628 10a2 9070      		andi r25,hi8(3)
 3629 10a4 892B      		or r24,r25
 3630 10a6 01F0      		breq .L322
 3631               	.LM514:
 3632 10a8 80E0      		ldi r24,lo8(0)
 3633 10aa 62E4      		ldi r22,lo8(66)
 3634 10ac 0E94 0000 		call write
 3635               	.L323:
 3636               	.LM515:
 3637 10b0 80E0      		ldi r24,lo8(0)
 3638 10b2 0E94 0000 		call read
 3639 10b6 90E0      		ldi r25,lo8(0)
 3640 10b8 8370      		andi r24,lo8(3)
 3641 10ba 9070      		andi r25,hi8(3)
 3642 10bc 892B      		or r24,r25
 3643 10be 01F0      		breq .L323
 3644               	.LM516:
 3645 10c0 81E0      		ldi r24,lo8(1)
 3646 10c2 64E1      		ldi r22,lo8(20)
 3647 10c4 0E94 0000 		call write
 3648               	.L324:
 3649               	.LM517:
 3650 10c8 80E0      		ldi r24,lo8(0)
 3651 10ca 0E94 0000 		call read
 3652 10ce 90E0      		ldi r25,lo8(0)
 3653 10d0 8370      		andi r24,lo8(3)
 3654 10d2 9070      		andi r25,hi8(3)
 3655 10d4 892B      		or r24,r25
 3656 10d6 01F0      		breq .L324
 3657               	.LM518:
 3658 10d8 81E0      		ldi r24,lo8(1)
 3659 10da 60E0      		ldi r22,lo8(0)
 3660 10dc 0E94 0000 		call write
 3661               	.L325:
 3662               	.LM519:
 3663 10e0 80E0      		ldi r24,lo8(0)
 3664 10e2 0E94 0000 		call read
 3665 10e6 90E0      		ldi r25,lo8(0)
 3666 10e8 8370      		andi r24,lo8(3)
 3667 10ea 9070      		andi r25,hi8(3)
 3668 10ec 892B      		or r24,r25
 3669 10ee 01F0      		breq .L325
 3670               	.LM520:
 3671 10f0 80E0      		ldi r24,lo8(0)
 3672 10f2 63E4      		ldi r22,lo8(67)
 3673 10f4 0E94 0000 		call write
 3674               	.L326:
 3675               	.LM521:
 3676 10f8 80E0      		ldi r24,lo8(0)
 3677 10fa 0E94 0000 		call read
 3678 10fe 90E0      		ldi r25,lo8(0)
 3679 1100 8370      		andi r24,lo8(3)
 3680 1102 9070      		andi r25,hi8(3)
 3681 1104 892B      		or r24,r25
 3682 1106 01F0      		breq .L326
 3683               	.LM522:
 3684 1108 80E0      		ldi r24,lo8(0)
 3685 110a 60E8      		ldi r22,lo8(-128)
 3686 110c 0E94 0000 		call write
 3687               	.L327:
 3688               	.LM523:
 3689 1110 80E0      		ldi r24,lo8(0)
 3690 1112 0E94 0000 		call read
 3691 1116 90E0      		ldi r25,lo8(0)
 3692 1118 8370      		andi r24,lo8(3)
 3693 111a 9070      		andi r25,hi8(3)
 3694 111c 892B      		or r24,r25
 3695 111e 01F0      		breq .L327
 3696               	.LM524:
 3697 1120 80E0      		ldi r24,lo8(0)
 3698 1122 68E9      		ldi r22,lo8(-104)
 3699 1124 0E94 0000 		call write
 3700               	/* epilogue start */
 3701               	.LM525:
 3702 1128 0895      		ret
 3703               	.LFE35:
 3705               	.global	circle
 3707               	circle:
 3708               	.LFB24:
 3709               	.LM526:
 3710               	.LVL294:
 3711 112a 2F92      		push r2
 3712 112c 3F92      		push r3
 3713 112e 4F92      		push r4
 3714 1130 5F92      		push r5
 3715 1132 6F92      		push r6
 3716 1134 7F92      		push r7
 3717 1136 8F92      		push r8
 3718 1138 9F92      		push r9
 3719 113a AF92      		push r10
 3720 113c BF92      		push r11
 3721 113e CF92      		push r12
 3722 1140 DF92      		push r13
 3723 1142 EF92      		push r14
 3724 1144 FF92      		push r15
 3725 1146 0F93      		push r16
 3726 1148 1F93      		push r17
 3727 114a DF93      		push r29
 3728 114c CF93      		push r28
 3729 114e CDB7      		in r28,__SP_L__
 3730 1150 DEB7      		in r29,__SP_H__
 3731 1152 2C97      		sbiw r28,12
 3732 1154 0FB6      		in __tmp_reg__,__SREG__
 3733 1156 F894      		cli
 3734 1158 DEBF      		out __SP_H__,r29
 3735 115a 0FBE      		out __SREG__,__tmp_reg__
 3736 115c CDBF      		out __SP_L__,r28
 3737               	/* prologue: function */
 3738               	/* frame size = 12 */
 3739 115e E82E      		mov r14,r24
 3740 1160 6B01      		movw r12,r22
 3741 1162 8A01      		movw r16,r20
 3742               	.LM527:
 3743 1164 1B01      		movw r2,r22
 3744               	.LVL295:
 3745 1166 221A      		sub r2,r18
 3746 1168 330A      		sbc r3,r19
 3747               	.LM528:
 3748 116a C901      		movw r24,r18
 3749               	.LVL296:
 3750 116c 860F      		add r24,r22
 3751 116e 971F      		adc r25,r23
 3752 1170 9887      		std Y+8,r25
 3753 1172 8F83      		std Y+7,r24
 3754               	.LVL297:
 3755               	.LM529:
 3756 1174 8215      		cp r24,r2
 3757 1176 9305      		cpc r25,r3
 3758 1178 04F4      		brge .+2
 3759 117a 00C0      		rjmp .L338
 3760               	.LVL298:
 3761 117c 229F      		mul r18,r18
 3762 117e F001      		movw r30,r0
 3763 1180 239F      		mul r18,r19
 3764 1182 F00D      		add r31,r0
 3765 1184 329F      		mul r19,r18
 3766 1186 F00D      		add r31,r0
 3767 1188 1124      		clr r1
 3768 118a FE83      		std Y+6,r31
 3769 118c ED83      		std Y+5,r30
 3770 118e BA01      		movw r22,r20
 3771 1190 8827      		clr r24
 3772 1192 77FD      		sbrc r23,7
 3773 1194 8095      		com r24
 3774 1196 982F      		mov r25,r24
 3775               	.LVL299:
 3776 1198 0E94 0000 		call __floatsisf
 3777               	.LVL300:
 3778 119c 6983      		std Y+1,r22
 3779 119e 7A83      		std Y+2,r23
 3780 11a0 8B83      		std Y+3,r24
 3781 11a2 9C83      		std Y+4,r25
 3782               	.LM530:
 3783 11a4 F02F      		mov r31,r16
 3784 11a6 FF0F      		lsl r31
 3785 11a8 F987      		std Y+9,r31
 3786 11aa 2601      		movw r4,r12
 3787 11ac 4218      		sub r4,r2
 3788 11ae 5308      		sbc r5,r3
 3789 11b0 3101      		movw r6,r2
 3790 11b2 6C18      		sub r6,r12
 3791 11b4 7D08      		sbc r7,r13
 3792 11b6 3C86      		std Y+12,r3
 3793 11b8 2B86      		std Y+11,r2
 3794               	.LVL301:
 3795 11ba 8824      		clr r8
 3796 11bc 9924      		clr r9
 3797               	.LVL302:
 3798 11be AA24      		clr r10
 3799 11c0 BB24      		clr r11
 3800               	.LVL303:
 3801               	.LM531:
 3802 11c2 FA87      		std Y+10,r31
 3803 11c4 00C0      		rjmp .L341
 3804               	.LVL304:
 3805               	.L344:
 3806               	.LM532:
 3807 11c6 8E2D      		mov r24,r14
 3808 11c8 682D      		mov r22,r8
 3809 11ca 4A2D      		mov r20,r10
 3810 11cc 2B85      		ldd r18,Y+11
 3811 11ce 0C2D      		mov r16,r12
 3812 11d0 0E94 0000 		call line
 3813               	.LM533:
 3814 11d4 4985      		ldd r20,Y+9
 3815 11d6 4A19      		sub r20,r10
 3816               	.LVL305:
 3817 11d8 0985      		ldd r16,Y+9
 3818 11da 0C19      		sub r16,r12
 3819               	.LVL306:
 3820 11dc 8E2D      		mov r24,r14
 3821 11de 682D      		mov r22,r8
 3822 11e0 2B85      		ldd r18,Y+11
 3823 11e2 0E94 0000 		call line
 3824               	.LVL307:
 3825               	.L340:
 3826               	.LM534:
 3827 11e6 8B85      		ldd r24,Y+11
 3828 11e8 9C85      		ldd r25,Y+12
 3829 11ea 0196      		adiw r24,1
 3830               	.LVL308:
 3831 11ec 0894      		sec
 3832 11ee 4108      		sbc r4,__zero_reg__
 3833 11f0 5108      		sbc r5,__zero_reg__
 3834 11f2 0894      		sec
 3835 11f4 611C      		adc r6,__zero_reg__
 3836 11f6 711C      		adc r7,__zero_reg__
 3837 11f8 5601      		movw r10,r12
 3838               	.LVL309:
 3839 11fa 8B84      		ldd r8,Y+11
 3840 11fc 9C84      		ldd r9,Y+12
 3841 11fe 2F81      		ldd r18,Y+7
 3842 1200 3885      		ldd r19,Y+8
 3843 1202 2817      		cp r18,r24
 3844 1204 3907      		cpc r19,r25
 3845 1206 04F0      		brlt .L338
 3846 1208 9C87      		std Y+12,r25
 3847 120a 8B87      		std Y+11,r24
 3848               	.LVL310:
 3849               	.L341:
 3850               	.LM535:
 3851 120c 469C      		mul r4,r6
 3852 120e B001      		movw r22,r0
 3853 1210 479C      		mul r4,r7
 3854 1212 700D      		add r23,r0
 3855 1214 569C      		mul r5,r6
 3856 1216 700D      		add r23,r0
 3857 1218 1124      		clr r1
 3858 121a 8D81      		ldd r24,Y+5
 3859 121c 9E81      		ldd r25,Y+6
 3860 121e 680F      		add r22,r24
 3861 1220 791F      		adc r23,r25
 3862 1222 8827      		clr r24
 3863 1224 77FD      		sbrc r23,7
 3864 1226 8095      		com r24
 3865 1228 982F      		mov r25,r24
 3866 122a 0E94 0000 		call __floatsisf
 3867 122e 0E94 0000 		call sqrt
 3868 1232 2981      		ldd r18,Y+1
 3869 1234 3A81      		ldd r19,Y+2
 3870 1236 4B81      		ldd r20,Y+3
 3871 1238 5C81      		ldd r21,Y+4
 3872 123a 0E94 0000 		call __subsf3
 3873 123e 0E94 0000 		call __fixsfsi
 3874               	.LM536:
 3875 1242 CC24      		clr r12
 3876 1244 DD24      		clr r13
 3877 1246 C61A      		sub r12,r22
 3878 1248 D70A      		sbc r13,r23
 3879               	.LVL311:
 3880               	.LM537:
 3881 124a EB85      		ldd r30,Y+11
 3882 124c FC85      		ldd r31,Y+12
 3883 124e 2E16      		cp r2,r30
 3884 1250 3F06      		cpc r3,r31
 3885 1252 04F4      		brge .+2
 3886 1254 00C0      		rjmp .L344
 3887               	.LM538:
 3888 1256 8E2D      		mov r24,r14
 3889 1258 6B85      		ldd r22,Y+11
 3890 125a 4C2D      		mov r20,r12
 3891 125c 0E94 0000 		call pixel
 3892               	.LM539:
 3893 1260 4A85      		ldd r20,Y+10
 3894 1262 4C19      		sub r20,r12
 3895               	.LVL312:
 3896 1264 8E2D      		mov r24,r14
 3897 1266 6B85      		ldd r22,Y+11
 3898 1268 0E94 0000 		call pixel
 3899 126c 00C0      		rjmp .L340
 3900               	.LVL313:
 3901               	.L338:
 3902               	.LM540:
 3903 126e 8091 0000 		lds r24,display
 3904               	.LVL314:
 3905 1272 8823      		tst r24
 3906 1274 01F4      		brne .L343
 3907 1276 60E0      		ldi r22,lo8(0)
 3908               	.LVL315:
 3909 1278 40E0      		ldi r20,lo8(0)
 3910 127a 0E94 0000 		call pixel
 3911               	.LVL316:
 3912               	.L343:
 3913               	/* epilogue start */
 3914               	.LM541:
 3915 127e 2C96      		adiw r28,12
 3916 1280 0FB6      		in __tmp_reg__,__SREG__
 3917 1282 F894      		cli
 3918 1284 DEBF      		out __SP_H__,r29
 3919 1286 0FBE      		out __SREG__,__tmp_reg__
 3920 1288 CDBF      		out __SP_L__,r28
 3921 128a CF91      		pop r28
 3922 128c DF91      		pop r29
 3923 128e 1F91      		pop r17
 3924 1290 0F91      		pop r16
 3925               	.LVL317:
 3926 1292 FF90      		pop r15
 3927 1294 EF90      		pop r14
 3928               	.LVL318:
 3929 1296 DF90      		pop r13
 3930 1298 CF90      		pop r12
 3931               	.LVL319:
 3932 129a BF90      		pop r11
 3933 129c AF90      		pop r10
 3934               	.LVL320:
 3935 129e 9F90      		pop r9
 3936 12a0 8F90      		pop r8
 3937               	.LVL321:
 3938 12a2 7F90      		pop r7
 3939 12a4 6F90      		pop r6
 3940 12a6 5F90      		pop r5
 3941 12a8 4F90      		pop r4
 3942 12aa 3F90      		pop r3
 3943 12ac 2F90      		pop r2
 3944               	.LVL322:
 3945 12ae 0895      		ret
 3946               	.LFE24:
 3948               	.global	demo
 3950               	demo:
 3951               	.LFB29:
 3952               	.LM542:
 3953 12b0 BF92      		push r11
 3954 12b2 CF92      		push r12
 3955 12b4 DF92      		push r13
 3956 12b6 EF92      		push r14
 3957 12b8 FF92      		push r15
 3958 12ba 0F93      		push r16
 3959 12bc 1F93      		push r17
 3960 12be CF93      		push r28
 3961 12c0 DF93      		push r29
 3962               	/* prologue: function */
 3963               	/* frame size = 0 */
 3964               	.LM543:
 3965 12c2 8091 0000 		lds r24,display
 3966 12c6 90E0      		ldi r25,lo8(0)
 3967 12c8 880F      		lsl r24
 3968 12ca 991F      		rol r25
 3969 12cc 8295      		swap r24
 3970 12ce 9295      		swap r25
 3971 12d0 907F      		andi r25,0xf0
 3972 12d2 9827      		eor r25,r24
 3973 12d4 807F      		andi r24,0xf0
 3974 12d6 9827      		eor r25,r24
 3975 12d8 6FE7      		ldi r22,lo8(127)
 3976 12da C62E      		mov r12,r22
 3977               	.LVL323:
 3978 12dc C80E      		add r12,r24
 3979               	.LM544:
 3980 12de 880F      		lsl r24
 3981 12e0 991F      		rol r25
 3982 12e2 4FE3      		ldi r20,lo8(63)
 3983 12e4 D42E      		mov r13,r20
 3984               	.LVL324:
 3985 12e6 D80E      		add r13,r24
 3986               	.LM545:
 3987 12e8 38E2      		ldi r19,lo8(40)
 3988 12ea B32E      		mov r11,r19
 3989               	.LVL325:
 3990               	.L377:
 3991               	.LM546:
 3992 12ec 1092 0000 		sts x_offset,__zero_reg__
 3993               	.LM547:
 3994 12f0 D092 0000 		sts y_offset,r13
 3995 12f4 00E0      		ldi r16,lo8(0)
 3996               	.LVL326:
 3997               	.L346:
 3998               	.LM548:
 3999 12f6 10E2      		ldi r17,lo8(32)
 4000 12f8 00C0      		rjmp .L348
 4001               	.L395:
 4002               	.LM549:
 4003 12fa 1F5F      		subi r17,lo8(-(1))
 4004 12fc 1B37      		cpi r17,lo8(123)
 4005 12fe 01F0      		breq .L394
 4006               	.L348:
 4007               	.LM550:
 4008 1300 81E0      		ldi r24,lo8(1)
 4009 1302 0E94 0000 		call del_char
 4010               	.LM551:
 4011 1306 81E0      		ldi r24,lo8(1)
 4012 1308 612F      		mov r22,r17
 4013 130a 0E94 0000 		call print_char
 4014               	.LM552:
 4015 130e 8091 0000 		lds r24,RX_in
 4016 1312 9091 0000 		lds r25,(RX_in)+1
 4017 1316 892B      		or r24,r25
 4018 1318 01F0      		breq .L395
 4019               	.LVL327:
 4020               	.L378:
 4021               	/* epilogue start */
 4022               	.LM553:
 4023 131a DF91      		pop r29
 4024 131c CF91      		pop r28
 4025 131e 1F91      		pop r17
 4026               	.LVL328:
 4027 1320 0F91      		pop r16
 4028 1322 FF90      		pop r15
 4029               	.LVL329:
 4030 1324 EF90      		pop r14
 4031 1326 DF90      		pop r13
 4032               	.LVL330:
 4033 1328 CF90      		pop r12
 4034               	.LVL331:
 4035 132a BF90      		pop r11
 4036 132c 0895      		ret
 4037               	.LVL332:
 4038               	.L394:
 4039               	.LM554:
 4040 132e 0F5F      		subi r16,lo8(-(1))
 4041 1330 0530      		cpi r16,lo8(5)
 4042 1332 01F4      		brne .L346
 4043               	.LM555:
 4044 1334 0E94 0000 		call clear_screen
 4045 1338 00E0      		ldi r16,lo8(0)
 4046               	.LVL333:
 4047               	.L350:
 4048               	.LM556:
 4049 133a 10E2      		ldi r17,lo8(32)
 4050 133c 00C0      		rjmp .L352
 4051               	.L397:
 4052               	.LM557:
 4053 133e 1F5F      		subi r17,lo8(-(1))
 4054 1340 1B37      		cpi r17,lo8(123)
 4055 1342 01F0      		breq .L396
 4056               	.L352:
 4057               	.LM558:
 4058 1344 8091 0000 		lds r24,y_offset
 4059 1348 8650      		subi r24,lo8(-(-6))
 4060 134a 8093 0000 		sts y_offset,r24
 4061               	.LM559:
 4062 134e 8930      		cpi r24,lo8(9)
 4063 1350 00F4      		brsh .L351
 4064 1352 D092 0000 		sts y_offset,r13
 4065               	.L351:
 4066               	.LM560:
 4067 1356 81E0      		ldi r24,lo8(1)
 4068 1358 0E94 0000 		call del_char
 4069               	.LM561:
 4070 135c 81E0      		ldi r24,lo8(1)
 4071 135e 612F      		mov r22,r17
 4072 1360 0E94 0000 		call print_char
 4073               	.LM562:
 4074 1364 8091 0000 		lds r24,RX_in
 4075 1368 9091 0000 		lds r25,(RX_in)+1
 4076 136c 892B      		or r24,r25
 4077 136e 01F0      		breq .L397
 4078 1370 00C0      		rjmp .L378
 4079               	.L396:
 4080               	.LM563:
 4081 1372 0F5F      		subi r16,lo8(-(1))
 4082 1374 0530      		cpi r16,lo8(5)
 4083 1376 01F4      		brne .L350
 4084               	.LM564:
 4085 1378 0E94 0000 		call clear_screen
 4086               	.LM565:
 4087 137c 8091 0000 		lds r24,display
 4088 1380 682F      		mov r22,r24
 4089 1382 70E0      		ldi r23,lo8(0)
 4090 1384 15E0      		ldi r17,lo8(5)
 4091               	.LVL334:
 4092 1386 E5E0      		ldi r30,lo8(5)
 4093 1388 F0E0      		ldi r31,hi8(5)
 4094 138a 00C0      		rjmp .L354
 4095               	.L399:
 4096 138c 1B5F      		subi r17,lo8(-(5))
 4097 138e A091 0000 		lds r26,display
 4098 1392 6A2F      		mov r22,r26
 4099 1394 70E0      		ldi r23,lo8(0)
 4100 1396 E12F      		mov r30,r17
 4101 1398 F0E0      		ldi r31,lo8(0)
 4102 139a 9B01      		movw r18,r22
 4103 139c 220F      		lsl r18
 4104 139e 331F      		rol r19
 4105 13a0 220F      		lsl r18
 4106 13a2 331F      		rol r19
 4107 13a4 220F      		lsl r18
 4108 13a6 331F      		rol r19
 4109               	.LVL335:
 4110 13a8 C901      		movw r24,r18
 4111 13aa 880F      		lsl r24
 4112 13ac 991F      		rol r25
 4113 13ae 880F      		lsl r24
 4114 13b0 991F      		rol r25
 4115 13b2 880F      		lsl r24
 4116 13b4 991F      		rol r25
 4117 13b6 821B      		sub r24,r18
 4118 13b8 930B      		sbc r25,r19
 4119 13ba CF96      		adiw r24,63
 4120 13bc 8E17      		cp r24,r30
 4121 13be 9F07      		cpc r25,r31
 4122 13c0 04F0      		brlt .L398
 4123               	.LVL336:
 4124               	.L354:
 4125               	.LM566:
 4126 13c2 6C5F      		subi r22,lo8(-(4))
 4127 13c4 7F4F      		sbci r23,hi8(-(4))
 4128 13c6 AB01      		movw r20,r22
 4129 13c8 4350      		subi r20,lo8(-(-3))
 4130 13ca 5040      		sbci r21,hi8(-(-3))
 4131 13cc 440F      		lsl r20
 4132 13ce 551F      		rol r21
 4133 13d0 4295      		swap r20
 4134 13d2 5295      		swap r21
 4135 13d4 507F      		andi r21,0xf0
 4136 13d6 5427      		eor r21,r20
 4137 13d8 407F      		andi r20,0xf0
 4138 13da 5427      		eor r21,r20
 4139 13dc 81E0      		ldi r24,lo8(1)
 4140 13de 6295      		swap r22
 4141 13e0 7295      		swap r23
 4142 13e2 707F      		andi r23,0xf0
 4143 13e4 7627      		eor r23,r22
 4144 13e6 607F      		andi r22,0xf0
 4145 13e8 7627      		eor r23,r22
 4146 13ea 9F01      		movw r18,r30
 4147 13ec 0E94 0000 		call circle
 4148               	.LM567:
 4149 13f0 8091 0000 		lds r24,RX_in
 4150 13f4 9091 0000 		lds r25,(RX_in)+1
 4151 13f8 892B      		or r24,r25
 4152 13fa 01F0      		breq .L399
 4153 13fc 00C0      		rjmp .L378
 4154               	.LVL337:
 4155               	.L398:
 4156               	.LM568:
 4157 13fe CC20      		tst r12
 4158 1400 01F4      		brne .+2
 4159 1402 00C0      		rjmp .L355
 4160 1404 FD2C      		mov r15,r13
 4161               	.LVL338:
 4162 1406 10E0      		ldi r17,lo8(0)
 4163               	.LVL339:
 4164               	.L356:
 4165               	.LM569:
 4166 1408 81E0      		ldi r24,lo8(1)
 4167 140a 60E0      		ldi r22,lo8(0)
 4168 140c 4F2D      		mov r20,r15
 4169 140e 212F      		mov r18,r17
 4170 1410 00E0      		ldi r16,lo8(0)
 4171 1412 0E94 0000 		call line
 4172               	.LM570:
 4173 1416 2091 0000 		lds r18,display
 4174 141a 30E0      		ldi r19,lo8(0)
 4175 141c C901      		movw r24,r18
 4176 141e 8095      		com r24
 4177 1420 9095      		com r25
 4178 1422 880F      		lsl r24
 4179 1424 991F      		rol r25
 4180 1426 880F      		lsl r24
 4181 1428 991F      		rol r25
 4182 142a 880F      		lsl r24
 4183 142c 991F      		rol r25
 4184 142e F80E      		add r15,r24
 4185               	.LM571:
 4186 1430 2C5F      		subi r18,lo8(-(4))
 4187 1432 3F4F      		sbci r19,hi8(-(4))
 4188 1434 220F      		lsl r18
 4189 1436 331F      		rol r19
 4190 1438 220F      		lsl r18
 4191 143a 331F      		rol r19
 4192 143c 120F      		add r17,r18
 4193 143e 1C15      		cp r17,r12
 4194 1440 00F0      		brlo .L356
 4195 1442 10E0      		ldi r17,lo8(0)
 4196               	.LVL340:
 4197 1444 FF24      		clr r15
 4198               	.LVL341:
 4199               	.L357:
 4200               	.LM572:
 4201 1446 81E0      		ldi r24,lo8(1)
 4202 1448 612F      		mov r22,r17
 4203 144a 40E0      		ldi r20,lo8(0)
 4204 144c 2C2D      		mov r18,r12
 4205 144e 0F2D      		mov r16,r15
 4206 1450 0E94 0000 		call line
 4207               	.LM573:
 4208 1454 8091 0000 		lds r24,display
 4209 1458 90E0      		ldi r25,lo8(0)
 4210 145a 0196      		adiw r24,1
 4211 145c 9C01      		movw r18,r24
 4212 145e 220F      		lsl r18
 4213 1460 331F      		rol r19
 4214 1462 220F      		lsl r18
 4215 1464 331F      		rol r19
 4216 1466 220F      		lsl r18
 4217 1468 331F      		rol r19
 4218 146a F20E      		add r15,r18
 4219               	.LM574:
 4220 146c 0396      		adiw r24,3
 4221 146e 880F      		lsl r24
 4222 1470 991F      		rol r25
 4223 1472 880F      		lsl r24
 4224 1474 991F      		rol r25
 4225 1476 180F      		add r17,r24
 4226 1478 1C15      		cp r17,r12
 4227 147a 00F0      		brlo .L357
 4228 147c FD2C      		mov r15,r13
 4229               	.LVL342:
 4230 147e 10E0      		ldi r17,lo8(0)
 4231               	.LVL343:
 4232               	.L358:
 4233               	.LM575:
 4234 1480 81E0      		ldi r24,lo8(1)
 4235 1482 612F      		mov r22,r17
 4236 1484 4D2D      		mov r20,r13
 4237 1486 2C2D      		mov r18,r12
 4238 1488 0F2D      		mov r16,r15
 4239 148a 0E94 0000 		call line
 4240               	.LM576:
 4241 148e 2091 0000 		lds r18,display
 4242 1492 30E0      		ldi r19,lo8(0)
 4243 1494 C901      		movw r24,r18
 4244 1496 8095      		com r24
 4245 1498 9095      		com r25
 4246 149a 880F      		lsl r24
 4247 149c 991F      		rol r25
 4248 149e 880F      		lsl r24
 4249 14a0 991F      		rol r25
 4250 14a2 880F      		lsl r24
 4251 14a4 991F      		rol r25
 4252 14a6 F80E      		add r15,r24
 4253               	.LM577:
 4254 14a8 2C5F      		subi r18,lo8(-(4))
 4255 14aa 3F4F      		sbci r19,hi8(-(4))
 4256 14ac 220F      		lsl r18
 4257 14ae 331F      		rol r19
 4258 14b0 220F      		lsl r18
 4259 14b2 331F      		rol r19
 4260 14b4 120F      		add r17,r18
 4261 14b6 1C15      		cp r17,r12
 4262 14b8 00F0      		brlo .L358
 4263 14ba 10E0      		ldi r17,lo8(0)
 4264               	.LVL344:
 4265 14bc FF24      		clr r15
 4266               	.LVL345:
 4267               	.L359:
 4268               	.LM578:
 4269 14be 81E0      		ldi r24,lo8(1)
 4270 14c0 60E0      		ldi r22,lo8(0)
 4271 14c2 4F2D      		mov r20,r15
 4272 14c4 212F      		mov r18,r17
 4273 14c6 0D2D      		mov r16,r13
 4274 14c8 0E94 0000 		call line
 4275               	.LM579:
 4276 14cc A091 0000 		lds r26,display
 4277 14d0 8A2F      		mov r24,r26
 4278 14d2 90E0      		ldi r25,lo8(0)
 4279 14d4 0196      		adiw r24,1
 4280 14d6 9C01      		movw r18,r24
 4281 14d8 220F      		lsl r18
 4282 14da 331F      		rol r19
 4283 14dc 220F      		lsl r18
 4284 14de 331F      		rol r19
 4285 14e0 220F      		lsl r18
 4286 14e2 331F      		rol r19
 4287 14e4 F20E      		add r15,r18
 4288               	.LM580:
 4289 14e6 0396      		adiw r24,3
 4290 14e8 880F      		lsl r24
 4291 14ea 991F      		rol r25
 4292 14ec 880F      		lsl r24
 4293 14ee 991F      		rol r25
 4294 14f0 180F      		add r17,r24
 4295 14f2 1C15      		cp r17,r12
 4296 14f4 00F0      		brlo .L359
 4297               	.L355:
 4298               	.LM581:
 4299 14f6 6A2F      		mov r22,r26
 4300 14f8 70E0      		ldi r23,lo8(0)
 4301 14fa 15E0      		ldi r17,lo8(5)
 4302               	.LVL346:
 4303 14fc E5E0      		ldi r30,lo8(5)
 4304 14fe F0E0      		ldi r31,hi8(5)
 4305 1500 00C0      		rjmp .L360
 4306               	.L401:
 4307 1502 1B5F      		subi r17,lo8(-(5))
 4308 1504 A091 0000 		lds r26,display
 4309 1508 6A2F      		mov r22,r26
 4310 150a 70E0      		ldi r23,lo8(0)
 4311 150c E12F      		mov r30,r17
 4312 150e F0E0      		ldi r31,lo8(0)
 4313 1510 9B01      		movw r18,r22
 4314 1512 220F      		lsl r18
 4315 1514 331F      		rol r19
 4316 1516 220F      		lsl r18
 4317 1518 331F      		rol r19
 4318 151a 220F      		lsl r18
 4319 151c 331F      		rol r19
 4320 151e C901      		movw r24,r18
 4321 1520 880F      		lsl r24
 4322 1522 991F      		rol r25
 4323 1524 880F      		lsl r24
 4324 1526 991F      		rol r25
 4325 1528 880F      		lsl r24
 4326 152a 991F      		rol r25
 4327 152c 821B      		sub r24,r18
 4328 152e 930B      		sbc r25,r19
 4329 1530 CF96      		adiw r24,63
 4330 1532 8E17      		cp r24,r30
 4331 1534 9F07      		cpc r25,r31
 4332 1536 04F0      		brlt .L400
 4333               	.L360:
 4334               	.LM582:
 4335 1538 6C5F      		subi r22,lo8(-(4))
 4336 153a 7F4F      		sbci r23,hi8(-(4))
 4337 153c AB01      		movw r20,r22
 4338 153e 4350      		subi r20,lo8(-(-3))
 4339 1540 5040      		sbci r21,hi8(-(-3))
 4340 1542 440F      		lsl r20
 4341 1544 551F      		rol r21
 4342 1546 4295      		swap r20
 4343 1548 5295      		swap r21
 4344 154a 507F      		andi r21,0xf0
 4345 154c 5427      		eor r21,r20
 4346 154e 407F      		andi r20,0xf0
 4347 1550 5427      		eor r21,r20
 4348 1552 80E0      		ldi r24,lo8(0)
 4349 1554 6295      		swap r22
 4350 1556 7295      		swap r23
 4351 1558 707F      		andi r23,0xf0
 4352 155a 7627      		eor r23,r22
 4353 155c 607F      		andi r22,0xf0
 4354 155e 7627      		eor r23,r22
 4355 1560 9F01      		movw r18,r30
 4356 1562 0E94 0000 		call circle
 4357               	.LM583:
 4358 1566 8091 0000 		lds r24,RX_in
 4359 156a 9091 0000 		lds r25,(RX_in)+1
 4360 156e 892B      		or r24,r25
 4361 1570 01F0      		breq .L401
 4362 1572 00C0      		rjmp .L378
 4363               	.L400:
 4364               	.LM584:
 4365 1574 CC20      		tst r12
 4366 1576 01F4      		brne .+2
 4367 1578 00C0      		rjmp .L361
 4368 157a FD2C      		mov r15,r13
 4369               	.LVL347:
 4370 157c 10E0      		ldi r17,lo8(0)
 4371               	.LVL348:
 4372               	.L362:
 4373               	.LM585:
 4374 157e 80E0      		ldi r24,lo8(0)
 4375 1580 60E0      		ldi r22,lo8(0)
 4376 1582 4F2D      		mov r20,r15
 4377 1584 212F      		mov r18,r17
 4378 1586 00E0      		ldi r16,lo8(0)
 4379 1588 0E94 0000 		call line
 4380               	.LM586:
 4381 158c 2091 0000 		lds r18,display
 4382 1590 30E0      		ldi r19,lo8(0)
 4383 1592 C901      		movw r24,r18
 4384 1594 8095      		com r24
 4385 1596 9095      		com r25
 4386 1598 880F      		lsl r24
 4387 159a 991F      		rol r25
 4388 159c 880F      		lsl r24
 4389 159e 991F      		rol r25
 4390 15a0 880F      		lsl r24
 4391 15a2 991F      		rol r25
 4392 15a4 F80E      		add r15,r24
 4393               	.LM587:
 4394 15a6 2C5F      		subi r18,lo8(-(4))
 4395 15a8 3F4F      		sbci r19,hi8(-(4))
 4396 15aa 220F      		lsl r18
 4397 15ac 331F      		rol r19
 4398 15ae 220F      		lsl r18
 4399 15b0 331F      		rol r19
 4400 15b2 120F      		add r17,r18
 4401 15b4 1C15      		cp r17,r12
 4402 15b6 00F0      		brlo .L362
 4403 15b8 10E0      		ldi r17,lo8(0)
 4404               	.LVL349:
 4405 15ba FF24      		clr r15
 4406               	.LVL350:
 4407               	.L363:
 4408               	.LM588:
 4409 15bc 80E0      		ldi r24,lo8(0)
 4410 15be 612F      		mov r22,r17
 4411 15c0 40E0      		ldi r20,lo8(0)
 4412 15c2 2C2D      		mov r18,r12
 4413 15c4 0F2D      		mov r16,r15
 4414 15c6 0E94 0000 		call line
 4415               	.LM589:
 4416 15ca 8091 0000 		lds r24,display
 4417 15ce 90E0      		ldi r25,lo8(0)
 4418 15d0 0196      		adiw r24,1
 4419 15d2 9C01      		movw r18,r24
 4420 15d4 220F      		lsl r18
 4421 15d6 331F      		rol r19
 4422 15d8 220F      		lsl r18
 4423 15da 331F      		rol r19
 4424 15dc 220F      		lsl r18
 4425 15de 331F      		rol r19
 4426 15e0 F20E      		add r15,r18
 4427               	.LM590:
 4428 15e2 0396      		adiw r24,3
 4429 15e4 880F      		lsl r24
 4430 15e6 991F      		rol r25
 4431 15e8 880F      		lsl r24
 4432 15ea 991F      		rol r25
 4433 15ec 180F      		add r17,r24
 4434 15ee 1C15      		cp r17,r12
 4435 15f0 00F0      		brlo .L363
 4436 15f2 FD2C      		mov r15,r13
 4437               	.LVL351:
 4438 15f4 10E0      		ldi r17,lo8(0)
 4439               	.LVL352:
 4440               	.L364:
 4441               	.LM591:
 4442 15f6 80E0      		ldi r24,lo8(0)
 4443 15f8 612F      		mov r22,r17
 4444 15fa 4D2D      		mov r20,r13
 4445 15fc 2C2D      		mov r18,r12
 4446 15fe 0F2D      		mov r16,r15
 4447 1600 0E94 0000 		call line
 4448               	.LM592:
 4449 1604 2091 0000 		lds r18,display
 4450 1608 30E0      		ldi r19,lo8(0)
 4451 160a C901      		movw r24,r18
 4452 160c 8095      		com r24
 4453 160e 9095      		com r25
 4454 1610 880F      		lsl r24
 4455 1612 991F      		rol r25
 4456 1614 880F      		lsl r24
 4457 1616 991F      		rol r25
 4458 1618 880F      		lsl r24
 4459 161a 991F      		rol r25
 4460 161c F80E      		add r15,r24
 4461               	.LM593:
 4462 161e 2C5F      		subi r18,lo8(-(4))
 4463 1620 3F4F      		sbci r19,hi8(-(4))
 4464 1622 220F      		lsl r18
 4465 1624 331F      		rol r19
 4466 1626 220F      		lsl r18
 4467 1628 331F      		rol r19
 4468 162a 120F      		add r17,r18
 4469 162c 1C15      		cp r17,r12
 4470 162e 00F0      		brlo .L364
 4471 1630 10E0      		ldi r17,lo8(0)
 4472               	.LVL353:
 4473 1632 FF24      		clr r15
 4474               	.LVL354:
 4475               	.L365:
 4476               	.LM594:
 4477 1634 80E0      		ldi r24,lo8(0)
 4478 1636 60E0      		ldi r22,lo8(0)
 4479 1638 4F2D      		mov r20,r15
 4480 163a 212F      		mov r18,r17
 4481 163c 0D2D      		mov r16,r13
 4482 163e 0E94 0000 		call line
 4483               	.LM595:
 4484 1642 A091 0000 		lds r26,display
 4485 1646 8A2F      		mov r24,r26
 4486 1648 90E0      		ldi r25,lo8(0)
 4487 164a 0196      		adiw r24,1
 4488 164c 9C01      		movw r18,r24
 4489 164e 220F      		lsl r18
 4490 1650 331F      		rol r19
 4491 1652 220F      		lsl r18
 4492 1654 331F      		rol r19
 4493 1656 220F      		lsl r18
 4494 1658 331F      		rol r19
 4495 165a F20E      		add r15,r18
 4496               	.LM596:
 4497 165c 0396      		adiw r24,3
 4498 165e 880F      		lsl r24
 4499 1660 991F      		rol r25
 4500 1662 880F      		lsl r24
 4501 1664 991F      		rol r25
 4502 1666 180F      		add r17,r24
 4503 1668 1C15      		cp r17,r12
 4504 166a 00F0      		brlo .L365
 4505               	.L361:
 4506               	.LM597:
 4507 166c 8091 0000 		lds r24,RX_in
 4508 1670 9091 0000 		lds r25,(RX_in)+1
 4509 1674 892B      		or r24,r25
 4510 1676 01F0      		breq .+2
 4511 1678 00C0      		rjmp .L378
 4512               	.LM598:
 4513 167a FA2E      		mov r15,r26
 4514               	.LVL355:
 4515 167c F294      		swap r15
 4516 167e FF0C      		lsl r15
 4517 1680 FF0C      		lsl r15
 4518 1682 10EC      		ldi r17,lo8(-64)
 4519               	.LVL356:
 4520 1684 F122      		and r15,r17
 4521 1686 2FE2      		ldi r18,lo8(47)
 4522 1688 F20E      		add r15,r18
 4523 168a EE24      		clr r14
 4524               	.LVL357:
 4525               	.L366:
 4526 168c 1E2D      		mov r17,r14
 4527 168e 105F      		subi r17,lo8(-(16))
 4528               	.LM599:
 4529 1690 0F2D      		mov r16,r15
 4530 1692 005F      		subi r16,lo8(-(16))
 4531 1694 8E2D      		mov r24,r14
 4532 1696 6F2D      		mov r22,r15
 4533 1698 412F      		mov r20,r17
 4534 169a 202F      		mov r18,r16
 4535 169c 0E94 0000 		call erase_block
 4536               	.LM600:
 4537 16a0 8E2D      		mov r24,r14
 4538 16a2 6F2D      		mov r22,r15
 4539 16a4 412F      		mov r20,r17
 4540 16a6 202F      		mov r18,r16
 4541 16a8 0E94 0000 		call box
 4542               	.LM601:
 4543 16ac A091 0000 		lds r26,display
 4544 16b0 8A2F      		mov r24,r26
 4545 16b2 90E0      		ldi r25,lo8(0)
 4546 16b4 BC01      		movw r22,r24
 4547 16b6 660F      		lsl r22
 4548 16b8 771F      		rol r23
 4549 16ba 680F      		add r22,r24
 4550 16bc 791F      		adc r23,r25
 4551 16be F61A      		sub r15,r22
 4552 16c0 2CEF      		ldi r18,lo8(-4)
 4553 16c2 F20E      		add r15,r18
 4554               	.LM602:
 4555 16c4 2AE0      		ldi r18,lo8(10)
 4556 16c6 E20E      		add r14,r18
 4557 16c8 4E2D      		mov r20,r14
 4558 16ca 50E0      		ldi r21,lo8(0)
 4559               	.LVL358:
 4560 16cc 880F      		lsl r24
 4561 16ce 991F      		rol r25
 4562 16d0 880F      		lsl r24
 4563 16d2 991F      		rol r25
 4564 16d4 880F      		lsl r24
 4565 16d6 991F      		rol r25
 4566 16d8 9C01      		movw r18,r24
 4567 16da 220F      		lsl r18
 4568 16dc 331F      		rol r19
 4569 16de 220F      		lsl r18
 4570 16e0 331F      		rol r19
 4571 16e2 820F      		add r24,r18
 4572 16e4 931F      		adc r25,r19
 4573 16e6 8C59      		subi r24,lo8(-(100))
 4574 16e8 9F4F      		sbci r25,hi8(-(100))
 4575 16ea 8417      		cp r24,r20
 4576 16ec 9507      		cpc r25,r21
 4577 16ee 04F4      		brge .L366
 4578               	.LVL359:
 4579               	.LM603:
 4580 16f0 CB01      		movw r24,r22
 4581 16f2 880F      		lsl r24
 4582 16f4 991F      		rol r25
 4583 16f6 96E1      		ldi r25,lo8(22)
 4584 16f8 F92E      		mov r15,r25
 4585               	.LVL360:
 4586 16fa F80E      		add r15,r24
 4587 16fc C0E0      		ldi r28,lo8(logo)
 4588 16fe D0E0      		ldi r29,hi8(logo)
 4589               	.LVL361:
 4590               	.L375:
 4591               	.LM604:
 4592 1700 0881      		ld r16,Y
 4593               	.LVL362:
 4594               	.LM605:
 4595 1702 AB9D      		mul r26,r11
 4596 1704 C001      		movw r24,r0
 4597 1706 1124      		clr r1
 4598 1708 682F      		mov r22,r24
 4599 170a 182F      		mov r17,r24
 4600               	.LVL363:
 4601 170c 1C59      		subi r17,lo8(-(100))
 4602 170e 8559      		subi r24,lo8(-(107))
 4603 1710 9F4F      		sbci r25,hi8(-(107))
 4604 1712 212F      		mov r18,r17
 4605 1714 30E0      		ldi r19,lo8(0)
 4606               	.LVL364:
 4607 1716 8217      		cp r24,r18
 4608 1718 9307      		cpc r25,r19
 4609 171a 04F4      		brge .L392
 4610               	.LVL365:
 4611 171c 00C0      		rjmp .L367
 4612               	.LVL366:
 4613               	.L368:
 4614 171e 1F5F      		subi r17,lo8(-(1))
 4615 1720 AB9D      		mul r26,r11
 4616 1722 A001      		movw r20,r0
 4617 1724 1124      		clr r1
 4618 1726 9A01      		movw r18,r20
 4619 1728 2559      		subi r18,lo8(-(107))
 4620 172a 3F4F      		sbci r19,hi8(-(107))
 4621 172c 812F      		mov r24,r17
 4622 172e 90E0      		ldi r25,lo8(0)
 4623               	.LVL367:
 4624 1730 2817      		cp r18,r24
 4625 1732 3907      		cpc r19,r25
 4626 1734 04F0      		brlt .L369
 4627               	.LVL368:
 4628               	.LM606:
 4629 1736 000F      		lsl r16
 4630               	.LVL369:
 4631               	.L392:
 4632               	.LM607:
 4633 1738 07FF      		sbrs r16,7
 4634 173a 00C0      		rjmp .L368
 4635 173c 81E0      		ldi r24,lo8(1)
 4636 173e 612F      		mov r22,r17
 4637 1740 4F2D      		mov r20,r15
 4638 1742 0E94 0000 		call pixel
 4639               	.LVL370:
 4640 1746 A091 0000 		lds r26,display
 4641 174a 00C0      		rjmp .L368
 4642               	.LVL371:
 4643               	.L369:
 4644               	.LM608:
 4645 174c 642F      		mov r22,r20
 4646               	.LVL372:
 4647               	.L367:
 4648               	.LM609:
 4649 174e 0981      		ldd r16,Y+1
 4650               	.LVL373:
 4651               	.LM610:
 4652 1750 162F      		mov r17,r22
 4653               	.LVL374:
 4654 1752 1459      		subi r17,lo8(-(108))
 4655 1754 AB9D      		mul r26,r11
 4656 1756 C001      		movw r24,r0
 4657 1758 1124      		clr r1
 4658 175a 8D58      		subi r24,lo8(-(115))
 4659 175c 9F4F      		sbci r25,hi8(-(115))
 4660 175e 212F      		mov r18,r17
 4661 1760 30E0      		ldi r19,lo8(0)
 4662               	.LVL375:
 4663 1762 8217      		cp r24,r18
 4664 1764 9307      		cpc r25,r19
 4665 1766 04F4      		brge .L393
 4666               	.LVL376:
 4667 1768 00C0      		rjmp .L371
 4668               	.LVL377:
 4669               	.L372:
 4670 176a 1F5F      		subi r17,lo8(-(1))
 4671 176c AB9D      		mul r26,r11
 4672 176e C001      		movw r24,r0
 4673 1770 1124      		clr r1
 4674 1772 8D58      		subi r24,lo8(-(115))
 4675 1774 9F4F      		sbci r25,hi8(-(115))
 4676 1776 212F      		mov r18,r17
 4677 1778 30E0      		ldi r19,lo8(0)
 4678               	.LVL378:
 4679 177a 8217      		cp r24,r18
 4680 177c 9307      		cpc r25,r19
 4681 177e 04F0      		brlt .L371
 4682               	.LVL379:
 4683               	.LM611:
 4684 1780 000F      		lsl r16
 4685               	.L393:
 4686               	.LM612:
 4687 1782 07FF      		sbrs r16,7
 4688 1784 00C0      		rjmp .L372
 4689 1786 81E0      		ldi r24,lo8(1)
 4690 1788 612F      		mov r22,r17
 4691 178a 4F2D      		mov r20,r15
 4692 178c 0E94 0000 		call pixel
 4693               	.LVL380:
 4694 1790 A091 0000 		lds r26,display
 4695 1794 00C0      		rjmp .L372
 4696               	.LVL381:
 4697               	.L371:
 4698               	.LM613:
 4699 1796 2296      		adiw r28,2
 4700               	.LM614:
 4701 1798 80E0      		ldi r24,hi8(logo+30)
 4702 179a C030      		cpi r28,lo8(logo+30)
 4703 179c D807      		cpc r29,r24
 4704 179e 01F0      		breq .L374
 4705               	.LM615:
 4706 17a0 FA94      		dec r15
 4707 17a2 00C0      		rjmp .L375
 4708               	.L374:
 4709               	.LM616:
 4710 17a4 AA23      		tst r26
 4711 17a6 01F4      		brne .L376
 4712 17a8 80E0      		ldi r24,lo8(0)
 4713 17aa 60E0      		ldi r22,lo8(0)
 4714 17ac 40E0      		ldi r20,lo8(0)
 4715 17ae 0E94 0000 		call pixel
 4716               	.LVL382:
 4717               	.L376:
 4718               	.LM617:
 4719 17b2 88EE      		ldi r24,lo8(1000)
 4720 17b4 93E0      		ldi r25,hi8(1000)
 4721 17b6 0E94 0000 		call delay_ms
 4722               	.LVL383:
 4723               	.LM618:
 4724 17ba 8091 0000 		lds r24,reverse
 4725 17be 91E0      		ldi r25,lo8(1)
 4726 17c0 8927      		eor r24,r25
 4727 17c2 8093 0000 		sts reverse,r24
 4728               	.LM619:
 4729 17c6 0E94 0000 		call clear_screen
 4730 17ca 00C0      		rjmp .L377
 4731               	.LFE29:
 4733               	.global	main
 4735               	main:
 4736               	.LFB6:
 4737               	.LM620:
 4738 17cc 7F92      		push r7
 4739 17ce 8F92      		push r8
 4740 17d0 9F92      		push r9
 4741 17d2 AF92      		push r10
 4742 17d4 BF92      		push r11
 4743 17d6 CF92      		push r12
 4744 17d8 DF92      		push r13
 4745 17da EF92      		push r14
 4746 17dc FF92      		push r15
 4747 17de 0F93      		push r16
 4748 17e0 1F93      		push r17
 4749 17e2 CF93      		push r28
 4750 17e4 DF93      		push r29
 4751               	/* prologue: function */
 4752               	/* frame size = 0 */
 4753               	.LM621:
 4754 17e6 2B9A      		sbi 37-32,3
 4755 17e8 80E0      		ldi r24,lo8(0)
 4756               	.LVL384:
 4757               	.L403:
 4758               	.LBB291:
 4759               	.LBB292:
 4760               	.LM622:
 4761               	/* #APP */
 4762               	 ;  786 "main.c" 1
 4763 17ea 0000      		nop
 4764               	 ;  0 "" 2
 4765               	.LM623:
 4766               	/* #NOAPP */
 4767 17ec 8F5F      		subi r24,lo8(-(1))
 4768 17ee 8E31      		cpi r24,lo8(30)
 4769 17f0 01F4      		brne .L403
 4770               	.LBE292:
 4771               	.LBE291:
 4772               	.LM624:
 4773 17f2 1B9B      		sbis 35-32,3
 4774 17f4 00C0      		rjmp .L404
 4775 17f6 81E0      		ldi r24,lo8(1)
 4776               	.LVL385:
 4777 17f8 8093 0000 		sts display,r24
 4778               	.LVL386:
 4779               	.L405:
 4780               	.LM625:
 4781 17fc 0E94 0000 		call ioinit
 4782               	.LVL387:
 4783               	.LM626:
 4784 1800 86E0      		ldi r24,lo8(6)
 4785 1802 0E94 0000 		call set_baud
 4786               	.LM627:
 4787 1806 80E0      		ldi r24,lo8(gs(put_char))
 4788 1808 90E0      		ldi r25,hi8(gs(put_char))
 4789 180a 0E94 0000 		call rprintf_devopen
 4790               	.L406:
 4791               	.LBB293:
 4792               	.LBB294:
 4793               	.LM628:
 4794 180e F999      		sbic 63-32,1
 4795 1810 00C0      		rjmp .L406
 4796               	.LM629:
 4797 1812 12BC      		out (65)+1-32,__zero_reg__
 4798 1814 11BC      		out 65-32,__zero_reg__
 4799               	.LM630:
 4800 1816 F89A      		sbi 63-32,0
 4801               	.LM631:
 4802 1818 90B5      		in r25,64-32
 4803               	.LVL388:
 4804               	.LBE294:
 4805               	.LBE293:
 4806               	.LM632:
 4807 181a 892F      		mov r24,r25
 4808 181c 8150      		subi r24,lo8(-(-1))
 4809 181e 8630      		cpi r24,lo8(6)
 4810 1820 00F0      		brlo .L407
 4811               	.LM633:
 4812               	/* #APP */
 4813               	 ;  284 "main.c" 1
 4814 1822 F894      		cli
 4815               	 ;  0 "" 2
 4816               	/* #NOAPP */
 4817               	.L408:
 4818               	.LBB295:
 4819               	.LBB296:
 4820               	.LM634:
 4821 1824 F999      		sbic 63-32,1
 4822 1826 00C0      		rjmp .L408
 4823               	.LM635:
 4824 1828 12BC      		out (65)+1-32,__zero_reg__
 4825 182a 11BC      		out 65-32,__zero_reg__
 4826               	.LM636:
 4827 182c 86E0      		ldi r24,lo8(6)
 4828 182e 80BD      		out 64-32,r24
 4829               	.LM637:
 4830 1830 FA9A      		sbi 63-32,2
 4831               	.LM638:
 4832 1832 F99A      		sbi 63-32,1
 4833               	.L409:
 4834               	.LBE296:
 4835               	.LBE295:
 4836               	.LBB297:
 4837               	.LBB298:
 4838               	.LM639:
 4839 1834 F999      		sbic 63-32,1
 4840 1836 00C0      		rjmp .L409
 4841               	.LM640:
 4842 1838 81E0      		ldi r24,lo8(1)
 4843 183a 90E0      		ldi r25,hi8(1)
 4844 183c 92BD      		out (65)+1-32,r25
 4845 183e 81BD      		out 65-32,r24
 4846               	.LM641:
 4847 1840 84E6      		ldi r24,lo8(100)
 4848 1842 80BD      		out 64-32,r24
 4849               	.LM642:
 4850 1844 FA9A      		sbi 63-32,2
 4851               	.LM643:
 4852 1846 F99A      		sbi 63-32,1
 4853               	.L410:
 4854               	.LBE298:
 4855               	.LBE297:
 4856               	.LBB299:
 4857               	.LBB300:
 4858               	.LM644:
 4859 1848 F999      		sbic 63-32,1
 4860 184a 00C0      		rjmp .L410
 4861               	.LM645:
 4862 184c 82E0      		ldi r24,lo8(2)
 4863 184e 90E0      		ldi r25,hi8(2)
 4864 1850 92BD      		out (65)+1-32,r25
 4865 1852 81BD      		out 65-32,r24
 4866               	.LM646:
 4867 1854 81E0      		ldi r24,lo8(1)
 4868 1856 80BD      		out 64-32,r24
 4869               	.LM647:
 4870 1858 FA9A      		sbi 63-32,2
 4871               	.LM648:
 4872 185a F99A      		sbi 63-32,1
 4873               	.L411:
 4874               	.LBE300:
 4875               	.LBE299:
 4876               	.LBB301:
 4877               	.LBB302:
 4878               	.LM649:
 4879 185c F999      		sbic 63-32,1
 4880 185e 00C0      		rjmp .L411
 4881               	.LM650:
 4882 1860 83E0      		ldi r24,lo8(3)
 4883 1862 90E0      		ldi r25,hi8(3)
 4884 1864 92BD      		out (65)+1-32,r25
 4885 1866 81BD      		out 65-32,r24
 4886               	.LM651:
 4887 1868 10BC      		out 64-32,__zero_reg__
 4888               	.LM652:
 4889 186a FA9A      		sbi 63-32,2
 4890               	.LM653:
 4891 186c F99A      		sbi 63-32,1
 4892               	.LBE302:
 4893               	.LBE301:
 4894               	.LM654:
 4895               	/* #APP */
 4896               	 ;  291 "main.c" 1
 4897 186e 7894      		sei
 4898               	 ;  0 "" 2
 4899               	.LM655:
 4900               	/* #NOAPP */
 4901 1870 84E6      		ldi r24,lo8(100)
 4902 1872 8093 0000 		sts BL_dutycycle,r24
 4903               	.LM656:
 4904 1876 86E0      		ldi r24,lo8(6)
 4905 1878 8093 0000 		sts baud_rate,r24
 4906               	.LM657:
 4907 187c 81E0      		ldi r24,lo8(1)
 4908 187e 8093 0000 		sts splash_screen,r24
 4909               	.LM658:
 4910 1882 1092 0000 		sts reverse,__zero_reg__
 4911 1886 00C0      		rjmp .L412
 4912               	.LVL389:
 4913               	.L404:
 4914               	.LM659:
 4915 1888 1092 0000 		sts display,__zero_reg__
 4916 188c 00C0      		rjmp .L405
 4917               	.LVL390:
 4918               	.L407:
 4919               	.LM660:
 4920 188e 9093 0000 		sts baud_rate,r25
 4921               	.L413:
 4922               	.LBB303:
 4923               	.LBB304:
 4924               	.LM661:
 4925 1892 F999      		sbic 63-32,1
 4926 1894 00C0      		rjmp .L413
 4927               	.LM662:
 4928 1896 81E0      		ldi r24,lo8(1)
 4929 1898 90E0      		ldi r25,hi8(1)
 4930 189a 92BD      		out (65)+1-32,r25
 4931 189c 81BD      		out 65-32,r24
 4932               	.LM663:
 4933 189e F89A      		sbi 63-32,0
 4934               	.LM664:
 4935 18a0 80B5      		in r24,64-32
 4936               	.LBE304:
 4937               	.LBE303:
 4938               	.LM665:
 4939 18a2 8093 0000 		sts BL_dutycycle,r24
 4940               	.L414:
 4941               	.LBB305:
 4942               	.LBB306:
 4943               	.LM666:
 4944 18a6 F999      		sbic 63-32,1
 4945 18a8 00C0      		rjmp .L414
 4946               	.LM667:
 4947 18aa 82E0      		ldi r24,lo8(2)
 4948 18ac 90E0      		ldi r25,hi8(2)
 4949 18ae 92BD      		out (65)+1-32,r25
 4950 18b0 81BD      		out 65-32,r24
 4951               	.LM668:
 4952 18b2 F89A      		sbi 63-32,0
 4953               	.LM669:
 4954 18b4 80B5      		in r24,64-32
 4955               	.LBE306:
 4956               	.LBE305:
 4957               	.LM670:
 4958 18b6 8093 0000 		sts splash_screen,r24
 4959               	.L415:
 4960               	.LBB307:
 4961               	.LBB308:
 4962               	.LM671:
 4963 18ba F999      		sbic 63-32,1
 4964 18bc 00C0      		rjmp .L415
 4965               	.LM672:
 4966 18be 83E0      		ldi r24,lo8(3)
 4967 18c0 90E0      		ldi r25,hi8(3)
 4968 18c2 92BD      		out (65)+1-32,r25
 4969 18c4 81BD      		out 65-32,r24
 4970               	.LM673:
 4971 18c6 F89A      		sbi 63-32,0
 4972               	.LM674:
 4973 18c8 80B5      		in r24,64-32
 4974               	.LBE308:
 4975               	.LBE307:
 4976               	.LM675:
 4977 18ca 8093 0000 		sts reverse,r24
 4978               	.L412:
 4979               	.LM676:
 4980 18ce 8091 0000 		lds r24,display
 4981 18d2 8823      		tst r24
 4982 18d4 01F4      		brne .+2
 4983 18d6 00C0      		rjmp .L537
 4984               	.LM677:
 4985 18d8 8130      		cpi r24,lo8(1)
 4986 18da 01F4      		brne .L421
 4987               	.LM678:
 4988 18dc 4598      		cbi 40-32,5
 4989               	.LM679:
 4990 18de 82E3      		ldi r24,lo8(50)
 4991 18e0 90E0      		ldi r25,hi8(50)
 4992 18e2 0E94 0000 		call delay_ms
 4993               	.LVL391:
 4994               	.LM680:
 4995 18e6 459A      		sbi 40-32,5
 4996               	.LM681:
 4997 18e8 0E94 0000 		call display_init
 4998               	.LM682:
 4999 18ec 0E94 0000 		call clear_screen
 5000               	.LVL392:
 5001               	.L421:
 5002               	.LM683:
 5003 18f0 8091 0000 		lds r24,BL_dutycycle
 5004 18f4 0E94 0000 		call set_backlight
 5005               	.LVL393:
 5006               	.LM684:
 5007 18f8 84EF      		ldi r24,lo8(500)
 5008 18fa 91E0      		ldi r25,hi8(500)
 5009 18fc 0E94 0000 		call delay_ms
 5010               	.LM685:
 5011 1900 8091 0000 		lds r24,splash_screen
 5012 1904 8130      		cpi r24,lo8(1)
 5013 1906 01F4      		brne .+2
 5014 1908 00C0      		rjmp .L538
 5015               	.LVL394:
 5016               	.L422:
 5017               	.LM686:
 5018 190a 8091 0000 		lds r24,display
 5019 190e 8823      		tst r24
 5020 1910 01F4      		brne .L432
 5021 1912 60E0      		ldi r22,lo8(0)
 5022 1914 40E0      		ldi r20,lo8(0)
 5023 1916 0E94 0000 		call pixel
 5024               	.LVL395:
 5025               	.L432:
 5026               	.LM687:
 5027 191a 1092 0000 		sts (RX_in)+1,__zero_reg__
 5028 191e 1092 0000 		sts RX_in,__zero_reg__
 5029               	.LM688:
 5030 1922 88EE      		ldi r24,lo8(1000)
 5031 1924 93E0      		ldi r25,hi8(1000)
 5032 1926 0E94 0000 		call delay_ms
 5033               	.LVL396:
 5034               	.LM689:
 5035 192a 0E94 0000 		call clear_screen
 5036               	.LM690:
 5037 192e 8091 0000 		lds r24,RX_in
 5038 1932 9091 0000 		lds r25,(RX_in)+1
 5039 1936 892B      		or r24,r25
 5040 1938 01F4      		brne .+2
 5041 193a 00C0      		rjmp .L433
 5042               	.LM691:
 5043 193c 81E0      		ldi r24,lo8(1)
 5044 193e 61E3      		ldi r22,lo8(49)
 5045 1940 0E94 0000 		call print_char
 5046               	.LM692:
 5047 1944 81E0      		ldi r24,lo8(1)
 5048 1946 61E3      		ldi r22,lo8(49)
 5049 1948 0E94 0000 		call print_char
 5050               	.LM693:
 5051 194c 81E0      		ldi r24,lo8(1)
 5052 194e 65E3      		ldi r22,lo8(53)
 5053 1950 0E94 0000 		call print_char
 5054               	.LM694:
 5055 1954 81E0      		ldi r24,lo8(1)
 5056 1956 62E3      		ldi r22,lo8(50)
 5057 1958 0E94 0000 		call print_char
 5058               	.LM695:
 5059 195c 81E0      		ldi r24,lo8(1)
 5060 195e 60E3      		ldi r22,lo8(48)
 5061 1960 0E94 0000 		call print_char
 5062               	.LM696:
 5063 1964 81E0      		ldi r24,lo8(1)
 5064 1966 60E3      		ldi r22,lo8(48)
 5065 1968 0E94 0000 		call print_char
 5066               	.LM697:
 5067 196c 86E0      		ldi r24,lo8(6)
 5068 196e 8093 0000 		sts baud_rate,r24
 5069               	.LM698:
 5070 1972 0E94 0000 		call set_baud
 5071               	.LM699:
 5072               	/* #APP */
 5073               	 ;  414 "main.c" 1
 5074 1976 F894      		cli
 5075               	 ;  0 "" 2
 5076               	/* #NOAPP */
 5077               	.L434:
 5078               	.LBB309:
 5079               	.LBB310:
 5080               	.LM700:
 5081 1978 F999      		sbic 63-32,1
 5082 197a 00C0      		rjmp .L434
 5083               	.LM701:
 5084 197c 12BC      		out (65)+1-32,__zero_reg__
 5085 197e 11BC      		out 65-32,__zero_reg__
 5086               	.LM702:
 5087 1980 86E0      		ldi r24,lo8(6)
 5088 1982 80BD      		out 64-32,r24
 5089               	.LM703:
 5090 1984 FA9A      		sbi 63-32,2
 5091               	.LM704:
 5092 1986 F99A      		sbi 63-32,1
 5093               	.LBE310:
 5094               	.LBE309:
 5095               	.LM705:
 5096               	/* #APP */
 5097               	 ;  418 "main.c" 1
 5098 1988 7894      		sei
 5099               	 ;  0 "" 2
 5100               	/* #NOAPP */
 5101               	.L435:
 5102               	.LM706:
 5103 198a 88EE      		ldi r24,lo8(1000)
 5104 198c 93E0      		ldi r25,hi8(1000)
 5105 198e 0E94 0000 		call delay_ms
 5106               	.LM707:
 5107 1992 0E94 0000 		call clear_screen
 5108 1996 2091 0000 		lds r18,RX_read
 5109 199a 3091 0000 		lds r19,(RX_read)+1
 5110               	.LM708:
 5111 199e BFE7      		ldi r27,lo8(127)
 5112 19a0 FB2E      		mov r15,r27
 5113               	.LVL397:
 5114               	.LM709:
 5115 19a2 AFE9      		ldi r26,lo8(-97)
 5116 19a4 EA2E      		mov r14,r26
 5117               	.LVL398:
 5118               	.LM710:
 5119 19a6 C1E0      		ldi r28,lo8(1)
 5120 19a8 D0E0      		ldi r29,hi8(1)
 5121               	.LBB311:
 5122               	.LBB312:
 5123               	.LM711:
 5124 19aa F2E0      		ldi r31,lo8(2)
 5125 19ac CF2E      		mov r12,r31
 5126 19ae D12C      		mov r13,__zero_reg__
 5127               	.LBE312:
 5128               	.LBE311:
 5129               	.LBB314:
 5130               	.LBB315:
 5131 19b0 E3E0      		ldi r30,lo8(3)
 5132 19b2 AE2E      		mov r10,r30
 5133 19b4 B12C      		mov r11,__zero_reg__
 5134               	.LVL399:
 5135               	.L527:
 5136               	.LBE315:
 5137               	.LBE314:
 5138               	.LM712:
 5139 19b6 8091 0000 		lds r24,RX_in
 5140 19ba 9091 0000 		lds r25,(RX_in)+1
 5141 19be 8217      		cp r24,r18
 5142 19c0 9307      		cpc r25,r19
 5143 19c2 01F0      		breq .L527
 5144               	.LM713:
 5145 19c4 81E0      		ldi r24,hi8(409)
 5146 19c6 2939      		cpi r18,lo8(409)
 5147 19c8 3807      		cpc r19,r24
 5148 19ca 00F4      		brsh .+2
 5149 19cc 00C0      		rjmp .L437
 5150 19ce F901      		movw r30,r18
 5151 19d0 E050      		subi r30,lo8(-(RX_array))
 5152 19d2 F040      		sbci r31,hi8(-(RX_array))
 5153 19d4 0081      		ld r16,Z
 5154 19d6 0C37      		cpi r16,lo8(124)
 5155 19d8 01F4      		brne .+2
 5156 19da 00C0      		rjmp .L539
 5157               	.L438:
 5158               	.LM714:
 5159 19dc C901      		movw r24,r18
 5160 19de 0196      		adiw r24,1
 5161 19e0 9093 0000 		sts (RX_read)+1,r25
 5162 19e4 8093 0000 		sts RX_read,r24
 5163               	.LM715:
 5164 19e8 805A      		subi r24,lo8(416)
 5165 19ea 9140      		sbci r25,hi8(416)
 5166 19ec 00F0      		brlo .L439
 5167 19ee 1092 0000 		sts (RX_read)+1,__zero_reg__
 5168 19f2 1092 0000 		sts RX_read,__zero_reg__
 5169               	.L439:
 5170               	.LM716:
 5171 19f6 0830      		cpi r16,lo8(8)
 5172 19f8 01F4      		brne .+2
 5173 19fa 00C0      		rjmp .L540
 5174               	.LM717:
 5175 19fc 0C37      		cpi r16,lo8(124)
 5176 19fe 01F4      		brne .+2
 5177 1a00 00C0      		rjmp .L541
 5178               	.LM718:
 5179 1a02 81E0      		ldi r24,lo8(1)
 5180 1a04 0E94 0000 		call del_char
 5181               	.LM719:
 5182 1a08 81E0      		ldi r24,lo8(1)
 5183 1a0a 602F      		mov r22,r16
 5184 1a0c 0E94 0000 		call print_char
 5185               	.L531:
 5186 1a10 2091 0000 		lds r18,RX_read
 5187 1a14 3091 0000 		lds r19,(RX_read)+1
 5188 1a18 00C0      		rjmp .L527
 5189               	.LVL400:
 5190               	.L538:
 5191               	.LM720:
 5192 1a1a 8091 0000 		lds r24,display
 5193 1a1e 8130      		cpi r24,lo8(1)
 5194 1a20 01F4      		brne .+2
 5195 1a22 00C0      		rjmp .L542
 5196 1a24 48E3      		ldi r20,lo8(56)
 5197 1a26 E42E      		mov r14,r20
 5198               	.LVL401:
 5199 1a28 38E2      		ldi r19,lo8(40)
 5200 1a2a F32E      		mov r15,r19
 5201               	.LVL402:
 5202 1a2c 88E3      		ldi r24,lo8(56)
 5203 1a2e 90E0      		ldi r25,hi8(56)
 5204 1a30 2FE3      		ldi r18,lo8(63)
 5205 1a32 C22E      		mov r12,r18
 5206 1a34 D12C      		mov r13,__zero_reg__
 5207               	.L424:
 5208 1a36 C0E0      		ldi r28,lo8(logo)
 5209 1a38 D0E0      		ldi r29,hi8(logo)
 5210 1a3a 08E0      		ldi r16,lo8(8)
 5211 1a3c 702E      		mov r7,r16
 5212               	.LVL403:
 5213 1a3e 7E0C      		add r7,r14
 5214 1a40 1FE0      		ldi r17,lo8(15)
 5215 1a42 A12E      		mov r10,r17
 5216 1a44 B12C      		mov r11,__zero_reg__
 5217 1a46 A80E      		add r10,r24
 5218 1a48 B91E      		adc r11,r25
 5219               	.LM721:
 5220 1a4a 872C      		mov r8,r7
 5221 1a4c 9924      		clr r9
 5222               	.LVL404:
 5223               	.L431:
 5224               	.LM722:
 5225 1a4e 1881      		ld r17,Y
 5226               	.LVL405:
 5227 1a50 0E2D      		mov r16,r14
 5228               	.LVL406:
 5229 1a52 00C0      		rjmp .L427
 5230               	.LVL407:
 5231               	.L425:
 5232               	.LM723:
 5233 1a54 0F5F      		subi r16,lo8(-(1))
 5234 1a56 802F      		mov r24,r16
 5235 1a58 90E0      		ldi r25,lo8(0)
 5236               	.LVL408:
 5237 1a5a C816      		cp r12,r24
 5238 1a5c D906      		cpc r13,r25
 5239 1a5e 04F0      		brlt .L426
 5240               	.LVL409:
 5241               	.LM724:
 5242 1a60 110F      		lsl r17
 5243               	.LVL410:
 5244               	.L427:
 5245               	.LM725:
 5246 1a62 17FF      		sbrs r17,7
 5247 1a64 00C0      		rjmp .L425
 5248 1a66 81E0      		ldi r24,lo8(1)
 5249 1a68 602F      		mov r22,r16
 5250 1a6a 4F2D      		mov r20,r15
 5251 1a6c 0E94 0000 		call pixel
 5252               	.LVL411:
 5253 1a70 00C0      		rjmp .L425
 5254               	.LVL412:
 5255               	.L426:
 5256               	.LM726:
 5257 1a72 1981      		ldd r17,Y+1
 5258               	.LVL413:
 5259               	.LM727:
 5260 1a74 072D      		mov r16,r7
 5261 1a76 A814      		cp r10,r8
 5262 1a78 B904      		cpc r11,r9
 5263 1a7a 04F4      		brge .L528
 5264               	.LVL414:
 5265 1a7c 00C0      		rjmp .L428
 5266               	.L429:
 5267 1a7e 0F5F      		subi r16,lo8(-(1))
 5268               	.LVL415:
 5269 1a80 802F      		mov r24,r16
 5270 1a82 90E0      		ldi r25,lo8(0)
 5271               	.LVL416:
 5272 1a84 A816      		cp r10,r24
 5273 1a86 B906      		cpc r11,r25
 5274 1a88 04F0      		brlt .L428
 5275               	.LVL417:
 5276               	.LM728:
 5277 1a8a 110F      		lsl r17
 5278               	.LVL418:
 5279               	.L528:
 5280               	.LM729:
 5281 1a8c 17FF      		sbrs r17,7
 5282 1a8e 00C0      		rjmp .L429
 5283               	.LVL419:
 5284 1a90 81E0      		ldi r24,lo8(1)
 5285 1a92 602F      		mov r22,r16
 5286 1a94 4F2D      		mov r20,r15
 5287 1a96 0E94 0000 		call pixel
 5288               	.LVL420:
 5289 1a9a 00C0      		rjmp .L429
 5290               	.LVL421:
 5291               	.L428:
 5292               	.LM730:
 5293 1a9c 2296      		adiw r28,2
 5294               	.LM731:
 5295 1a9e 20E0      		ldi r18,hi8(logo+30)
 5296 1aa0 C030      		cpi r28,lo8(logo+30)
 5297 1aa2 D207      		cpc r29,r18
 5298 1aa4 01F4      		brne .+2
 5299 1aa6 00C0      		rjmp .L422
 5300               	.LM732:
 5301 1aa8 FA94      		dec r15
 5302 1aaa 00C0      		rjmp .L431
 5303               	.LVL422:
 5304               	.L542:
 5305               	.LM733:
 5306 1aac 78E4      		ldi r23,lo8(72)
 5307 1aae E72E      		mov r14,r23
 5308               	.LVL423:
 5309 1ab0 68E4      		ldi r22,lo8(72)
 5310 1ab2 F62E      		mov r15,r22
 5311               	.LVL424:
 5312 1ab4 88E4      		ldi r24,lo8(72)
 5313 1ab6 90E0      		ldi r25,hi8(72)
 5314 1ab8 5FE4      		ldi r21,lo8(79)
 5315 1aba C52E      		mov r12,r21
 5316 1abc D12C      		mov r13,__zero_reg__
 5317 1abe 00C0      		rjmp .L424
 5318               	.LVL425:
 5319               	.L437:
 5320               	.LM734:
 5321 1ac0 F901      		movw r30,r18
 5322 1ac2 E050      		subi r30,lo8(-(RX_array))
 5323 1ac4 F040      		sbci r31,hi8(-(RX_array))
 5324 1ac6 0081      		ld r16,Z
 5325 1ac8 00C0      		rjmp .L438
 5326               	.L541:
 5327               	.LM735:
 5328 1aca 2091 0000 		lds r18,RX_read
 5329 1ace 3091 0000 		lds r19,(RX_read)+1
 5330 1ad2 A901      		movw r20,r18
 5331               	.L443:
 5332 1ad4 8091 0000 		lds r24,RX_in
 5333 1ad8 9091 0000 		lds r25,(RX_in)+1
 5334 1adc 8217      		cp r24,r18
 5335 1ade 9307      		cpc r25,r19
 5336 1ae0 01F0      		breq .L443
 5337               	.LM736:
 5338 1ae2 F901      		movw r30,r18
 5339 1ae4 E050      		subi r30,lo8(-(RX_array))
 5340 1ae6 F040      		sbci r31,hi8(-(RX_array))
 5341 1ae8 E081      		ld r30,Z
 5342 1aea EE23      		tst r30
 5343 1aec 01F4      		brne .+2
 5344 1aee 00C0      		rjmp .L543
 5345               	.LM737:
 5346 1af0 E430      		cpi r30,lo8(4)
 5347 1af2 01F4      		brne .+2
 5348 1af4 00C0      		rjmp .L544
 5349               	.LM738:
 5350 1af6 E231      		cpi r30,lo8(18)
 5351 1af8 01F4      		brne .+2
 5352 1afa 00C0      		rjmp .L545
 5353               	.LM739:
 5354 1afc E331      		cpi r30,lo8(19)
 5355 1afe 01F4      		brne .+2
 5356 1b00 00C0      		rjmp .L546
 5357               	.LM740:
 5358 1b02 E230      		cpi r30,lo8(2)
 5359 1b04 01F4      		brne .+2
 5360 1b06 00C0      		rjmp .L547
 5361               	.LM741:
 5362 1b08 E730      		cpi r30,lo8(7)
 5363 1b0a 01F4      		brne .+2
 5364 1b0c 00C0      		rjmp .L548
 5365               	.LM742:
 5366 1b0e 8E2F      		mov r24,r30
 5367 1b10 8851      		subi r24,lo8(-(-24))
 5368 1b12 8230      		cpi r24,lo8(2)
 5369 1b14 00F4      		brsh .+2
 5370 1b16 00C0      		rjmp .L549
 5371               	.LM743:
 5372 1b18 E031      		cpi r30,lo8(16)
 5373 1b1a 01F4      		brne .+2
 5374 1b1c 00C0      		rjmp .L550
 5375               	.LM744:
 5376 1b1e E330      		cpi r30,lo8(3)
 5377 1b20 01F4      		brne .+2
 5378 1b22 00C0      		rjmp .L551
 5379               	.LM745:
 5380 1b24 E530      		cpi r30,lo8(5)
 5381 1b26 01F4      		brne .+2
 5382 1b28 00C0      		rjmp .L552
 5383               	.LM746:
 5384 1b2a EF30      		cpi r30,lo8(15)
 5385 1b2c 01F4      		brne .+2
 5386 1b2e 00C0      		rjmp .L553
 5387               	.LM747:
 5388 1b30 EC30      		cpi r30,lo8(12)
 5389 1b32 01F0      		breq .+2
 5390 1b34 00C0      		rjmp .L527
 5391 1b36 20E0      		ldi r18,lo8(0)
 5392               	.LVL426:
 5393               	.L484:
 5394               	.LM748:
 5395 1b38 4F5F      		subi r20,lo8(-(1))
 5396 1b3a 5F4F      		sbci r21,hi8(-(1))
 5397               	.LM749:
 5398 1b3c E1E0      		ldi r30,hi8(416)
 5399 1b3e 403A      		cpi r20,lo8(416)
 5400 1b40 5E07      		cpc r21,r30
 5401 1b42 00F0      		brlo .L493
 5402 1b44 40E0      		ldi r20,lo8(0)
 5403 1b46 50E0      		ldi r21,hi8(0)
 5404               	.L493:
 5405               	.LM750:
 5406 1b48 8091 0000 		lds r24,RX_in
 5407 1b4c 9091 0000 		lds r25,(RX_in)+1
 5408 1b50 8417      		cp r24,r20
 5409 1b52 9507      		cpc r25,r21
 5410 1b54 01F0      		breq .L493
 5411               	.LM751:
 5412 1b56 2F5F      		subi r18,lo8(-(1))
 5413 1b58 2530      		cpi r18,lo8(5)
 5414 1b5a 01F4      		brne .L484
 5415 1b5c 4093 0000 		sts RX_read,r20
 5416 1b60 5093 0000 		sts RX_read+1,r21
 5417               	.LM752:
 5418 1b64 FA01      		movw r30,r20
 5419 1b66 E050      		subi r30,lo8(-(RX_array))
 5420 1b68 F040      		sbci r31,hi8(-(RX_array))
 5421 1b6a DF01      		movw r26,r30
 5422 1b6c 1397      		sbiw r26,3
 5423 1b6e 9F01      		movw r18,r30
 5424               	.LVL427:
 5425 1b70 2250      		subi r18,lo8(-(-2))
 5426 1b72 3040      		sbci r19,hi8(-(-2))
 5427 1b74 8F01      		movw r16,r30
 5428               	.LVL428:
 5429 1b76 0150      		subi r16,lo8(-(-1))
 5430 1b78 1040      		sbci r17,hi8(-(-1))
 5431 1b7a 8081      		ld r24,Z
 5432 1b7c 3497      		sbiw r30,4
 5433 1b7e 6081      		ld r22,Z
 5434 1b80 4C91      		ld r20,X
 5435 1b82 D901      		movw r26,r18
 5436 1b84 2C91      		ld r18,X
 5437 1b86 F801      		movw r30,r16
 5438 1b88 0081      		ld r16,Z
 5439 1b8a 0E94 0000 		call line
 5440               	.LM753:
 5441 1b8e 2091 0000 		lds r18,RX_read
 5442 1b92 3091 0000 		lds r19,(RX_read)+1
 5443 1b96 2F5F      		subi r18,lo8(-(1))
 5444 1b98 3F4F      		sbci r19,hi8(-(1))
 5445 1b9a 3093 0000 		sts (RX_read)+1,r19
 5446 1b9e 2093 0000 		sts RX_read,r18
 5447               	.LM754:
 5448 1ba2 F1E0      		ldi r31,hi8(416)
 5449 1ba4 203A      		cpi r18,lo8(416)
 5450 1ba6 3F07      		cpc r19,r31
 5451 1ba8 00F4      		brsh .+2
 5452 1baa 00C0      		rjmp .L527
 5453               	.LVL429:
 5454               	.L530:
 5455 1bac 1092 0000 		sts (RX_read)+1,__zero_reg__
 5456 1bb0 1092 0000 		sts RX_read,__zero_reg__
 5457 1bb4 20E0      		ldi r18,lo8(0)
 5458 1bb6 30E0      		ldi r19,hi8(0)
 5459 1bb8 00C0      		rjmp .L527
 5460               	.L540:
 5461               	.LM755:
 5462 1bba 80E0      		ldi r24,lo8(0)
 5463 1bbc 0E94 0000 		call del_char
 5464 1bc0 2091 0000 		lds r18,RX_read
 5465 1bc4 3091 0000 		lds r19,(RX_read)+1
 5466 1bc8 00C0      		rjmp .L527
 5467               	.L539:
 5468               	.LM756:
 5469 1bca 0091 0000 		lds r16,RX_array
 5470               	.LM757:
 5471 1bce D093 0000 		sts (RX_read)+1,r29
 5472 1bd2 C093 0000 		sts RX_read,r28
 5473 1bd6 00C0      		rjmp .L439
 5474               	.L543:
 5475               	.LM758:
 5476 1bd8 0E94 0000 		call clear_screen
 5477               	.L533:
 5478               	.LM759:
 5479 1bdc 2091 0000 		lds r18,RX_read
 5480 1be0 3091 0000 		lds r19,(RX_read)+1
 5481 1be4 2F5F      		subi r18,lo8(-(1))
 5482 1be6 3F4F      		sbci r19,hi8(-(1))
 5483 1be8 3093 0000 		sts (RX_read)+1,r19
 5484 1bec 2093 0000 		sts RX_read,r18
 5485               	.LM760:
 5486 1bf0 B1E0      		ldi r27,hi8(416)
 5487 1bf2 203A      		cpi r18,lo8(416)
 5488 1bf4 3B07      		cpc r19,r27
 5489 1bf6 00F4      		brsh .+2
 5490 1bf8 00C0      		rjmp .L527
 5491 1bfa 00C0      		rjmp .L530
 5492               	.L546:
 5493               	.LM761:
 5494 1bfc 4091 0000 		lds r20,splash_screen
 5495 1c00 81E0      		ldi r24,lo8(1)
 5496 1c02 4827      		eor r20,r24
 5497 1c04 4093 0000 		sts splash_screen,r20
 5498               	.LM762:
 5499 1c08 C901      		movw r24,r18
 5500 1c0a 0196      		adiw r24,1
 5501 1c0c 9093 0000 		sts (RX_read)+1,r25
 5502 1c10 8093 0000 		sts RX_read,r24
 5503               	.LM763:
 5504 1c14 805A      		subi r24,lo8(416)
 5505 1c16 9140      		sbci r25,hi8(416)
 5506 1c18 00F0      		brlo .L450
 5507 1c1a 1092 0000 		sts (RX_read)+1,__zero_reg__
 5508 1c1e 1092 0000 		sts RX_read,__zero_reg__
 5509               	.L450:
 5510               	.LM764:
 5511               	/* #APP */
 5512               	 ;  497 "main.c" 1
 5513 1c22 F894      		cli
 5514               	 ;  0 "" 2
 5515               	/* #NOAPP */
 5516               	.L451:
 5517               	.LBB317:
 5518               	.LBB313:
 5519               	.LM765:
 5520 1c24 F999      		sbic 63-32,1
 5521 1c26 00C0      		rjmp .L451
 5522               	.LM766:
 5523 1c28 D2BC      		out (65)+1-32,r13
 5524 1c2a C1BC      		out 65-32,r12
 5525               	.LM767:
 5526 1c2c 40BD      		out 64-32,r20
 5527               	.LM768:
 5528 1c2e FA9A      		sbi 63-32,2
 5529               	.LM769:
 5530 1c30 F99A      		sbi 63-32,1
 5531               	.LBE313:
 5532               	.LBE317:
 5533               	.LM770:
 5534               	/* #APP */
 5535               	 ;  499 "main.c" 1
 5536 1c32 7894      		sei
 5537               	 ;  0 "" 2
 5538               	/* #NOAPP */
 5539 1c34 2091 0000 		lds r18,RX_read
 5540 1c38 3091 0000 		lds r19,(RX_read)+1
 5541 1c3c 00C0      		rjmp .L527
 5542               	.L544:
 5543               	.LM771:
 5544 1c3e 1092 0000 		sts (RX_in)+1,__zero_reg__
 5545 1c42 1092 0000 		sts RX_in,__zero_reg__
 5546 1c46 1092 0000 		sts (RX_read)+1,__zero_reg__
 5547 1c4a 1092 0000 		sts RX_read,__zero_reg__
 5548               	.LM772:
 5549 1c4e 0E94 0000 		call demo
 5550               	.LM773:
 5551 1c52 0E94 0000 		call clear_screen
 5552               	.LM774:
 5553 1c56 1092 0000 		sts (RX_in)+1,__zero_reg__
 5554 1c5a 1092 0000 		sts RX_in,__zero_reg__
 5555 1c5e 2091 0000 		lds r18,RX_read
 5556 1c62 3091 0000 		lds r19,(RX_read)+1
 5557 1c66 00C0      		rjmp .L527
 5558               	.L547:
 5559               	.LM775:
 5560 1c68 C901      		movw r24,r18
 5561 1c6a 0196      		adiw r24,1
 5562 1c6c 9093 0000 		sts (RX_read)+1,r25
 5563 1c70 8093 0000 		sts RX_read,r24
 5564               	.LM776:
 5565 1c74 805A      		subi r24,lo8(416)
 5566 1c76 9140      		sbci r25,hi8(416)
 5567 1c78 00F0      		brlo .L453
 5568 1c7a 1092 0000 		sts (RX_read)+1,__zero_reg__
 5569 1c7e 1092 0000 		sts RX_read,__zero_reg__
 5570               	.L453:
 5571               	.LM777:
 5572 1c82 2091 0000 		lds r18,RX_read
 5573 1c86 3091 0000 		lds r19,(RX_read)+1
 5574               	.L454:
 5575 1c8a 8091 0000 		lds r24,RX_in
 5576 1c8e 9091 0000 		lds r25,(RX_in)+1
 5577 1c92 8217      		cp r24,r18
 5578 1c94 9307      		cpc r25,r19
 5579 1c96 01F0      		breq .L454
 5580               	.LM778:
 5581 1c98 F901      		movw r30,r18
 5582 1c9a E050      		subi r30,lo8(-(RX_array))
 5583 1c9c F040      		sbci r31,hi8(-(RX_array))
 5584 1c9e E081      		ld r30,Z
 5585 1ca0 E093 0000 		sts BL_dutycycle,r30
 5586               	.LM779:
 5587 1ca4 C901      		movw r24,r18
 5588 1ca6 0196      		adiw r24,1
 5589 1ca8 9093 0000 		sts (RX_read)+1,r25
 5590 1cac 8093 0000 		sts RX_read,r24
 5591               	.LM780:
 5592 1cb0 805A      		subi r24,lo8(416)
 5593 1cb2 9140      		sbci r25,hi8(416)
 5594 1cb4 00F0      		brlo .L455
 5595 1cb6 1092 0000 		sts (RX_read)+1,__zero_reg__
 5596 1cba 1092 0000 		sts RX_read,__zero_reg__
 5597               	.L455:
 5598               	.LM781:
 5599 1cbe 8E2F      		mov r24,r30
 5600 1cc0 0E94 0000 		call set_backlight
 5601               	.LM782:
 5602               	/* #APP */
 5603               	 ;  517 "main.c" 1
 5604 1cc4 F894      		cli
 5605               	 ;  0 "" 2
 5606               	.LM783:
 5607               	/* #NOAPP */
 5608 1cc6 8091 0000 		lds r24,BL_dutycycle
 5609               	.L456:
 5610               	.LBB318:
 5611               	.LBB319:
 5612               	.LM784:
 5613 1cca F999      		sbic 63-32,1
 5614 1ccc 00C0      		rjmp .L456
 5615               	.LM785:
 5616 1cce D2BD      		out (65)+1-32,r29
 5617 1cd0 C1BD      		out 65-32,r28
 5618               	.LM786:
 5619 1cd2 80BD      		out 64-32,r24
 5620               	.LM787:
 5621 1cd4 FA9A      		sbi 63-32,2
 5622               	.LM788:
 5623 1cd6 F99A      		sbi 63-32,1
 5624               	.LBE319:
 5625               	.LBE318:
 5626               	.LM789:
 5627               	/* #APP */
 5628               	 ;  519 "main.c" 1
 5629 1cd8 7894      		sei
 5630               	 ;  0 "" 2
 5631               	/* #NOAPP */
 5632 1cda 2091 0000 		lds r18,RX_read
 5633 1cde 3091 0000 		lds r19,(RX_read)+1
 5634 1ce2 00C0      		rjmp .L527
 5635               	.L545:
 5636               	.LM790:
 5637 1ce4 8091 0000 		lds r24,reverse
 5638 1ce8 91E0      		ldi r25,lo8(1)
 5639 1cea 8927      		eor r24,r25
 5640 1cec 8093 0000 		sts reverse,r24
 5641               	.LM791:
 5642 1cf0 0E94 0000 		call clear_screen
 5643               	.LM792:
 5644 1cf4 2091 0000 		lds r18,RX_read
 5645 1cf8 3091 0000 		lds r19,(RX_read)+1
 5646 1cfc 2F5F      		subi r18,lo8(-(1))
 5647 1cfe 3F4F      		sbci r19,hi8(-(1))
 5648 1d00 3093 0000 		sts (RX_read)+1,r19
 5649 1d04 2093 0000 		sts RX_read,r18
 5650               	.LM793:
 5651 1d08 E1E0      		ldi r30,hi8(416)
 5652 1d0a 203A      		cpi r18,lo8(416)
 5653 1d0c 3E07      		cpc r19,r30
 5654 1d0e 00F0      		brlo .L447
 5655 1d10 1092 0000 		sts (RX_read)+1,__zero_reg__
 5656 1d14 1092 0000 		sts RX_read,__zero_reg__
 5657 1d18 20E0      		ldi r18,lo8(0)
 5658 1d1a 30E0      		ldi r19,hi8(0)
 5659               	.L447:
 5660               	.LM794:
 5661               	/* #APP */
 5662               	 ;  483 "main.c" 1
 5663 1d1c F894      		cli
 5664               	 ;  0 "" 2
 5665               	.LM795:
 5666               	/* #NOAPP */
 5667 1d1e 8091 0000 		lds r24,reverse
 5668               	.L448:
 5669               	.LBB320:
 5670               	.LBB316:
 5671               	.LM796:
 5672 1d22 F999      		sbic 63-32,1
 5673 1d24 00C0      		rjmp .L448
 5674               	.LM797:
 5675 1d26 B2BC      		out (65)+1-32,r11
 5676 1d28 A1BC      		out 65-32,r10
 5677               	.LM798:
 5678 1d2a 80BD      		out 64-32,r24
 5679               	.LM799:
 5680 1d2c FA9A      		sbi 63-32,2
 5681               	.LM800:
 5682 1d2e F99A      		sbi 63-32,1
 5683               	.LBE316:
 5684               	.LBE320:
 5685               	.LM801:
 5686               	/* #APP */
 5687               	 ;  485 "main.c" 1
 5688 1d30 7894      		sei
 5689               	 ;  0 "" 2
 5690               	/* #NOAPP */
 5691 1d32 00C0      		rjmp .L527
 5692               	.L548:
 5693               	.LM802:
 5694 1d34 C901      		movw r24,r18
 5695 1d36 0196      		adiw r24,1
 5696 1d38 9093 0000 		sts (RX_read)+1,r25
 5697 1d3c 8093 0000 		sts RX_read,r24
 5698               	.LM803:
 5699 1d40 805A      		subi r24,lo8(416)
 5700 1d42 9140      		sbci r25,hi8(416)
 5701 1d44 00F0      		brlo .L458
 5702 1d46 1092 0000 		sts (RX_read)+1,__zero_reg__
 5703 1d4a 1092 0000 		sts RX_read,__zero_reg__
 5704               	.L458:
 5705               	.LM804:
 5706 1d4e E091 0000 		lds r30,RX_read
 5707 1d52 F091 0000 		lds r31,(RX_read)+1
 5708               	.L459:
 5709 1d56 8091 0000 		lds r24,RX_in
 5710 1d5a 9091 0000 		lds r25,(RX_in)+1
 5711 1d5e 8E17      		cp r24,r30
 5712 1d60 9F07      		cpc r25,r31
 5713 1d62 01F0      		breq .L459
 5714               	.LM805:
 5715 1d64 E050      		subi r30,lo8(-(RX_array))
 5716 1d66 F040      		sbci r31,hi8(-(RX_array))
 5717 1d68 4081      		ld r20,Z
 5718 1d6a 60E0      		ldi r22,lo8(0)
 5719 1d6c 70E0      		ldi r23,hi8(0)
 5720 1d6e 4733      		cpi r20,lo8(55)
 5721 1d70 00F4      		brsh .L461
 5722 1d72 61E0      		ldi r22,lo8(1)
 5723 1d74 70E0      		ldi r23,hi8(1)
 5724               	.L461:
 5725 1d76 20E0      		ldi r18,lo8(0)
 5726 1d78 30E0      		ldi r19,hi8(0)
 5727 1d7a 4133      		cpi r20,lo8(49)
 5728 1d7c 00F0      		brlo .L462
 5729 1d7e 21E0      		ldi r18,lo8(1)
 5730 1d80 30E0      		ldi r19,hi8(1)
 5731               	.L462:
 5732 1d82 629F      		mul r22,r18
 5733 1d84 C001      		movw r24,r0
 5734 1d86 639F      		mul r22,r19
 5735 1d88 900D      		add r25,r0
 5736 1d8a 729F      		mul r23,r18
 5737 1d8c 900D      		add r25,r0
 5738 1d8e 1124      		clr r1
 5739 1d90 892B      		or r24,r25
 5740 1d92 01F0      		breq .L460
 5741 1d94 4053      		subi r20,lo8(-(-48))
 5742 1d96 4093 0000 		sts baud_rate,r20
 5743               	.L460:
 5744               	.LM806:
 5745 1d9a 8091 0000 		lds r24,baud_rate
 5746 1d9e 0E94 0000 		call set_baud
 5747               	.LM807:
 5748               	/* #APP */
 5749               	 ;  543 "main.c" 1
 5750 1da2 F894      		cli
 5751               	 ;  0 "" 2
 5752               	.LM808:
 5753               	/* #NOAPP */
 5754 1da4 8091 0000 		lds r24,baud_rate
 5755               	.L463:
 5756               	.LBB321:
 5757               	.LBB322:
 5758               	.LM809:
 5759 1da8 F999      		sbic 63-32,1
 5760 1daa 00C0      		rjmp .L463
 5761               	.LM810:
 5762 1dac 12BC      		out (65)+1-32,__zero_reg__
 5763 1dae 11BC      		out 65-32,__zero_reg__
 5764               	.LM811:
 5765 1db0 80BD      		out 64-32,r24
 5766               	.LM812:
 5767 1db2 FA9A      		sbi 63-32,2
 5768               	.LM813:
 5769 1db4 F99A      		sbi 63-32,1
 5770               	.LBE322:
 5771               	.LBE321:
 5772               	.LM814:
 5773               	/* #APP */
 5774               	 ;  545 "main.c" 1
 5775 1db6 7894      		sei
 5776               	 ;  0 "" 2
 5777               	/* #NOAPP */
 5778               	.L535:
 5779               	.LM815:
 5780 1db8 2091 0000 		lds r18,RX_read
 5781 1dbc 3091 0000 		lds r19,(RX_read)+1
 5782 1dc0 2F5F      		subi r18,lo8(-(1))
 5783 1dc2 3F4F      		sbci r19,hi8(-(1))
 5784 1dc4 3093 0000 		sts (RX_read)+1,r19
 5785 1dc8 2093 0000 		sts RX_read,r18
 5786               	.LM816:
 5787 1dcc E1E0      		ldi r30,hi8(416)
 5788 1dce 203A      		cpi r18,lo8(416)
 5789 1dd0 3E07      		cpc r19,r30
 5790 1dd2 00F4      		brsh .+2
 5791 1dd4 00C0      		rjmp .L527
 5792 1dd6 00C0      		rjmp .L530
 5793               	.L549:
 5794               	.LM817:
 5795 1dd8 C901      		movw r24,r18
 5796 1dda 0196      		adiw r24,1
 5797 1ddc 9093 0000 		sts (RX_read)+1,r25
 5798 1de0 8093 0000 		sts RX_read,r24
 5799               	.LM818:
 5800 1de4 805A      		subi r24,lo8(416)
 5801 1de6 9140      		sbci r25,hi8(416)
 5802 1de8 00F0      		brlo .L465
 5803 1dea 1092 0000 		sts (RX_read)+1,__zero_reg__
 5804 1dee 1092 0000 		sts RX_read,__zero_reg__
 5805               	.L465:
 5806               	.LM819:
 5807 1df2 2091 0000 		lds r18,RX_read
 5808 1df6 3091 0000 		lds r19,(RX_read)+1
 5809               	.L466:
 5810 1dfa 8091 0000 		lds r24,RX_in
 5811 1dfe 9091 0000 		lds r25,(RX_in)+1
 5812 1e02 8217      		cp r24,r18
 5813 1e04 9307      		cpc r25,r19
 5814 1e06 01F0      		breq .L466
 5815               	.LM820:
 5816 1e08 F901      		movw r30,r18
 5817 1e0a E050      		subi r30,lo8(-(RX_array))
 5818 1e0c F040      		sbci r31,hi8(-(RX_array))
 5819 1e0e 8291      		ld r24,-Z
 5820 1e10 3196      		adiw r30,1
 5821 1e12 8831      		cpi r24,lo8(24)
 5822 1e14 01F4      		brne .+2
 5823 1e16 00C0      		rjmp .L554
 5824               	.LM821:
 5825 1e18 8931      		cpi r24,lo8(25)
 5826 1e1a 01F4      		brne .L468
 5827 1e1c 8081      		ld r24,Z
 5828 1e1e 8093 0000 		sts y_offset,r24
 5829               	.L468:
 5830               	.LM822:
 5831 1e22 C901      		movw r24,r18
 5832 1e24 0196      		adiw r24,1
 5833 1e26 9093 0000 		sts (RX_read)+1,r25
 5834 1e2a 8093 0000 		sts RX_read,r24
 5835               	.LM823:
 5836 1e2e 805A      		subi r24,lo8(416)
 5837 1e30 9140      		sbci r25,hi8(416)
 5838 1e32 00F0      		brlo .L469
 5839 1e34 1092 0000 		sts (RX_read)+1,__zero_reg__
 5840 1e38 1092 0000 		sts RX_read,__zero_reg__
 5841               	.L469:
 5842               	.LM824:
 5843 1e3c 8091 0000 		lds r24,x_offset
 5844 1e40 803A      		cpi r24,lo8(-96)
 5845 1e42 00F0      		brlo .L470
 5846 1e44 E092 0000 		sts x_offset,r14
 5847               	.L470:
 5848               	.LM825:
 5849 1e48 8091 0000 		lds r24,y_offset
 5850 1e4c 8823      		tst r24
 5851 1e4e 04F0      		brlt .+2
 5852 1e50 00C0      		rjmp .L531
 5853 1e52 F092 0000 		sts y_offset,r15
 5854 1e56 2091 0000 		lds r18,RX_read
 5855 1e5a 3091 0000 		lds r19,(RX_read)+1
 5856 1e5e 00C0      		rjmp .L527
 5857               	.L550:
 5858               	.LM826:
 5859 1e60 20E0      		ldi r18,lo8(0)
 5860               	.LVL430:
 5861               	.L473:
 5862               	.LM827:
 5863 1e62 4F5F      		subi r20,lo8(-(1))
 5864 1e64 5F4F      		sbci r21,hi8(-(1))
 5865               	.LM828:
 5866 1e66 81E0      		ldi r24,hi8(416)
 5867 1e68 403A      		cpi r20,lo8(416)
 5868 1e6a 5807      		cpc r21,r24
 5869 1e6c 00F0      		brlo .L489
 5870 1e6e 40E0      		ldi r20,lo8(0)
 5871 1e70 50E0      		ldi r21,hi8(0)
 5872               	.L489:
 5873               	.LM829:
 5874 1e72 8091 0000 		lds r24,RX_in
 5875 1e76 9091 0000 		lds r25,(RX_in)+1
 5876 1e7a 8417      		cp r24,r20
 5877 1e7c 9507      		cpc r25,r21
 5878 1e7e 01F0      		breq .L489
 5879               	.LM830:
 5880 1e80 2F5F      		subi r18,lo8(-(1))
 5881 1e82 2330      		cpi r18,lo8(3)
 5882 1e84 01F4      		brne .L473
 5883 1e86 5093 0000 		sts (RX_read)+1,r21
 5884 1e8a 4093 0000 		sts RX_read,r20
 5885               	.LM831:
 5886 1e8e FA01      		movw r30,r20
 5887 1e90 E050      		subi r30,lo8(-(RX_array))
 5888 1e92 F040      		sbci r31,hi8(-(RX_array))
 5889 1e94 DF01      		movw r26,r30
 5890 1e96 1197      		sbiw r26,1
 5891 1e98 8081      		ld r24,Z
 5892 1e9a 3297      		sbiw r30,2
 5893 1e9c 6081      		ld r22,Z
 5894 1e9e 4C91      		ld r20,X
 5895 1ea0 0E94 0000 		call pixel
 5896               	.LVL431:
 5897               	.LM832:
 5898 1ea4 2091 0000 		lds r18,RX_read
 5899 1ea8 3091 0000 		lds r19,(RX_read)+1
 5900 1eac 2F5F      		subi r18,lo8(-(1))
 5901 1eae 3F4F      		sbci r19,hi8(-(1))
 5902 1eb0 3093 0000 		sts (RX_read)+1,r19
 5903 1eb4 2093 0000 		sts RX_read,r18
 5904               	.LM833:
 5905 1eb8 A1E0      		ldi r26,hi8(416)
 5906 1eba 203A      		cpi r18,lo8(416)
 5907 1ebc 3A07      		cpc r19,r26
 5908 1ebe 00F4      		brsh .+2
 5909 1ec0 00C0      		rjmp .L527
 5910 1ec2 00C0      		rjmp .L530
 5911               	.L551:
 5912               	.LM834:
 5913 1ec4 20E0      		ldi r18,lo8(0)
 5914               	.LVL432:
 5915               	.L476:
 5916               	.LM835:
 5917 1ec6 4F5F      		subi r20,lo8(-(1))
 5918 1ec8 5F4F      		sbci r21,hi8(-(1))
 5919               	.LM836:
 5920 1eca B1E0      		ldi r27,hi8(416)
 5921 1ecc 403A      		cpi r20,lo8(416)
 5922 1ece 5B07      		cpc r21,r27
 5923 1ed0 00F0      		brlo .L490
 5924 1ed2 40E0      		ldi r20,lo8(0)
 5925 1ed4 50E0      		ldi r21,hi8(0)
 5926               	.L490:
 5927               	.LM837:
 5928 1ed6 8091 0000 		lds r24,RX_in
 5929 1eda 9091 0000 		lds r25,(RX_in)+1
 5930 1ede 8417      		cp r24,r20
 5931 1ee0 9507      		cpc r25,r21
 5932 1ee2 01F0      		breq .L490
 5933               	.LM838:
 5934 1ee4 2F5F      		subi r18,lo8(-(1))
 5935 1ee6 2430      		cpi r18,lo8(4)
 5936 1ee8 01F4      		brne .L476
 5937 1eea 5093 0000 		sts (RX_read)+1,r21
 5938 1eee 4093 0000 		sts RX_read,r20
 5939               	.LM839:
 5940 1ef2 FA01      		movw r30,r20
 5941 1ef4 E050      		subi r30,lo8(-(RX_array))
 5942 1ef6 F040      		sbci r31,hi8(-(RX_array))
 5943 1ef8 3397      		sbiw r30,3
 5944 1efa 6191      		ld r22,Z+
 5945 1efc 4081      		ld r20,Z
 5946 1efe 3296      		adiw r30,2
 5947 1f00 2291      		ld r18,-Z
 5948               	.LVL433:
 5949 1f02 3196      		adiw r30,1
 5950 1f04 8081      		ld r24,Z
 5951 1f06 70E0      		ldi r23,lo8(0)
 5952 1f08 50E0      		ldi r21,lo8(0)
 5953 1f0a 30E0      		ldi r19,lo8(0)
 5954 1f0c 0E94 0000 		call circle
 5955 1f10 00C0      		rjmp .L535
 5956               	.L552:
 5957               	.LM840:
 5958 1f12 20E0      		ldi r18,lo8(0)
 5959               	.LVL434:
 5960               	.L479:
 5961               	.LM841:
 5962 1f14 4F5F      		subi r20,lo8(-(1))
 5963 1f16 5F4F      		sbci r21,hi8(-(1))
 5964               	.LM842:
 5965 1f18 F1E0      		ldi r31,hi8(416)
 5966 1f1a 403A      		cpi r20,lo8(416)
 5967 1f1c 5F07      		cpc r21,r31
 5968 1f1e 00F0      		brlo .L491
 5969 1f20 40E0      		ldi r20,lo8(0)
 5970 1f22 50E0      		ldi r21,hi8(0)
 5971               	.L491:
 5972               	.LM843:
 5973 1f24 8091 0000 		lds r24,RX_in
 5974 1f28 9091 0000 		lds r25,(RX_in)+1
 5975 1f2c 4817      		cp r20,r24
 5976 1f2e 5907      		cpc r21,r25
 5977 1f30 01F0      		breq .L491
 5978               	.LM844:
 5979 1f32 2F5F      		subi r18,lo8(-(1))
 5980 1f34 2430      		cpi r18,lo8(4)
 5981 1f36 01F4      		brne .L479
 5982 1f38 5093 0000 		sts (RX_read)+1,r21
 5983 1f3c 4093 0000 		sts RX_read,r20
 5984               	.LM845:
 5985 1f40 FA01      		movw r30,r20
 5986 1f42 E050      		subi r30,lo8(-(RX_array))
 5987 1f44 F040      		sbci r31,hi8(-(RX_array))
 5988 1f46 DF01      		movw r26,r30
 5989 1f48 1397      		sbiw r26,3
 5990 1f4a 9F01      		movw r18,r30
 5991               	.LVL435:
 5992 1f4c 2250      		subi r18,lo8(-(-2))
 5993 1f4e 3040      		sbci r19,hi8(-(-2))
 5994 1f50 AF01      		movw r20,r30
 5995 1f52 4150      		subi r20,lo8(-(-1))
 5996 1f54 5040      		sbci r21,hi8(-(-1))
 5997 1f56 8C91      		ld r24,X
 5998 1f58 D901      		movw r26,r18
 5999 1f5a 6C91      		ld r22,X
 6000 1f5c DA01      		movw r26,r20
 6001 1f5e 4C91      		ld r20,X
 6002 1f60 2081      		ld r18,Z
 6003 1f62 0E94 0000 		call erase_block
 6004 1f66 00C0      		rjmp .L533
 6005               	.L554:
 6006               	.LM846:
 6007 1f68 8081      		ld r24,Z
 6008 1f6a 8093 0000 		sts x_offset,r24
 6009 1f6e 00C0      		rjmp .L468
 6010               	.L553:
 6011               	.LM847:
 6012 1f70 20E0      		ldi r18,lo8(0)
 6013               	.LVL436:
 6014               	.L482:
 6015               	.LM848:
 6016 1f72 4F5F      		subi r20,lo8(-(1))
 6017 1f74 5F4F      		sbci r21,hi8(-(1))
 6018               	.LM849:
 6019 1f76 E1E0      		ldi r30,hi8(416)
 6020 1f78 403A      		cpi r20,lo8(416)
 6021 1f7a 5E07      		cpc r21,r30
 6022 1f7c 00F0      		brlo .L492
 6023 1f7e 40E0      		ldi r20,lo8(0)
 6024 1f80 50E0      		ldi r21,hi8(0)
 6025               	.L492:
 6026               	.LM850:
 6027 1f82 8091 0000 		lds r24,RX_in
 6028 1f86 9091 0000 		lds r25,(RX_in)+1
 6029 1f8a 8417      		cp r24,r20
 6030 1f8c 9507      		cpc r25,r21
 6031 1f8e 01F0      		breq .L492
 6032               	.LM851:
 6033 1f90 2F5F      		subi r18,lo8(-(1))
 6034 1f92 2430      		cpi r18,lo8(4)
 6035 1f94 01F4      		brne .L482
 6036 1f96 5093 0000 		sts (RX_read)+1,r21
 6037 1f9a 4093 0000 		sts RX_read,r20
 6038               	.LM852:
 6039 1f9e FA01      		movw r30,r20
 6040 1fa0 E050      		subi r30,lo8(-(RX_array))
 6041 1fa2 F040      		sbci r31,hi8(-(RX_array))
 6042 1fa4 DF01      		movw r26,r30
 6043 1fa6 1397      		sbiw r26,3
 6044 1fa8 9F01      		movw r18,r30
 6045               	.LVL437:
 6046 1faa 2250      		subi r18,lo8(-(-2))
 6047 1fac 3040      		sbci r19,hi8(-(-2))
 6048 1fae AF01      		movw r20,r30
 6049 1fb0 4150      		subi r20,lo8(-(-1))
 6050 1fb2 5040      		sbci r21,hi8(-(-1))
 6051 1fb4 8C91      		ld r24,X
 6052 1fb6 D901      		movw r26,r18
 6053 1fb8 6C91      		ld r22,X
 6054 1fba DA01      		movw r26,r20
 6055 1fbc 4C91      		ld r20,X
 6056 1fbe 2081      		ld r18,Z
 6057 1fc0 0E94 0000 		call box
 6058 1fc4 00C0      		rjmp .L533
 6059               	.LVL438:
 6060               	.L433:
 6061               	.LM853:
 6062 1fc6 8091 0000 		lds r24,baud_rate
 6063 1fca 0E94 0000 		call set_baud
 6064 1fce 00C0      		rjmp .L435
 6065               	.LVL439:
 6066               	.L537:
 6067               	.LM854:
 6068 1fd0 4398      		cbi 40-32,3
 6069               	.LM855:
 6070 1fd2 82E3      		ldi r24,lo8(50)
 6071 1fd4 90E0      		ldi r25,hi8(50)
 6072 1fd6 0E94 0000 		call delay_ms
 6073               	.LVL440:
 6074               	.LM856:
 6075 1fda 439A      		sbi 40-32,3
 6076               	.LM857:
 6077 1fdc 0E94 0000 		call clear_screen
 6078               	.LM858:
 6079 1fe0 80E0      		ldi r24,lo8(0)
 6080 1fe2 0E94 0000 		call set_page
 6081               	.LM859:
 6082 1fe6 80E0      		ldi r24,lo8(0)
 6083 1fe8 0E94 0000 		call set_x
 6084               	.LM860:
 6085 1fec 0E94 0000 		call display_on
 6086               	.LM861:
 6087 1ff0 88B1      		in r24,40-32
 6088 1ff2 887F      		andi r24,lo8(-8)
 6089 1ff4 88B9      		out 40-32,r24
 6090               	.LBB323:
 6091               	.LBB324:
 6092               	.LM862:
 6093 1ff6 85B1      		in r24,37-32
 6094 1ff8 8C7F      		andi r24,lo8(-4)
 6095 1ffa 85B9      		out 37-32,r24
 6096               	.LM863:
 6097 1ffc 8BB1      		in r24,43-32
 6098 1ffe 8370      		andi r24,lo8(3)
 6099 2000 8BB9      		out 43-32,r24
 6100               	.LM864:
 6101 2002 85B1      		in r24,37-32
 6102 2004 85B9      		out 37-32,r24
 6103               	.LM865:
 6104 2006 8BB1      		in r24,43-32
 6105 2008 806C      		ori r24,lo8(-64)
 6106 200a 8BB9      		out 43-32,r24
 6107 200c 80E0      		ldi r24,lo8(0)
 6108               	.LVL441:
 6109               	.L417:
 6110               	.LBE324:
 6111               	.LBE323:
 6112               	.LBB325:
 6113               	.LBB326:
 6114               	.LM866:
 6115               	/* #APP */
 6116               	 ;  786 "main.c" 1
 6117 200e 0000      		nop
 6118               	 ;  0 "" 2
 6119               	.LM867:
 6120               	/* #NOAPP */
 6121 2010 8F5F      		subi r24,lo8(-(1))
 6122 2012 8E31      		cpi r24,lo8(30)
 6123 2014 01F4      		brne .L417
 6124               	.LBE326:
 6125               	.LBE325:
 6126               	.LM868:
 6127 2016 409A      		sbi 40-32,0
 6128 2018 80E0      		ldi r24,lo8(0)
 6129               	.LVL442:
 6130               	.L418:
 6131               	.LBB327:
 6132               	.LBB328:
 6133               	.LM869:
 6134               	/* #APP */
 6135               	 ;  786 "main.c" 1
 6136 201a 0000      		nop
 6137               	 ;  0 "" 2
 6138               	.LM870:
 6139               	/* #NOAPP */
 6140 201c 8F5F      		subi r24,lo8(-(1))
 6141 201e 8E31      		cpi r24,lo8(30)
 6142 2020 01F4      		brne .L418
 6143               	.LBE328:
 6144               	.LBE327:
 6145               	.LM871:
 6146 2022 4098      		cbi 40-32,0
 6147 2024 80E0      		ldi r24,lo8(0)
 6148               	.LVL443:
 6149               	.L419:
 6150               	.LBB329:
 6151               	.LBB330:
 6152               	.LM872:
 6153               	/* #APP */
 6154               	 ;  786 "main.c" 1
 6155 2026 0000      		nop
 6156               	 ;  0 "" 2
 6157               	.LM873:
 6158               	/* #NOAPP */
 6159 2028 8F5F      		subi r24,lo8(-(1))
 6160 202a 8E31      		cpi r24,lo8(30)
 6161 202c 01F4      		brne .L419
 6162               	.LBE330:
 6163               	.LBE329:
 6164               	.LM874:
 6165 202e 88B1      		in r24,40-32
 6166               	.LVL444:
 6167 2030 8760      		ori r24,lo8(7)
 6168 2032 88B9      		out 40-32,r24
 6169 2034 80E0      		ldi r24,lo8(0)
 6170               	.LVL445:
 6171               	.L420:
 6172               	.LBB331:
 6173               	.LBB332:
 6174               	.LM875:
 6175               	/* #APP */
 6176               	 ;  786 "main.c" 1
 6177 2036 0000      		nop
 6178               	 ;  0 "" 2
 6179               	.LM876:
 6180               	/* #NOAPP */
 6181 2038 8F5F      		subi r24,lo8(-(1))
 6182 203a 8E31      		cpi r24,lo8(30)
 6183 203c 01F4      		brne .L420
 6184               	.LBE332:
 6185               	.LBE331:
 6186               	.LM877:
 6187 203e 1092 0000 		sts x_offset,__zero_reg__
 6188               	.LM878:
 6189 2042 80E0      		ldi r24,lo8(0)
 6190               	.LVL446:
 6191 2044 0E94 0000 		call set_page
 6192 2048 00C0      		rjmp .L421
 6193               	.LFE6:
 6195               	.global	x_offset
 6196               	.global	x_offset
 6197               		.section .bss
 6200               	x_offset:
 6201 0000 00        		.skip 1,0
 6202               	.global	y_offset
 6203               		.data
 6206               	y_offset:
 6207 0000 3F        		.byte	63
 6208               	.global	side_mark
 6211               	side_mark:
 6212 0001 01        		.byte	1
 6213               	.global	page_mark
 6214               	.global	page_mark
 6215               		.section .bss
 6218               	page_mark:
 6219 0001 00        		.skip 1,0
 6220               	.global	baud_rate
 6221               		.data
 6224               	baud_rate:
 6225 0002 06        		.byte	6
 6226               	.global	reverse
 6227               	.global	reverse
 6228               		.section .bss
 6231               	reverse:
 6232 0002 00        		.skip 1,0
 6233               	.global	display
 6234               	.global	display
 6237               	display:
 6238 0003 00        		.skip 1,0
 6239               	.global	RX_in
 6240               	.global	RX_in
 6243               	RX_in:
 6244 0004 0000      		.skip 2,0
 6245               	.global	RX_read
 6246               	.global	RX_read
 6249               	RX_read:
 6250 0006 0000      		.skip 2,0
 6251               	.global	BL_dutycycle
 6252               		.data
 6255               	BL_dutycycle:
 6256 0003 64        		.byte	100
 6257               	.global	splash_screen
 6260               	splash_screen:
 6261 0004 01        		.byte	1
 6262               		.lcomm temp_y.2352,2
 6263               		.lcomm temp_x.2351,2
 6266               	logo:
 6267 0005 01        		.byte	1
 6268 0006 C0        		.byte	-64
 6269 0007 03        		.byte	3
 6270 0008 80        		.byte	-128
 6271 0009 03        		.byte	3
 6272 000a 80        		.byte	-128
 6273 000b 01        		.byte	1
 6274 000c D0        		.byte	-48
 6275 000d 01        		.byte	1
 6276 000e F8        		.byte	-8
 6277 000f 0C        		.byte	12
 6278 0010 F8        		.byte	-8
 6279 0011 18        		.byte	24
 6280 0012 F8        		.byte	-8
 6281 0013 1F        		.byte	31
 6282 0014 F8        		.byte	-8
 6283 0015 1F        		.byte	31
 6284 0016 F8        		.byte	-8
 6285 0017 1F        		.byte	31
 6286 0018 F0        		.byte	-16
 6287 0019 1F        		.byte	31
 6288 001a E0        		.byte	-32
 6289 001b 1F        		.byte	31
 6290 001c C0        		.byte	-64
 6291 001d 1C        		.byte	28
 6292 001e 00        		.byte	0
 6293 001f 18        		.byte	24
 6294 0020 00        		.byte	0
 6295 0021 10        		.byte	16
 6296 0022 00        		.byte	0
 6297               		.lcomm temp_data2.1952,1
 6298               		.lcomm temp_data1.1951,1
 6299               		.lcomm temp_x.1950,1
 6300               		.lcomm temp_side.1949,1
 6301               		.lcomm temp_page.1948,1
 6302               		.section	.progmem.data,"a",@progbits
 6305               	text_array:
 6306 0000 00        		.byte	0
 6307 0001 00        		.byte	0
 6308 0002 00        		.byte	0
 6309 0003 00        		.byte	0
 6310 0004 00        		.byte	0
 6311 0005 00        		.byte	0
 6312 0006 F6        		.byte	-10
 6313 0007 F6        		.byte	-10
 6314 0008 00        		.byte	0
 6315 0009 00        		.byte	0
 6316 000a 00        		.byte	0
 6317 000b E0        		.byte	-32
 6318 000c 00        		.byte	0
 6319 000d E0        		.byte	-32
 6320 000e 00        		.byte	0
 6321 000f 28        		.byte	40
 6322 0010 FE        		.byte	-2
 6323 0011 28        		.byte	40
 6324 0012 FE        		.byte	-2
 6325 0013 28        		.byte	40
 6326 0014 00        		.byte	0
 6327 0015 64        		.byte	100
 6328 0016 D6        		.byte	-42
 6329 0017 54        		.byte	84
 6330 0018 08        		.byte	8
 6331 0019 C2        		.byte	-62
 6332 001a CC        		.byte	-52
 6333 001b 10        		.byte	16
 6334 001c 26        		.byte	38
 6335 001d C6        		.byte	-58
 6336 001e 4C        		.byte	76
 6337 001f B2        		.byte	-78
 6338 0020 92        		.byte	-110
 6339 0021 6C        		.byte	108
 6340 0022 0A        		.byte	10
 6341 0023 00        		.byte	0
 6342 0024 00        		.byte	0
 6343 0025 E0        		.byte	-32
 6344 0026 00        		.byte	0
 6345 0027 00        		.byte	0
 6346 0028 00        		.byte	0
 6347 0029 38        		.byte	56
 6348 002a 44        		.byte	68
 6349 002b 82        		.byte	-126
 6350 002c 00        		.byte	0
 6351 002d 00        		.byte	0
 6352 002e 82        		.byte	-126
 6353 002f 44        		.byte	68
 6354 0030 38        		.byte	56
 6355 0031 00        		.byte	0
 6356 0032 88        		.byte	-120
 6357 0033 50        		.byte	80
 6358 0034 F8        		.byte	-8
 6359 0035 50        		.byte	80
 6360 0036 88        		.byte	-120
 6361 0037 08        		.byte	8
 6362 0038 08        		.byte	8
 6363 0039 3E        		.byte	62
 6364 003a 08        		.byte	8
 6365 003b 08        		.byte	8
 6366 003c 00        		.byte	0
 6367 003d 00        		.byte	0
 6368 003e 05        		.byte	5
 6369 003f 06        		.byte	6
 6370 0040 00        		.byte	0
 6371 0041 08        		.byte	8
 6372 0042 08        		.byte	8
 6373 0043 08        		.byte	8
 6374 0044 08        		.byte	8
 6375 0045 08        		.byte	8
 6376 0046 00        		.byte	0
 6377 0047 00        		.byte	0
 6378 0048 06        		.byte	6
 6379 0049 06        		.byte	6
 6380 004a 00        		.byte	0
 6381 004b 02        		.byte	2
 6382 004c 0C        		.byte	12
 6383 004d 10        		.byte	16
 6384 004e 60        		.byte	96
 6385 004f 80        		.byte	-128
 6386 0050 7C        		.byte	124
 6387 0051 8A        		.byte	-118
 6388 0052 92        		.byte	-110
 6389 0053 A2        		.byte	-94
 6390 0054 7C        		.byte	124
 6391 0055 00        		.byte	0
 6392 0056 42        		.byte	66
 6393 0057 FE        		.byte	-2
 6394 0058 02        		.byte	2
 6395 0059 00        		.byte	0
 6396 005a 42        		.byte	66
 6397 005b 86        		.byte	-122
 6398 005c 8A        		.byte	-118
 6399 005d 92        		.byte	-110
 6400 005e 62        		.byte	98
 6401 005f 44        		.byte	68
 6402 0060 82        		.byte	-126
 6403 0061 92        		.byte	-110
 6404 0062 92        		.byte	-110
 6405 0063 6C        		.byte	108
 6406 0064 10        		.byte	16
 6407 0065 30        		.byte	48
 6408 0066 50        		.byte	80
 6409 0067 FE        		.byte	-2
 6410 0068 10        		.byte	16
 6411 0069 E4        		.byte	-28
 6412 006a A2        		.byte	-94
 6413 006b A2        		.byte	-94
 6414 006c A2        		.byte	-94
 6415 006d 9C        		.byte	-100
 6416 006e 3C        		.byte	60
 6417 006f 52        		.byte	82
 6418 0070 92        		.byte	-110
 6419 0071 92        		.byte	-110
 6420 0072 0C        		.byte	12
 6421 0073 80        		.byte	-128
 6422 0074 86        		.byte	-122
 6423 0075 98        		.byte	-104
 6424 0076 E0        		.byte	-32
 6425 0077 80        		.byte	-128
 6426 0078 6C        		.byte	108
 6427 0079 92        		.byte	-110
 6428 007a 92        		.byte	-110
 6429 007b 92        		.byte	-110
 6430 007c 6C        		.byte	108
 6431 007d 60        		.byte	96
 6432 007e 92        		.byte	-110
 6433 007f 92        		.byte	-110
 6434 0080 94        		.byte	-108
 6435 0081 78        		.byte	120
 6436 0082 00        		.byte	0
 6437 0083 00        		.byte	0
 6438 0084 36        		.byte	54
 6439 0085 36        		.byte	54
 6440 0086 00        		.byte	0
 6441 0087 00        		.byte	0
 6442 0088 00        		.byte	0
 6443 0089 35        		.byte	53
 6444 008a 36        		.byte	54
 6445 008b 00        		.byte	0
 6446 008c 10        		.byte	16
 6447 008d 28        		.byte	40
 6448 008e 44        		.byte	68
 6449 008f 82        		.byte	-126
 6450 0090 00        		.byte	0
 6451 0091 28        		.byte	40
 6452 0092 28        		.byte	40
 6453 0093 28        		.byte	40
 6454 0094 28        		.byte	40
 6455 0095 28        		.byte	40
 6456 0096 00        		.byte	0
 6457 0097 82        		.byte	-126
 6458 0098 44        		.byte	68
 6459 0099 28        		.byte	40
 6460 009a 10        		.byte	16
 6461 009b 40        		.byte	64
 6462 009c 80        		.byte	-128
 6463 009d 8A        		.byte	-118
 6464 009e 90        		.byte	-112
 6465 009f 60        		.byte	96
 6466 00a0 7C        		.byte	124
 6467 00a1 82        		.byte	-126
 6468 00a2 BA        		.byte	-70
 6469 00a3 BA        		.byte	-70
 6470 00a4 62        		.byte	98
 6471 00a5 3E        		.byte	62
 6472 00a6 48        		.byte	72
 6473 00a7 88        		.byte	-120
 6474 00a8 48        		.byte	72
 6475 00a9 3E        		.byte	62
 6476 00aa FE        		.byte	-2
 6477 00ab 92        		.byte	-110
 6478 00ac 92        		.byte	-110
 6479 00ad 92        		.byte	-110
 6480 00ae 6C        		.byte	108
 6481 00af 7C        		.byte	124
 6482 00b0 82        		.byte	-126
 6483 00b1 82        		.byte	-126
 6484 00b2 82        		.byte	-126
 6485 00b3 44        		.byte	68
 6486 00b4 FE        		.byte	-2
 6487 00b5 82        		.byte	-126
 6488 00b6 82        		.byte	-126
 6489 00b7 82        		.byte	-126
 6490 00b8 7C        		.byte	124
 6491 00b9 FE        		.byte	-2
 6492 00ba 92        		.byte	-110
 6493 00bb 92        		.byte	-110
 6494 00bc 92        		.byte	-110
 6495 00bd 82        		.byte	-126
 6496 00be FE        		.byte	-2
 6497 00bf 90        		.byte	-112
 6498 00c0 90        		.byte	-112
 6499 00c1 90        		.byte	-112
 6500 00c2 80        		.byte	-128
 6501 00c3 7C        		.byte	124
 6502 00c4 82        		.byte	-126
 6503 00c5 82        		.byte	-126
 6504 00c6 8A        		.byte	-118
 6505 00c7 4E        		.byte	78
 6506 00c8 FE        		.byte	-2
 6507 00c9 10        		.byte	16
 6508 00ca 10        		.byte	16
 6509 00cb 10        		.byte	16
 6510 00cc FE        		.byte	-2
 6511 00cd 82        		.byte	-126
 6512 00ce 82        		.byte	-126
 6513 00cf FE        		.byte	-2
 6514 00d0 82        		.byte	-126
 6515 00d1 82        		.byte	-126
 6516 00d2 84        		.byte	-124
 6517 00d3 82        		.byte	-126
 6518 00d4 FC        		.byte	-4
 6519 00d5 80        		.byte	-128
 6520 00d6 80        		.byte	-128
 6521 00d7 FE        		.byte	-2
 6522 00d8 10        		.byte	16
 6523 00d9 28        		.byte	40
 6524 00da 44        		.byte	68
 6525 00db 82        		.byte	-126
 6526 00dc FE        		.byte	-2
 6527 00dd 02        		.byte	2
 6528 00de 02        		.byte	2
 6529 00df 02        		.byte	2
 6530 00e0 02        		.byte	2
 6531 00e1 FE        		.byte	-2
 6532 00e2 40        		.byte	64
 6533 00e3 20        		.byte	32
 6534 00e4 40        		.byte	64
 6535 00e5 FE        		.byte	-2
 6536 00e6 FE        		.byte	-2
 6537 00e7 60        		.byte	96
 6538 00e8 10        		.byte	16
 6539 00e9 0C        		.byte	12
 6540 00ea FE        		.byte	-2
 6541 00eb 7C        		.byte	124
 6542 00ec 82        		.byte	-126
 6543 00ed 82        		.byte	-126
 6544 00ee 82        		.byte	-126
 6545 00ef 7C        		.byte	124
 6546 00f0 FE        		.byte	-2
 6547 00f1 90        		.byte	-112
 6548 00f2 90        		.byte	-112
 6549 00f3 90        		.byte	-112
 6550 00f4 60        		.byte	96
 6551 00f5 7C        		.byte	124
 6552 00f6 82        		.byte	-126
 6553 00f7 82        		.byte	-126
 6554 00f8 86        		.byte	-122
 6555 00f9 7E        		.byte	126
 6556 00fa FE        		.byte	-2
 6557 00fb 90        		.byte	-112
 6558 00fc 98        		.byte	-104
 6559 00fd 94        		.byte	-108
 6560 00fe 62        		.byte	98
 6561 00ff 64        		.byte	100
 6562 0100 92        		.byte	-110
 6563 0101 92        		.byte	-110
 6564 0102 92        		.byte	-110
 6565 0103 4C        		.byte	76
 6566 0104 80        		.byte	-128
 6567 0105 80        		.byte	-128
 6568 0106 FE        		.byte	-2
 6569 0107 80        		.byte	-128
 6570 0108 80        		.byte	-128
 6571 0109 FC        		.byte	-4
 6572 010a 02        		.byte	2
 6573 010b 02        		.byte	2
 6574 010c 02        		.byte	2
 6575 010d FC        		.byte	-4
 6576 010e F8        		.byte	-8
 6577 010f 04        		.byte	4
 6578 0110 02        		.byte	2
 6579 0111 04        		.byte	4
 6580 0112 F8        		.byte	-8
 6581 0113 FC        		.byte	-4
 6582 0114 02        		.byte	2
 6583 0115 0C        		.byte	12
 6584 0116 02        		.byte	2
 6585 0117 FC        		.byte	-4
 6586 0118 C6        		.byte	-58
 6587 0119 28        		.byte	40
 6588 011a 10        		.byte	16
 6589 011b 28        		.byte	40
 6590 011c C6        		.byte	-58
 6591 011d C0        		.byte	-64
 6592 011e 20        		.byte	32
 6593 011f 1E        		.byte	30
 6594 0120 20        		.byte	32
 6595 0121 C0        		.byte	-64
 6596 0122 86        		.byte	-122
 6597 0123 8A        		.byte	-118
 6598 0124 92        		.byte	-110
 6599 0125 A2        		.byte	-94
 6600 0126 C2        		.byte	-62
 6601 0127 00        		.byte	0
 6602 0128 00        		.byte	0
 6603 0129 FE        		.byte	-2
 6604 012a 82        		.byte	-126
 6605 012b 00        		.byte	0
 6606 012c 00        		.byte	0
 6607 012d 00        		.byte	0
 6608 012e 00        		.byte	0
 6609 012f 00        		.byte	0
 6610 0130 00        		.byte	0
 6611 0131 80        		.byte	-128
 6612 0132 60        		.byte	96
 6613 0133 10        		.byte	16
 6614 0134 0C        		.byte	12
 6615 0135 02        		.byte	2
 6616 0136 20        		.byte	32
 6617 0137 40        		.byte	64
 6618 0138 80        		.byte	-128
 6619 0139 40        		.byte	64
 6620 013a 20        		.byte	32
 6621 013b 01        		.byte	1
 6622 013c 01        		.byte	1
 6623 013d 01        		.byte	1
 6624 013e 01        		.byte	1
 6625 013f 01        		.byte	1
 6626 0140 80        		.byte	-128
 6627 0141 40        		.byte	64
 6628 0142 20        		.byte	32
 6629 0143 00        		.byte	0
 6630 0144 00        		.byte	0
 6631 0145 04        		.byte	4
 6632 0146 2A        		.byte	42
 6633 0147 2A        		.byte	42
 6634 0148 2A        		.byte	42
 6635 0149 1E        		.byte	30
 6636 014a FE        		.byte	-2
 6637 014b 12        		.byte	18
 6638 014c 22        		.byte	34
 6639 014d 22        		.byte	34
 6640 014e 1C        		.byte	28
 6641 014f 1C        		.byte	28
 6642 0150 22        		.byte	34
 6643 0151 22        		.byte	34
 6644 0152 22        		.byte	34
 6645 0153 14        		.byte	20
 6646 0154 1C        		.byte	28
 6647 0155 22        		.byte	34
 6648 0156 22        		.byte	34
 6649 0157 12        		.byte	18
 6650 0158 FE        		.byte	-2
 6651 0159 1C        		.byte	28
 6652 015a 2A        		.byte	42
 6653 015b 2A        		.byte	42
 6654 015c 2A        		.byte	42
 6655 015d 18        		.byte	24
 6656 015e 10        		.byte	16
 6657 015f 7E        		.byte	126
 6658 0160 90        		.byte	-112
 6659 0161 80        		.byte	-128
 6660 0162 40        		.byte	64
 6661 0163 18        		.byte	24
 6662 0164 25        		.byte	37
 6663 0165 25        		.byte	37
 6664 0166 25        		.byte	37
 6665 0167 1E        		.byte	30
 6666 0168 FE        		.byte	-2
 6667 0169 10        		.byte	16
 6668 016a 10        		.byte	16
 6669 016b 10        		.byte	16
 6670 016c 0E        		.byte	14
 6671 016d 00        		.byte	0
 6672 016e 12        		.byte	18
 6673 016f 5E        		.byte	94
 6674 0170 02        		.byte	2
 6675 0171 00        		.byte	0
 6676 0172 02        		.byte	2
 6677 0173 01        		.byte	1
 6678 0174 01        		.byte	1
 6679 0175 11        		.byte	17
 6680 0176 5E        		.byte	94
 6681 0177 FE        		.byte	-2
 6682 0178 08        		.byte	8
 6683 0179 08        		.byte	8
 6684 017a 14        		.byte	20
 6685 017b 22        		.byte	34
 6686 017c 00        		.byte	0
 6687 017d 82        		.byte	-126
 6688 017e FE        		.byte	-2
 6689 017f 02        		.byte	2
 6690 0180 00        		.byte	0
 6691 0181 3E        		.byte	62
 6692 0182 20        		.byte	32
 6693 0183 1C        		.byte	28
 6694 0184 20        		.byte	32
 6695 0185 1E        		.byte	30
 6696 0186 3E        		.byte	62
 6697 0187 20        		.byte	32
 6698 0188 20        		.byte	32
 6699 0189 20        		.byte	32
 6700 018a 1E        		.byte	30
 6701 018b 1C        		.byte	28
 6702 018c 22        		.byte	34
 6703 018d 22        		.byte	34
 6704 018e 22        		.byte	34
 6705 018f 1C        		.byte	28
 6706 0190 3F        		.byte	63
 6707 0191 24        		.byte	36
 6708 0192 24        		.byte	36
 6709 0193 24        		.byte	36
 6710 0194 18        		.byte	24
 6711 0195 18        		.byte	24
 6712 0196 24        		.byte	36
 6713 0197 24        		.byte	36
 6714 0198 3F        		.byte	63
 6715 0199 01        		.byte	1
 6716 019a 3E        		.byte	62
 6717 019b 10        		.byte	16
 6718 019c 20        		.byte	32
 6719 019d 20        		.byte	32
 6720 019e 10        		.byte	16
 6721 019f 12        		.byte	18
 6722 01a0 2A        		.byte	42
 6723 01a1 2A        		.byte	42
 6724 01a2 2A        		.byte	42
 6725 01a3 04        		.byte	4
 6726 01a4 00        		.byte	0
 6727 01a5 10        		.byte	16
 6728 01a6 3C        		.byte	60
 6729 01a7 12        		.byte	18
 6730 01a8 04        		.byte	4
 6731 01a9 3C        		.byte	60
 6732 01aa 02        		.byte	2
 6733 01ab 02        		.byte	2
 6734 01ac 02        		.byte	2
 6735 01ad 3E        		.byte	62
 6736 01ae 30        		.byte	48
 6737 01af 0C        		.byte	12
 6738 01b0 02        		.byte	2
 6739 01b1 0C        		.byte	12
 6740 01b2 30        		.byte	48
 6741 01b3 38        		.byte	56
 6742 01b4 06        		.byte	6
 6743 01b5 18        		.byte	24
 6744 01b6 06        		.byte	6
 6745 01b7 38        		.byte	56
 6746 01b8 22        		.byte	34
 6747 01b9 14        		.byte	20
 6748 01ba 08        		.byte	8
 6749 01bb 14        		.byte	20
 6750 01bc 22        		.byte	34
 6751 01bd 38        		.byte	56
 6752 01be 05        		.byte	5
 6753 01bf 05        		.byte	5
 6754 01c0 05        		.byte	5
 6755 01c1 3E        		.byte	62
 6756 01c2 22        		.byte	34
 6757 01c3 26        		.byte	38
 6758 01c4 2A        		.byte	42
 6759 01c5 32        		.byte	50
 6760 01c6 22        		.byte	34
 6761 01c7 00        		.byte	0
 6762 01c8 10        		.byte	16
 6763 01c9 6C        		.byte	108
 6764 01ca 82        		.byte	-126
 6765 01cb 82        		.byte	-126
 6766 01cc 04        		.byte	4
 6767 01cd 02        		.byte	2
 6768 01ce FF        		.byte	-1
 6769 01cf 02        		.byte	2
 6770 01d0 04        		.byte	4
 6771 01d1 82        		.byte	-126
 6772 01d2 82        		.byte	-126
 6773 01d3 6C        		.byte	108
 6774 01d4 10        		.byte	16
 6775 01d5 00        		.byte	0
 6776 01d6 08        		.byte	8
 6777 01d7 10        		.byte	16
 6778 01d8 18        		.byte	24
 6779 01d9 08        		.byte	8
 6780 01da 10        		.byte	16
 6781               		.comm RX_array,416,1
 7054               	.Letext0:
DEFINED SYMBOLS
                            *ABS*:00000000 main.c
C:\DOCUME~1\Pete\LOCALS~1\Temp/ccX0N9C5.s:2      *ABS*:0000003f __SREG__
C:\DOCUME~1\Pete\LOCALS~1\Temp/ccX0N9C5.s:3      *ABS*:0000003e __SP_H__
C:\DOCUME~1\Pete\LOCALS~1\Temp/ccX0N9C5.s:4      *ABS*:0000003d __SP_L__
C:\DOCUME~1\Pete\LOCALS~1\Temp/ccX0N9C5.s:5      *ABS*:00000034 __CCP__
C:\DOCUME~1\Pete\LOCALS~1\Temp/ccX0N9C5.s:6      *ABS*:00000000 __tmp_reg__
C:\DOCUME~1\Pete\LOCALS~1\Temp/ccX0N9C5.s:7      *ABS*:00000001 __zero_reg__
C:\DOCUME~1\Pete\LOCALS~1\Temp/ccX0N9C5.s:18     .text:00000000 __vector_18
C:\DOCUME~1\Pete\LOCALS~1\Temp/ccX0N9C5.s:6243   .bss:00000004 RX_in
                            *COM*:000001a0 RX_array
C:\DOCUME~1\Pete\LOCALS~1\Temp/ccX0N9C5.s:109    .text:000000a2 __vector_14
C:\DOCUME~1\Pete\LOCALS~1\Temp/ccX0N9C5.s:6255   .data:00000003 BL_dutycycle
C:\DOCUME~1\Pete\LOCALS~1\Temp/ccX0N9C5.s:166    .text:000000ec ioinit
C:\DOCUME~1\Pete\LOCALS~1\Temp/ccX0N9C5.s:6237   .bss:00000003 display
C:\DOCUME~1\Pete\LOCALS~1\Temp/ccX0N9C5.s:220    .text:00000128 delay_us
C:\DOCUME~1\Pete\LOCALS~1\Temp/ccX0N9C5.s:261    .text:0000014e delay_ms
C:\DOCUME~1\Pete\LOCALS~1\Temp/ccX0N9C5.s:302    .text:0000017a USART_Init
C:\DOCUME~1\Pete\LOCALS~1\Temp/ccX0N9C5.s:336    .text:00000198 put_char
C:\DOCUME~1\Pete\LOCALS~1\Temp/ccX0N9C5.s:358    .text:000001a8 delay
C:\DOCUME~1\Pete\LOCALS~1\Temp/ccX0N9C5.s:384    .text:000001b4 set_data
C:\DOCUME~1\Pete\LOCALS~1\Temp/ccX0N9C5.s:417    .text:000001d4 set_x
C:\DOCUME~1\Pete\LOCALS~1\Temp/ccX0N9C5.s:549    .text:0000023c set_page
C:\DOCUME~1\Pete\LOCALS~1\Temp/ccX0N9C5.s:668    .text:00000296 write_byte
C:\DOCUME~1\Pete\LOCALS~1\Temp/ccX0N9C5.s:809    .text:00000304 display_on
C:\DOCUME~1\Pete\LOCALS~1\Temp/ccX0N9C5.s:888    .text:00000342 read_byte
C:\DOCUME~1\Pete\LOCALS~1\Temp/ccX0N9C5.s:1277   .text:00000462 rnd
C:\DOCUME~1\Pete\LOCALS~1\Temp/ccX0N9C5.s:1336   .text:000004b4 EEPROM_write
C:\DOCUME~1\Pete\LOCALS~1\Temp/ccX0N9C5.s:1362   .text:000004c4 EEPROM_read
C:\DOCUME~1\Pete\LOCALS~1\Temp/ccX0N9C5.s:1387   .text:000004d2 set_backlight
C:\DOCUME~1\Pete\LOCALS~1\Temp/ccX0N9C5.s:1442   .text:00000510 set_baud
C:\DOCUME~1\Pete\LOCALS~1\Temp/ccX0N9C5.s:1591   .text:000005a6 read
C:\DOCUME~1\Pete\LOCALS~1\Temp/ccX0N9C5.s:1649   .text:000005e6 write
C:\DOCUME~1\Pete\LOCALS~1\Temp/ccX0N9C5.s:1733   .text:00000648 pixel
C:\DOCUME~1\Pete\LOCALS~1\Temp/ccX0N9C5.s:6231   .bss:00000002 reverse
C:\DOCUME~1\Pete\LOCALS~1\Temp/ccX0N9C5.s:6299   .bss:0000000f temp_side.1949
C:\DOCUME~1\Pete\LOCALS~1\Temp/ccX0N9C5.s:6298   .bss:0000000e temp_x.1950
C:\DOCUME~1\Pete\LOCALS~1\Temp/ccX0N9C5.s:6300   .bss:00000010 temp_page.1948
C:\DOCUME~1\Pete\LOCALS~1\Temp/ccX0N9C5.s:6297   .bss:0000000d temp_data1.1951
C:\DOCUME~1\Pete\LOCALS~1\Temp/ccX0N9C5.s:6263   .bss:0000000c temp_data2.1952
C:\DOCUME~1\Pete\LOCALS~1\Temp/ccX0N9C5.s:2007   .text:00000802 erase_block
                             .bss:00000008 temp_y.2352
C:\DOCUME~1\Pete\LOCALS~1\Temp/ccX0N9C5.s:6262   .bss:0000000a temp_x.2351
C:\DOCUME~1\Pete\LOCALS~1\Temp/ccX0N9C5.s:2149   .text:000008d8 del_char
C:\DOCUME~1\Pete\LOCALS~1\Temp/ccX0N9C5.s:6200   .bss:00000000 x_offset
C:\DOCUME~1\Pete\LOCALS~1\Temp/ccX0N9C5.s:6206   .data:00000000 y_offset
C:\DOCUME~1\Pete\LOCALS~1\Temp/ccX0N9C5.s:2290   .text:000009ba line
C:\DOCUME~1\Pete\LOCALS~1\Temp/ccX0N9C5.s:2814   .text:00000d08 box
C:\DOCUME~1\Pete\LOCALS~1\Temp/ccX0N9C5.s:2876   .text:00000d5c print_char
C:\DOCUME~1\Pete\LOCALS~1\Temp/ccX0N9C5.s:6305   .progmem.data:00000000 text_array
C:\DOCUME~1\Pete\LOCALS~1\Temp/ccX0N9C5.s:3024   .text:00000e38 clear_screen
C:\DOCUME~1\Pete\LOCALS~1\Temp/ccX0N9C5.s:3591   .text:00001068 display_init
C:\DOCUME~1\Pete\LOCALS~1\Temp/ccX0N9C5.s:3707   .text:0000112a circle
C:\DOCUME~1\Pete\LOCALS~1\Temp/ccX0N9C5.s:3950   .text:000012b0 demo
C:\DOCUME~1\Pete\LOCALS~1\Temp/ccX0N9C5.s:6266   .data:00000005 logo
C:\DOCUME~1\Pete\LOCALS~1\Temp/ccX0N9C5.s:4735   .text:000017cc main
C:\DOCUME~1\Pete\LOCALS~1\Temp/ccX0N9C5.s:6224   .data:00000002 baud_rate
C:\DOCUME~1\Pete\LOCALS~1\Temp/ccX0N9C5.s:6260   .data:00000004 splash_screen
C:\DOCUME~1\Pete\LOCALS~1\Temp/ccX0N9C5.s:6249   .bss:00000006 RX_read
C:\DOCUME~1\Pete\LOCALS~1\Temp/ccX0N9C5.s:6211   .data:00000001 side_mark
C:\DOCUME~1\Pete\LOCALS~1\Temp/ccX0N9C5.s:6218   .bss:00000001 page_mark

UNDEFINED SYMBOLS
__fixsfsi
__floatsisf
__subsf3
__gesf2
__divsf3
__mulsf3
__addsf3
__fixunssfsi
sqrt
rprintf_devopen
__do_copy_data
__do_clear_bss
